; ModuleID = 'oob_dyn.2e4d2325a8a613c-cgu.0'
source_filename = "oob_dyn.2e4d2325a8a613c-cgu.0"
target datalayout = "e-m:e-p270:32:32-p271:32:32-p272:64:64-i64:64-i128:128-f80:128-n8:16:32:64-S128"
target triple = "x86_64-unknown-linux-gnu"

%"core::fmt::rt::Argument<'_>" = type { %"core::fmt::rt::ArgumentType<'_>" }
%"core::fmt::rt::ArgumentType<'_>" = type { ptr, [1 x i64] }

@anon.12ea5d96d0290b8ba80fa83f0d160b84.0 = private unnamed_addr constant <{ [8 x i8], [4 x i8], [4 x i8] }> <{ [8 x i8] undef, [4 x i8] c"\00\00\11\00", [4 x i8] undef }>, align 8
@alloc_5812f59b5ea3b3def17ff43dfa536d82 = private unnamed_addr constant [81 x i8] c"/rustc/ed61e7d7e242494fb7057f2657300d9e77bb4fcb/library/core/src/char/methods.rs\00", align 1
@alloc_2925e2a6c2ac77848dfa2a589f28dc35 = private unnamed_addr constant <{ ptr, [16 x i8] }> <{ ptr @alloc_5812f59b5ea3b3def17ff43dfa536d82, [16 x i8] c"P\00\00\00\00\00\00\00\EF\00\00\00\12\00\00\00" }>, align 8
@alloc_9c482f2f4ee4370f43752c111033314e = private unnamed_addr constant [81 x i8] c"/rustc/ed61e7d7e242494fb7057f2657300d9e77bb4fcb/library/core/src/ptr/non_null.rs\00", align 1
@alloc_9c07a1c5fd625bcfd1904a658efdc61b = private unnamed_addr constant <{ ptr, [16 x i8] }> <{ ptr @alloc_9c482f2f4ee4370f43752c111033314e, [16 x i8] c"P\00\00\00\00\00\00\00\E3\02\00\003\00\00\00" }>, align 8
@alloc_902d0502498a7867f18a1b093eb45298 = private unnamed_addr constant [91 x i8] c"/rustc/ed61e7d7e242494fb7057f2657300d9e77bb4fcb/library/std/src/io/error/repr_bitpacked.rs\00", align 1
@alloc_c46812334728ce009f8cea92fbb7a3bb = private unnamed_addr constant <{ ptr, [16 x i8] }> <{ ptr @alloc_902d0502498a7867f18a1b093eb45298, [16 x i8] c"Z\00\00\00\00\00\00\00\11\01\00\00\1A\00\00\00" }>, align 8
@alloc_a500d906b91607583596fa15e63c2ada = private unnamed_addr constant [40 x i8] c"internal error: entered unreachable code", align 1
@alloc_df38229897fa3f90ed81b968e38fcae7 = private unnamed_addr constant <{ ptr, [16 x i8] }> <{ ptr @alloc_902d0502498a7867f18a1b093eb45298, [16 x i8] c"Z\00\00\00\00\00\00\00\22\01\00\00\0D\00\00\00" }>, align 8
@vtable.0 = private constant <{ [24 x i8], ptr, ptr, ptr }> <{ [24 x i8] c"\00\00\00\00\00\00\00\00\08\00\00\00\00\00\00\00\08\00\00\00\00\00\00\00", ptr @"_ZN4core3ops8function6FnOnce40call_once$u7b$$u7b$vtable.shim$u7d$$u7d$17h0c4167313151a682E", ptr @"_ZN3std2rt10lang_start28_$u7b$$u7b$closure$u7d$$u7d$17h777c3308bd82c159E", ptr @"_ZN3std2rt10lang_start28_$u7b$$u7b$closure$u7d$$u7d$17h777c3308bd82c159E" }>, align 8, !dbg !0
@alloc_16e8aa63d85f9e3bf36e816361a3f3a5 = private unnamed_addr constant [79 x i8] c"/rustc/ed61e7d7e242494fb7057f2657300d9e77bb4fcb/library/core/src/iter/range.rs\00", align 1
@alloc_f6c93850c917906f08a9412dbf717571 = private unnamed_addr constant <{ ptr, [16 x i8] }> <{ ptr @alloc_16e8aa63d85f9e3bf36e816361a3f3a5, [16 x i8] c"N\00\00\00\00\00\00\00\AB\01\00\00\01\00\00\00" }>, align 8
@anon.12ea5d96d0290b8ba80fa83f0d160b84.1 = private unnamed_addr constant <{ [8 x i8], [8 x i8] }> <{ [8 x i8] zeroinitializer, [8 x i8] undef }>, align 8
@anon.12ea5d96d0290b8ba80fa83f0d160b84.2 = private unnamed_addr constant <{ [4 x i8], [4 x i8] }> <{ [4 x i8] zeroinitializer, [4 x i8] undef }>, align 4
@alloc_e237299e4bb43e9cd7106e57333349ad = private unnamed_addr constant [76 x i8] c"/rustc/ed61e7d7e242494fb7057f2657300d9e77bb4fcb/library/core/src/num/mod.rs\00", align 1
@alloc_75ed0a1913404846148a1d20155f0342 = private unnamed_addr constant <{ ptr, [16 x i8] }> <{ ptr @alloc_e237299e4bb43e9cd7106e57333349ad, [16 x i8] c"K\00\00\00\00\00\00\00v\06\00\00\01\00\00\00" }>, align 8
@alloc_dbcce5cb8873847766db4f16f930a00e = private unnamed_addr constant [186 x i8] c"unsafe precondition(s) violated: isize::unchecked_neg cannot overflow\0A\0AThis indicates a bug in the program. This Undefined Behavior check is optional, and cannot be relied on for safety.", align 1
@alloc_3e1ebac14318b612ab4efabc52799932 = private unnamed_addr constant [186 x i8] c"unsafe precondition(s) violated: usize::unchecked_add cannot overflow\0A\0AThis indicates a bug in the program. This Undefined Behavior check is optional, and cannot be relied on for safety.", align 1
@alloc_ce0610c284ab9716c052bc29463b18fc = private unnamed_addr constant <{ ptr, [16 x i8] }> <{ ptr @alloc_e237299e4bb43e9cd7106e57333349ad, [16 x i8] c"K\00\00\00\00\00\00\00w\06\00\00\01\00\00\00" }>, align 8
@alloc_560a59ed819b9d9a5841f6e731c4c8e5 = private unnamed_addr constant [210 x i8] c"unsafe precondition(s) violated: NonNull::new_unchecked requires that the pointer is non-null\0A\0AThis indicates a bug in the program. This Undefined Behavior check is optional, and cannot be relied on for safety.", align 1
@alloc_f8be598209e2f834cf2d2b9cc4a8e7e5 = private unnamed_addr constant <{ ptr, [16 x i8] }> <{ ptr @alloc_9c482f2f4ee4370f43752c111033314e, [16 x i8] c"P\00\00\00\00\00\00\00\B9\03\00\00 \00\00\00" }>, align 8
@alloc_ec595fc0e82ef92fc59bd74f68296eae = private unnamed_addr constant [73 x i8] c"assertion failed: 0 < pointee_size && pointee_size <= isize::MAX as usize", align 1
@alloc_de4e626d456b04760e72bc785ed7e52a = private unnamed_addr constant [201 x i8] c"unsafe precondition(s) violated: ptr::offset_from_unsigned requires `self >= origin`\0A\0AThis indicates a bug in the program. This Undefined Behavior check is optional, and cannot be relied on for safety.", align 1
@alloc_d11c91003c30fc64cdedefcfd2d1727f = private unnamed_addr constant [84 x i8] c"/rustc/ed61e7d7e242494fb7057f2657300d9e77bb4fcb/library/core/src/str/validations.rs\00", align 1
@alloc_529b6025d83b9ebb0e57fdfa1395d046 = private unnamed_addr constant <{ ptr, [16 x i8] }> <{ ptr @alloc_d11c91003c30fc64cdedefcfd2d1727f, [16 x i8] c"S\00\00\00\00\00\00\000\00\00\00$\00\00\00" }>, align 8
@alloc_7f873a0e7c47e0ef63cb2a1c0771ddcd = private unnamed_addr constant <{ ptr, [16 x i8] }> <{ ptr @alloc_d11c91003c30fc64cdedefcfd2d1727f, [16 x i8] c"S\00\00\00\00\00\00\007\00\00\00(\00\00\00" }>, align 8
@alloc_5b1ece176c586484ef2b256193cf7173 = private unnamed_addr constant <{ ptr, [16 x i8] }> <{ ptr @alloc_d11c91003c30fc64cdedefcfd2d1727f, [16 x i8] c"S\00\00\00\00\00\00\00?\00\00\00,\00\00\00" }>, align 8
@alloc_d35d46144934c9827c8be2c636a8f370 = private unnamed_addr constant <{ ptr, [16 x i8] }> <{ ptr @alloc_d11c91003c30fc64cdedefcfd2d1727f, [16 x i8] c"S\00\00\00\00\00\00\00]\00\00\00)\00\00\00" }>, align 8
@alloc_665d5d661668e66e88a8de838b13b717 = private unnamed_addr constant <{ ptr, [16 x i8] }> <{ ptr @alloc_d11c91003c30fc64cdedefcfd2d1727f, [16 x i8] c"S\00\00\00\00\00\00\00b\00\00\00-\00\00\00" }>, align 8
@alloc_5ed187e3efe0ef0d2eaa93b916f4b9e6 = private unnamed_addr constant <{ ptr, [16 x i8] }> <{ ptr @alloc_d11c91003c30fc64cdedefcfd2d1727f, [16 x i8] c"S\00\00\00\00\00\00\00g\00\00\001\00\00\00" }>, align 8
@alloc_3366e88ddaea6e8becd9852c131ee4f3 = private unnamed_addr constant [76 x i8] c"/rustc/ed61e7d7e242494fb7057f2657300d9e77bb4fcb/library/core/src/str/mod.rs\00", align 1
@alloc_58f83348092d5ee291504bc000cb25c3 = private unnamed_addr constant <{ ptr, [16 x i8] }> <{ ptr @alloc_3366e88ddaea6e8becd9852c131ee4f3, [16 x i8] c"K\00\00\00\00\00\00\00\A3\02\00\00\16\00\00\00" }>, align 8
@alloc_91f2a00ff2cd9cdc4bb205a66832e2bb = private unnamed_addr constant [219 x i8] c"unsafe precondition(s) violated: str::get_unchecked requires that the range is within the string slice\0A\0AThis indicates a bug in the program. This Undefined Behavior check is optional, and cannot be relied on for safety.", align 1
@alloc_4dc07e69e5d34e9d1484dfbbef0bb9b1 = private unnamed_addr constant [174 x i8] c"unsafe precondition(s) violated: invalid value for `char`\0A\0AThis indicates a bug in the program. This Undefined Behavior check is optional, and cannot be relied on for safety.", align 1
@alloc_78b6a49e36fe808e0ef950c2feb9fafc = private unnamed_addr constant [71 x i8] c"to_digit: invalid radix -- radix must be in the range 2 to 36 inclusive", align 1
@alloc_708eb9f2492b697e0d761b647be5d46c = private unnamed_addr constant <{ ptr, [8 x i8] }> <{ ptr @alloc_78b6a49e36fe808e0ef950c2feb9fafc, [8 x i8] c"G\00\00\00\00\00\00\00" }>, align 8
@alloc_8d0c494df655f9d67b952dcf71fa636b = private unnamed_addr constant <{ ptr, [16 x i8] }> <{ ptr @alloc_5812f59b5ea3b3def17ff43dfa536d82, [16 x i8] c"P\00\00\00\00\00\00\00\93\01\00\00\09\00\00\00" }>, align 8
@alloc_75fb06c2453febd814e73f5f2e72ae38 = private unnamed_addr constant [199 x i8] c"unsafe precondition(s) violated: hint::unreachable_unchecked must never be reached\0A\0AThis indicates a bug in the program. This Undefined Behavior check is optional, and cannot be relied on for safety.", align 1
@alloc_1be5ea12ba708d9a11b6e93a7d387a75 = private unnamed_addr constant [281 x i8] c"unsafe precondition(s) violated: Layout::from_size_align_unchecked requires that align is a power of 2 and the rounded-up allocation size does not exceed isize::MAX\0A\0AThis indicates a bug in the program. This Undefined Behavior check is optional, and cannot be relied on for safety.", align 1
@alloc_a28e8c8fd5088943a8b5d44af697ff83 = private unnamed_addr constant [279 x i8] c"unsafe precondition(s) violated: slice::from_raw_parts requires the pointer to be aligned and non-null, and the total size of the slice not to exceed `isize::MAX`\0A\0AThis indicates a bug in the program. This Undefined Behavior check is optional, and cannot be relied on for safety.", align 1
@alloc_fad0cd83b7d1858a846a172eb260e593 = private unnamed_addr constant [42 x i8] c"is_aligned_to: align is not a power-of-two", align 1
@alloc_e92e94d0ff530782b571cfd99ec66aef = private unnamed_addr constant <{ ptr, [8 x i8] }> <{ ptr @alloc_fad0cd83b7d1858a846a172eb260e593, [8 x i8] c"*\00\00\00\00\00\00\00" }>, align 8
@alloc_2a4e51eb45533e1138f63e9e1640584b = private unnamed_addr constant [78 x i8] c"/rustc/ed61e7d7e242494fb7057f2657300d9e77bb4fcb/library/core/src/ub_checks.rs\00", align 1
@alloc_f43627efe9d9e10b7544d0f2c13bff14 = private unnamed_addr constant <{ ptr, [16 x i8] }> <{ ptr @alloc_2a4e51eb45533e1138f63e9e1640584b, [16 x i8] c"M\00\00\00\00\00\00\00\94\00\00\006\00\00\00" }>, align 8
@alloc_903e9c430036971d21747e34da9984f0 = private unnamed_addr constant [82 x i8] c"/rustc/ed61e7d7e242494fb7057f2657300d9e77bb4fcb/library/core/src/ptr/const_ptr.rs\00", align 1
@alloc_db58294b8d2ce64ae31d5b63c946c529 = private unnamed_addr constant <{ ptr, [16 x i8] }> <{ ptr @alloc_903e9c430036971d21747e34da9984f0, [16 x i8] c"Q\00\00\00\00\00\00\00^\05\00\00\0D\00\00\00" }>, align 8
@vtable.1 = private constant <{ ptr, [16 x i8], ptr }> <{ ptr @"_ZN4core3ptr42drop_in_place$LT$std..io..error..Error$GT$17h9e6eeb4571b17a1aE", [16 x i8] c"\08\00\00\00\00\00\00\00\08\00\00\00\00\00\00\00", ptr @"_ZN58_$LT$std..io..error..Error$u20$as$u20$core..fmt..Debug$GT$3fmt17h62ceb23194058131E" }>, align 8, !dbg !24
@vtable.2 = private constant <{ [24 x i8], ptr }> <{ [24 x i8] c"\00\00\00\00\00\00\00\00\01\00\00\00\00\00\00\00\01\00\00\00\00\00\00\00", ptr @"_ZN68_$LT$core..num..error..ParseIntError$u20$as$u20$core..fmt..Debug$GT$3fmt17h83c8013be6a2f3f7E" }>, align 8, !dbg !148
@_ZN4core7unicode12unicode_data11white_space14WHITESPACE_MAP17h4cf41e25fd3a5318E = external global [256 x i8]
@alloc_7e265bead62de86fc7ffd8ffc9522574 = private unnamed_addr constant [89 x i8] c"/rustc/ed61e7d7e242494fb7057f2657300d9e77bb4fcb/library/core/src/unicode/unicode_data.rs\00", align 1
@alloc_6defd339d793744daa3cb881ef6fc606 = private unnamed_addr constant <{ ptr, [16 x i8] }> <{ ptr @alloc_7e265bead62de86fc7ffd8ffc9522574, [16 x i8] c"X\00\00\00\00\00\00\00\EC\02\00\00\12\00\00\00" }>, align 8
@alloc_f173f0e2cf77b1f431edeee8d5a86d45 = private unnamed_addr constant <{ ptr, [16 x i8] }> <{ ptr @alloc_7e265bead62de86fc7ffd8ffc9522574, [16 x i8] c"X\00\00\00\00\00\00\00\EE\02\00\00\13\00\00\00" }>, align 8
@alloc_6a67276667a84cca95967678678554ae = private unnamed_addr constant [77 x i8] c"/rustc/ed61e7d7e242494fb7057f2657300d9e77bb4fcb/library/alloc/src/vec/mod.rs\00", align 1
@alloc_615f9dd9d0b00cae2582c98c9f3b7009 = private unnamed_addr constant <{ ptr, [16 x i8] }> <{ ptr @alloc_6a67276667a84cca95967678678554ae, [16 x i8] c"L\00\00\00\00\00\00\00\87\06\00\00\12\00\00\00" }>, align 8
@vtable.3 = private constant <{ [24 x i8], ptr }> <{ [24 x i8] c"\00\00\00\00\00\00\00\00\08\00\00\00\00\00\00\00\08\00\00\00\00\00\00\00", ptr @"_ZN42_$LT$$RF$T$u20$as$u20$core..fmt..Debug$GT$3fmt17h66621c8cb3ab1452E" }>, align 8, !dbg !168
@alloc_f62df14955f7d78bca139b0a7668683d = private unnamed_addr constant [13 x i8] c"ParseIntError", align 1
@alloc_a5d866b1768ad3f826bccdb004a1a8ae = private unnamed_addr constant [4 x i8] c"kind", align 1
@alloc_cedf035cf8f768b870628e9a0b4e5f1e = private unnamed_addr constant [81 x i8] c"/rustc/ed61e7d7e242494fb7057f2657300d9e77bb4fcb/library/core/src/alloc/layout.rs\00", align 1
@alloc_73f9238de114e9f561a763f00815f00e = private unnamed_addr constant <{ ptr, [16 x i8] }> <{ ptr @alloc_cedf035cf8f768b870628e9a0b4e5f1e, [16 x i8] c"P\00\00\00\00\00\00\00\E0\00\00\00\12\00\00\00" }>, align 8
@alloc_64a05b32bb1fbe0a6130e3d9a9c48336 = private unnamed_addr constant [79 x i8] c"/rustc/ed61e7d7e242494fb7057f2657300d9e77bb4fcb/library/core/src/ptr/unique.rs\00", align 1
@alloc_0bc17b14e462a5a757e896460b9f7225 = private unnamed_addr constant <{ ptr, [16 x i8] }> <{ ptr @alloc_64a05b32bb1fbe0a6130e3d9a9c48336, [16 x i8] c"N\00\00\00\00\00\00\00X\00\00\00$\00\00\00" }>, align 8
@alloc_e785023546a81816a36eac0ebfbda700 = private unnamed_addr constant [11 x i8] c"ELements: \0A", align 1
@alloc_c1cad7bbef4fb0f907e91d0e9913e61f = private unnamed_addr constant <{ ptr, [8 x i8] }> <{ ptr @alloc_e785023546a81816a36eac0ebfbda700, [8 x i8] c"\0B\00\00\00\00\00\00\00" }>, align 8
@alloc_15e02a2fde92d2968a11f3eea6bb66fa = private unnamed_addr constant [18 x i8] c"\0AEnter am index: \0A", align 1
@alloc_0f3eac4cc752b86b79bc7e3011b15c8b = private unnamed_addr constant <{ ptr, [8 x i8] }> <{ ptr @alloc_15e02a2fde92d2968a11f3eea6bb66fa, [8 x i8] c"\12\00\00\00\00\00\00\00" }>, align 8
@alloc_7a9ce3b84f8b0fbcf9e409bbc3418674 = private unnamed_addr constant [11 x i8] c"Failed read", align 1
@alloc_bdb4ad7ae8e4ae4bcdafaf5ebfe2e04c = private unnamed_addr constant [11 x i8] c"oob_dyn.rs\00", align 1
@alloc_2683306d5488a2c41ac6fd3c75e17ef9 = private unnamed_addr constant <{ ptr, [16 x i8] }> <{ ptr @alloc_bdb4ad7ae8e4ae4bcdafaf5ebfe2e04c, [16 x i8] c"\0A\00\00\00\00\00\00\00\0B\00\00\00(\00\00\00" }>, align 8
@alloc_6932f2c6012696891faa9c18d861b9ae = private unnamed_addr constant [14 x i8] c"Invalid number", align 1
@alloc_7a0bf4429fdb2d39f367af9acaaddd97 = private unnamed_addr constant <{ ptr, [16 x i8] }> <{ ptr @alloc_bdb4ad7ae8e4ae4bcdafaf5ebfe2e04c, [16 x i8] c"\0A\00\00\00\00\00\00\00\0C\00\00\00.\00\00\00" }>, align 8
@alloc_e0e822fc87dbd94cb05fd90e79f0313c = private unnamed_addr constant <{ ptr, [16 x i8] }> <{ ptr @alloc_bdb4ad7ae8e4ae4bcdafaf5ebfe2e04c, [16 x i8] c"\0A\00\00\00\00\00\00\00\0D\00\00\00&\00\00\00" }>, align 8
@alloc_e0f054d5a1399f09e5f3cfd4e9a6526c = private unnamed_addr constant [4 x i8] c"arr[", align 1
@alloc_428053e6434889c8e3f16313e3d2a9ba = private unnamed_addr constant [4 x i8] c"] = ", align 1
@alloc_49a1e817e911805af64bbc7efb390101 = private unnamed_addr constant [1 x i8] c"\0A", align 1
@alloc_1479a89dcf50f86a1659658f01ede732 = private unnamed_addr constant <{ ptr, [8 x i8], ptr, [8 x i8], ptr, [8 x i8] }> <{ ptr @alloc_e0f054d5a1399f09e5f3cfd4e9a6526c, [8 x i8] c"\04\00\00\00\00\00\00\00", ptr @alloc_428053e6434889c8e3f16313e3d2a9ba, [8 x i8] c"\04\00\00\00\00\00\00\00", ptr @alloc_49a1e817e911805af64bbc7efb390101, [8 x i8] c"\01\00\00\00\00\00\00\00" }>, align 8
@alloc_e79bf453b6e5f4280a7de25c0af5734e = private unnamed_addr constant [16 x i8] c"Enter a value: \0A", align 1
@alloc_b923adcdaea1fdc04157bd95d272bfb5 = private unnamed_addr constant <{ ptr, [8 x i8] }> <{ ptr @alloc_e79bf453b6e5f4280a7de25c0af5734e, [8 x i8] c"\10\00\00\00\00\00\00\00" }>, align 8
@alloc_c3c5a2b545d8bd77ed927bbb9a38f4e1 = private unnamed_addr constant [19 x i8] c"Failed to read line", align 1
@alloc_4c593484466ca9f0c25234d6dd1e5158 = private unnamed_addr constant <{ ptr, [16 x i8] }> <{ ptr @alloc_bdb4ad7ae8e4ae4bcdafaf5ebfe2e04c, [16 x i8] c"\0A\00\00\00\00\00\00\00\10\00\00\00.\00\00\00" }>, align 8
@alloc_d8a0e97a7e38aa9ea4c9a9ffa3b0f756 = private unnamed_addr constant [14 x i8] c"Number Invalid", align 1
@alloc_0cff07c0d56e1ade5203b09e8c92ca8c = private unnamed_addr constant <{ ptr, [16 x i8] }> <{ ptr @alloc_bdb4ad7ae8e4ae4bcdafaf5ebfe2e04c, [16 x i8] c"\0A\00\00\00\00\00\00\00\11\00\00\002\00\00\00" }>, align 8
@alloc_39a423657559cb9ed0dce36315d38f0f = private unnamed_addr constant <{ ptr, [16 x i8] }> <{ ptr @alloc_bdb4ad7ae8e4ae4bcdafaf5ebfe2e04c, [16 x i8] c"\0A\00\00\00\00\00\00\00\12\00\00\00\06\00\00\00" }>, align 8
@alloc_604e18ca9f9bbff944eb3a9fbb0f2562 = private unnamed_addr constant <{ ptr, [16 x i8] }> <{ ptr @alloc_bdb4ad7ae8e4ae4bcdafaf5ebfe2e04c, [16 x i8] c"\0A\00\00\00\00\00\00\00\13\00\00\003\00\00\00" }>, align 8
@alloc_008b1a91ef4df68b7b6bbfd692740c4d = private unnamed_addr constant [17 x i8] c"Write after, arr[", align 1
@alloc_c9fb644c14465cf8ddcfdc9af7a158c0 = private unnamed_addr constant <{ ptr, [8 x i8], ptr, [8 x i8], ptr, [8 x i8] }> <{ ptr @alloc_008b1a91ef4df68b7b6bbfd692740c4d, [8 x i8] c"\11\00\00\00\00\00\00\00", ptr @alloc_428053e6434889c8e3f16313e3d2a9ba, [8 x i8] c"\04\00\00\00\00\00\00\00", ptr @alloc_49a1e817e911805af64bbc7efb390101, [8 x i8] c"\01\00\00\00\00\00\00\00" }>, align 8
@alloc_4782e79e38aa1fedfb3d9e5d28177f38 = private unnamed_addr constant <{ ptr, [16 x i8] }> <{ ptr @alloc_bdb4ad7ae8e4ae4bcdafaf5ebfe2e04c, [16 x i8] c"\0A\00\00\00\00\00\00\00\07\00\00\00&\00\00\00" }>, align 8
@__rustc_debug_gdb_scripts_section__ = linkonce_odr unnamed_addr constant [34 x i8] c"\01gdb_load_rust_pretty_printers.py\00", section ".debug_gdb_scripts", align 1

; <core::str::iter::CharIndices as core::iter::traits::double_ended::DoubleEndedIterator>::next_back
; Function Attrs: inlinehint nonlazybind uwtable
define internal { i64, i32 } @"_ZN102_$LT$core..str..iter..CharIndices$u20$as$u20$core..iter..traits..double_ended..DoubleEndedIterator$GT$9next_back17hdf18dbf92d5bb203E"(ptr align 8 %self) unnamed_addr #0 !dbg !255 {
start:
  %index.dbg.spill = alloca [8 x i8], align 8
  %end.dbg.spill = alloca [8 x i8], align 8
  %self.dbg.spill8 = alloca [8 x i8], align 8
  %_25.dbg.spill = alloca [8 x i8], align 8
  %_24.dbg.spill = alloca [8 x i8], align 8
  %x.dbg.spill6 = alloca [4 x i8], align 4
  %x.dbg.spill = alloca [4 x i8], align 4
  %self.dbg.spill4 = alloca [8 x i8], align 8
  %f.dbg.spill = alloca [0 x i8], align 1
  %self.dbg.spill = alloca [8 x i8], align 8
  %f3 = alloca [8 x i8], align 8
  %f = alloca [8 x i8], align 8
  %self2 = alloca [8 x i8], align 4
  %_5 = alloca [8 x i8], align 8
  %_4 = alloca [8 x i8], align 8
  %self1 = alloca [4 x i8], align 4
  %_0 = alloca [16 x i8], align 8
  store ptr %self, ptr %self.dbg.spill, align 8
    #dbg_declare(ptr %self.dbg.spill, !308, !DIExpression(), !309)
    #dbg_declare(ptr %self1, !310, !DIExpression(), !343)
    #dbg_declare(ptr %self2, !345, !DIExpression(), !373)
    #dbg_declare(ptr %f, !340, !DIExpression(DW_OP_LLVM_fragment, 0, 64), !382)
    #dbg_declare(ptr %f3, !340, !DIExpression(DW_OP_LLVM_fragment, 64, 64), !382)
    #dbg_declare(ptr %f.dbg.spill, !370, !DIExpression(), !383)
  store ptr %self, ptr %self.dbg.spill4, align 8, !dbg !384
    #dbg_declare(ptr %self.dbg.spill4, !380, !DIExpression(), !385)
; call core::str::validations::next_code_point_reverse
  %0 = call { i32, i32 } @_ZN4core3str11validations23next_code_point_reverse17h4a6990dea14afee7E(ptr align 8 %self), !dbg !386
  %1 = extractvalue { i32, i32 } %0, 0, !dbg !386
  %2 = extractvalue { i32, i32 } %0, 1, !dbg !386
  store i32 %1, ptr %self2, align 4, !dbg !386
  %3 = getelementptr inbounds i8, ptr %self2, i64 4, !dbg !386
  store i32 %2, ptr %3, align 4, !dbg !386
  %4 = load i32, ptr %self2, align 4, !dbg !387
  %5 = getelementptr inbounds i8, ptr %self2, i64 4, !dbg !387
  %6 = load i32, ptr %5, align 4, !dbg !387
  %_8 = zext i32 %4 to i64, !dbg !387
  %7 = trunc nuw i64 %_8 to i1, !dbg !388
  br i1 %7, label %bb4, label %bb3, !dbg !388

bb4:                                              ; preds = %start
  %8 = getelementptr inbounds i8, ptr %self2, i64 4, !dbg !389
  %x = load i32, ptr %8, align 4, !dbg !389
  store i32 %x, ptr %x.dbg.spill, align 4, !dbg !389
    #dbg_declare(ptr %x.dbg.spill, !371, !DIExpression(), !390)
    #dbg_declare(ptr %x.dbg.spill, !391, !DIExpression(), !396)
    #dbg_declare(ptr %x.dbg.spill, !398, !DIExpression(), !407)
    #dbg_declare(ptr %x.dbg.spill, !409, !DIExpression(), !435)
  br label %bb5, !dbg !437

bb3:                                              ; preds = %start
  store i32 1114112, ptr %self1, align 4, !dbg !440
  %9 = getelementptr inbounds i8, ptr %self, i64 16, !dbg !441
  store ptr %9, ptr %_4, align 8, !dbg !441
  store ptr %self, ptr %_5, align 8, !dbg !441
  %10 = load ptr, ptr %_4, align 8, !dbg !441
  store ptr %10, ptr %f, align 8, !dbg !441
  %11 = load ptr, ptr %_5, align 8, !dbg !441
  store ptr %11, ptr %f3, align 8, !dbg !441
  %12 = load i64, ptr @anon.12ea5d96d0290b8ba80fa83f0d160b84.0, align 8, !dbg !442
  %13 = load i32, ptr getelementptr inbounds (i8, ptr @anon.12ea5d96d0290b8ba80fa83f0d160b84.0, i64 8), align 8, !dbg !442
  store i64 %12, ptr %_0, align 8, !dbg !442
  %14 = getelementptr inbounds i8, ptr %_0, i64 8, !dbg !442
  store i32 %13, ptr %14, align 8, !dbg !442
  br label %bb7, !dbg !443

bb7:                                              ; preds = %bb6, %bb3
  %15 = load i64, ptr %_0, align 8, !dbg !444
  %16 = getelementptr inbounds i8, ptr %_0, i64 8, !dbg !444
  %17 = load i32, ptr %16, align 8, !dbg !444
  %18 = insertvalue { i64, i32 } poison, i64 %15, 0, !dbg !444
  %19 = insertvalue { i64, i32 } %18, i32 %17, 1, !dbg !444
  ret { i64, i32 } %19, !dbg !444

bb5:                                              ; preds = %bb4
; call core::char::convert::from_u32_unchecked::precondition_check
  call void @_ZN4core4char7convert18from_u32_unchecked18precondition_check17h238f453ec1ecfd6cE(i32 %x, ptr align 8 @alloc_2925e2a6c2ac77848dfa2a589f28dc35) #14, !dbg !445
  br label %bb6, !dbg !445

bb6:                                              ; preds = %bb5
  store i32 %x, ptr %self1, align 4, !dbg !446
  %20 = getelementptr inbounds i8, ptr %self, i64 16, !dbg !441
  store ptr %20, ptr %_4, align 8, !dbg !441
  store ptr %self, ptr %_5, align 8, !dbg !441
  %21 = load ptr, ptr %_4, align 8, !dbg !441
  store ptr %21, ptr %f, align 8, !dbg !441
  %22 = load ptr, ptr %_5, align 8, !dbg !441
  store ptr %22, ptr %f3, align 8, !dbg !441
  %x5 = load i32, ptr %self1, align 4, !dbg !447
  store i32 %x5, ptr %x.dbg.spill6, align 4, !dbg !447
    #dbg_declare(ptr %x.dbg.spill6, !341, !DIExpression(), !448)
    #dbg_declare(ptr %x.dbg.spill6, !449, !DIExpression(), !458)
  %_24 = load ptr, ptr %_4, align 8, !dbg !461
  store ptr %_24, ptr %_24.dbg.spill, align 8, !dbg !461
    #dbg_declare(ptr %_24.dbg.spill, !454, !DIExpression(DW_OP_deref), !462)
  %_25 = load ptr, ptr %_5, align 8, !dbg !461
  store ptr %_25, ptr %_25.dbg.spill, align 8, !dbg !461
    #dbg_declare(ptr %_25.dbg.spill, !455, !DIExpression(DW_OP_deref), !462)
  %23 = load ptr, ptr %_4, align 8, !dbg !463
  %_16 = load i64, ptr %23, align 8, !dbg !463
  %self7 = load ptr, ptr %_5, align 8, !dbg !464
  store ptr %self7, ptr %self.dbg.spill8, align 8, !dbg !464
    #dbg_declare(ptr %self.dbg.spill8, !465, !DIExpression(), !476)
  %24 = load ptr, ptr %_5, align 8, !dbg !478
  %25 = getelementptr inbounds i8, ptr %24, i64 8, !dbg !478
  %_22 = load ptr, ptr %25, align 8, !dbg !478
  store ptr %_22, ptr %end.dbg.spill, align 8, !dbg !479
    #dbg_declare(ptr %end.dbg.spill, !474, !DIExpression(), !480)
  %26 = load ptr, ptr %_5, align 8, !dbg !481
  %_23 = load ptr, ptr %26, align 8, !dbg !481
; call core::ptr::non_null::NonNull<T>::offset_from_unsigned
  %_17 = call i64 @"_ZN4core3ptr8non_null16NonNull$LT$T$GT$20offset_from_unsigned17hf98797d33e557606E"(ptr %_22, ptr %_23), !dbg !482
  %index = add i64 %_16, %_17, !dbg !463
  store i64 %index, ptr %index.dbg.spill, align 8, !dbg !463
    #dbg_declare(ptr %index.dbg.spill, !456, !DIExpression(), !483)
  store i64 %index, ptr %_0, align 8, !dbg !484
  %27 = getelementptr inbounds i8, ptr %_0, i64 8, !dbg !484
  store i32 %x5, ptr %27, align 8, !dbg !484
  br label %bb7, !dbg !485

bb2:                                              ; No predecessors!
  unreachable, !dbg !486
}

; <core::str::pattern::MultiCharEqSearcher<C> as core::str::pattern::ReverseSearcher>::next_back
; Function Attrs: inlinehint nonlazybind uwtable
define internal void @"_ZN104_$LT$core..str..pattern..MultiCharEqSearcher$LT$C$GT$$u20$as$u20$core..str..pattern..ReverseSearcher$GT$9next_back17h7927da32cff711b9E"(ptr sret([24 x i8]) align 8 %_0, ptr align 8 %self) unnamed_addr #0 !dbg !489 {
start:
  %char_len.dbg.spill = alloca [8 x i8], align 8
  %len.dbg.spill = alloca [8 x i8], align 8
  %end.dbg.spill3 = alloca [8 x i8], align 8
  %self.dbg.spill2 = alloca [8 x i8], align 8
  %c.dbg.spill = alloca [4 x i8], align 4
  %i.dbg.spill = alloca [8 x i8], align 8
  %pre_len.dbg.spill = alloca [8 x i8], align 8
  %end.dbg.spill = alloca [8 x i8], align 8
  %self.dbg.spill1 = alloca [8 x i8], align 8
  %s.dbg.spill = alloca [8 x i8], align 8
  %self.dbg.spill = alloca [8 x i8], align 8
  %_5 = alloca [16 x i8], align 8
  store ptr %self, ptr %self.dbg.spill, align 8
    #dbg_declare(ptr %self.dbg.spill, !525, !DIExpression(), !537)
  %s = getelementptr inbounds i8, ptr %self, i64 16, !dbg !538
  store ptr %s, ptr %s.dbg.spill, align 8, !dbg !538
    #dbg_declare(ptr %s.dbg.spill, !526, !DIExpression(), !539)
  store ptr %s, ptr %self.dbg.spill1, align 8, !dbg !540
    #dbg_declare(ptr %self.dbg.spill1, !541, !DIExpression(), !552)
  %0 = getelementptr inbounds i8, ptr %s, i64 8, !dbg !554
  %_19 = load ptr, ptr %0, align 8, !dbg !554
  store ptr %_19, ptr %end.dbg.spill, align 8, !dbg !555
    #dbg_declare(ptr %end.dbg.spill, !546, !DIExpression(), !556)
  %_20 = load ptr, ptr %s, align 8, !dbg !557
; call core::ptr::non_null::NonNull<T>::offset_from_unsigned
  %pre_len = call i64 @"_ZN4core3ptr8non_null16NonNull$LT$T$GT$20offset_from_unsigned17hf98797d33e557606E"(ptr %_19, ptr %_20), !dbg !558
  store i64 %pre_len, ptr %pre_len.dbg.spill, align 8, !dbg !558
    #dbg_declare(ptr %pre_len.dbg.spill, !528, !DIExpression(), !559)
; call <core::str::iter::CharIndices as core::iter::traits::double_ended::DoubleEndedIterator>::next_back
  %1 = call { i64, i32 } @"_ZN102_$LT$core..str..iter..CharIndices$u20$as$u20$core..iter..traits..double_ended..DoubleEndedIterator$GT$9next_back17hdf18dbf92d5bb203E"(ptr align 8 %s), !dbg !560
  %2 = extractvalue { i64, i32 } %1, 0, !dbg !560
  %3 = extractvalue { i64, i32 } %1, 1, !dbg !560
  store i64 %2, ptr %_5, align 8, !dbg !560
  %4 = getelementptr inbounds i8, ptr %_5, i64 8, !dbg !560
  store i32 %3, ptr %4, align 8, !dbg !560
  %5 = load i64, ptr %_5, align 8, !dbg !561
  %6 = getelementptr inbounds i8, ptr %_5, i64 8, !dbg !561
  %7 = load i32, ptr %6, align 8, !dbg !561
  %8 = icmp eq i32 %7, 1114112, !dbg !561
  %_6 = select i1 %8, i64 0, i64 1, !dbg !561
  %9 = trunc nuw i64 %_6 to i1, !dbg !562
  br i1 %9, label %bb2, label %bb6, !dbg !562

bb2:                                              ; preds = %start
  %i = load i64, ptr %_5, align 8, !dbg !563
  store i64 %i, ptr %i.dbg.spill, align 8, !dbg !563
    #dbg_declare(ptr %i.dbg.spill, !530, !DIExpression(), !563)
  %10 = getelementptr inbounds i8, ptr %_5, i64 8, !dbg !564
  %c = load i32, ptr %10, align 8, !dbg !564
  store i32 %c, ptr %c.dbg.spill, align 4, !dbg !564
    #dbg_declare(ptr %c.dbg.spill, !532, !DIExpression(), !564)
  store ptr %s, ptr %self.dbg.spill2, align 8, !dbg !565
    #dbg_declare(ptr %self.dbg.spill2, !541, !DIExpression(), !566)
  %11 = getelementptr inbounds i8, ptr %s, i64 8, !dbg !568
  %_24 = load ptr, ptr %11, align 8, !dbg !568
  store ptr %_24, ptr %end.dbg.spill3, align 8, !dbg !569
    #dbg_declare(ptr %end.dbg.spill3, !550, !DIExpression(), !570)
  %_25 = load ptr, ptr %s, align 8, !dbg !571
; call core::ptr::non_null::NonNull<T>::offset_from_unsigned
  %len = call i64 @"_ZN4core3ptr8non_null16NonNull$LT$T$GT$20offset_from_unsigned17hf98797d33e557606E"(ptr %_24, ptr %_25), !dbg !572
  store i64 %len, ptr %len.dbg.spill, align 8, !dbg !572
    #dbg_declare(ptr %len.dbg.spill, !533, !DIExpression(), !573)
  %char_len = sub i64 %pre_len, %len, !dbg !574
  store i64 %char_len, ptr %char_len.dbg.spill, align 8, !dbg !574
    #dbg_declare(ptr %char_len.dbg.spill, !535, !DIExpression(), !575)
  %_13 = getelementptr inbounds i8, ptr %self, i64 40, !dbg !576
; call <F as core::str::pattern::MultiCharEq>::matches
  %_12 = call zeroext i1 @"_ZN53_$LT$F$u20$as$u20$core..str..pattern..MultiCharEq$GT$7matches17h510c9ae1c9dcd321E"(ptr align 1 %_13, i32 %c), !dbg !577
  br i1 %_12, label %bb4, label %bb5, !dbg !576

bb6:                                              ; preds = %start
  store i64 2, ptr %_0, align 8, !dbg !578
  br label %bb8, !dbg !579

bb5:                                              ; preds = %bb2
  %_15 = add i64 %i, %char_len, !dbg !580
  %12 = getelementptr inbounds i8, ptr %_0, i64 8, !dbg !581
  store i64 %i, ptr %12, align 8, !dbg !581
  %13 = getelementptr inbounds i8, ptr %_0, i64 16, !dbg !581
  store i64 %_15, ptr %13, align 8, !dbg !581
  store i64 1, ptr %_0, align 8, !dbg !581
  br label %bb7, !dbg !582

bb4:                                              ; preds = %bb2
  %_14 = add i64 %i, %char_len, !dbg !583
  %14 = getelementptr inbounds i8, ptr %_0, i64 8, !dbg !584
  store i64 %i, ptr %14, align 8, !dbg !584
  %15 = getelementptr inbounds i8, ptr %_0, i64 16, !dbg !584
  store i64 %_14, ptr %15, align 8, !dbg !584
  store i64 0, ptr %_0, align 8, !dbg !584
  br label %bb7, !dbg !585

bb7:                                              ; preds = %bb4, %bb5
  br label %bb8, !dbg !579

bb8:                                              ; preds = %bb6, %bb7
  ret void, !dbg !579

bb11:                                             ; No predecessors!
  unreachable, !dbg !586
}

; <core::slice::iter::Iter<T> as core::iter::traits::double_ended::DoubleEndedIterator>::next_back
; Function Attrs: inlinehint nonlazybind uwtable
define internal align 1 ptr @"_ZN106_$LT$core..slice..iter..Iter$LT$T$GT$$u20$as$u20$core..iter..traits..double_ended..DoubleEndedIterator$GT$9next_back17h1d2e7f84831db424E"(ptr align 8 %self) unnamed_addr #0 !dbg !587 {
start:
  %self.dbg.spill8 = alloca [8 x i8], align 8
  %self.dbg.spill7 = alloca [8 x i8], align 8
  %end.dbg.spill = alloca [8 x i8], align 8
  %self.dbg.spill5 = alloca [8 x i8], align 8
  %other.dbg.spill = alloca [8 x i8], align 8
  %self.dbg.spill3 = alloca [8 x i8], align 8
  %count.dbg.spill2 = alloca [8 x i8], align 8
  %self.dbg.spill1 = alloca [8 x i8], align 8
  %count.dbg.spill = alloca [8 x i8], align 8
  %offset.dbg.spill = alloca [8 x i8], align 8
  %self.dbg.spill = alloca [8 x i8], align 8
  %_21 = alloca [8 x i8], align 8
  %_14 = alloca [8 x i8], align 8
  %end = alloca [8 x i8], align 8
  %_2 = alloca [1 x i8], align 1
  %_0 = alloca [8 x i8], align 8
  store ptr %self, ptr %self.dbg.spill, align 8
    #dbg_declare(ptr %self.dbg.spill, !604, !DIExpression(), !609)
    #dbg_declare(ptr %self.dbg.spill, !610, !DIExpression(), !616)
    #dbg_declare(ptr %self.dbg.spill, !618, !DIExpression(), !631)
    #dbg_declare(ptr %end, !607, !DIExpression(), !633)
  store i64 1, ptr %offset.dbg.spill, align 8, !dbg !634
    #dbg_declare(ptr %offset.dbg.spill, !624, !DIExpression(), !634)
  store i64 1, ptr %count.dbg.spill, align 8, !dbg !635
    #dbg_declare(ptr %count.dbg.spill, !643, !DIExpression(), !635)
  store i64 1, ptr %self.dbg.spill1, align 8, !dbg !645
    #dbg_declare(ptr %self.dbg.spill1, !653, !DIExpression(), !645)
  store i64 -1, ptr %count.dbg.spill2, align 8, !dbg !655
    #dbg_declare(ptr %count.dbg.spill2, !662, !DIExpression(), !655)
  br label %bb2, !dbg !664

bb2:                                              ; preds = %start
  %0 = getelementptr inbounds i8, ptr %self, i64 8, !dbg !665
  %_6 = load ptr, ptr %0, align 8, !dbg !665
  store ptr %_6, ptr %end, align 8, !dbg !666
  store ptr %self, ptr %self.dbg.spill3, align 8, !dbg !667
    #dbg_declare(ptr %self.dbg.spill3, !668, !DIExpression(), !676)
  store ptr %end, ptr %other.dbg.spill, align 8, !dbg !677
    #dbg_declare(ptr %other.dbg.spill, !675, !DIExpression(), !678)
  %_11 = load ptr, ptr %self, align 8, !dbg !679
  %_12 = load ptr, ptr %end, align 8, !dbg !680
  %1 = icmp eq ptr %_11, %_12, !dbg !679
  %2 = zext i1 %1 to i8, !dbg !679
  store i8 %2, ptr %_2, align 1, !dbg !679
  br label %bb3, !dbg !687

bb3:                                              ; preds = %bb2
  %3 = load i8, ptr %_2, align 1, !dbg !688
  %4 = trunc nuw i8 %3 to i1, !dbg !688
  br i1 %4, label %bb4, label %bb5, !dbg !688

bb5:                                              ; preds = %bb3
  br label %bb9, !dbg !689

bb4:                                              ; preds = %bb3
  store ptr null, ptr %_0, align 8, !dbg !690
  br label %bb6, !dbg !691

bb9:                                              ; preds = %bb5
  %self4 = getelementptr inbounds i8, ptr %self, i64 8, !dbg !692
  store ptr %self4, ptr %self.dbg.spill5, align 8, !dbg !692
    #dbg_declare(ptr %self.dbg.spill5, !693, !DIExpression(), !705)
  store ptr %self4, ptr %end.dbg.spill, align 8, !dbg !707
    #dbg_declare(ptr %end.dbg.spill, !628, !DIExpression(), !708)
  %self6 = load ptr, ptr %self4, align 8, !dbg !709
  store ptr %self6, ptr %self.dbg.spill7, align 8, !dbg !709
    #dbg_declare(ptr %self.dbg.spill7, !642, !DIExpression(), !710)
    #dbg_declare(ptr %self.dbg.spill7, !661, !DIExpression(), !711)
  br label %bb12, !dbg !712

bb12:                                             ; preds = %bb9
  br label %bb13, !dbg !713

bb13:                                             ; preds = %bb12
; call core::num::<impl isize>::unchecked_neg::precondition_check
  call void @"_ZN4core3num23_$LT$impl$u20$isize$GT$13unchecked_neg18precondition_check17hfc045fadf4fc3f99E"(i64 1, ptr align 8 @alloc_9c07a1c5fd625bcfd1904a658efdc61b) #14, !dbg !715
  br label %bb14, !dbg !715

bb14:                                             ; preds = %bb13
  %_25 = getelementptr inbounds i8, ptr %self6, i64 -1, !dbg !716
  store ptr %_25, ptr %_21, align 8, !dbg !717
  br label %bb10, !dbg !718

bb10:                                             ; preds = %bb14
  %5 = load ptr, ptr %_21, align 8, !dbg !719
  store ptr %5, ptr %self4, align 8, !dbg !719
  %6 = load ptr, ptr %self4, align 8, !dbg !720
  store ptr %6, ptr %_14, align 8, !dbg !720
  br label %bb7, !dbg !721

bb7:                                              ; preds = %bb10
  store ptr %_14, ptr %self.dbg.spill8, align 8, !dbg !722
    #dbg_declare(ptr %self.dbg.spill8, !723, !DIExpression(), !729)
  %_28 = load ptr, ptr %_14, align 8, !dbg !731
  store ptr %_28, ptr %_0, align 8, !dbg !732
  br label %bb6, !dbg !691

bb6:                                              ; preds = %bb4, %bb7
  %7 = load ptr, ptr %_0, align 8, !dbg !733
  ret ptr %7, !dbg !733

bb1:                                              ; No predecessors!
  unreachable

bb8:                                              ; No predecessors!
  unreachable

bb11:                                             ; No predecessors!
  unreachable
}

; <core::str::pattern::CharPredicateSearcher<F> as core::str::pattern::ReverseSearcher>::next_reject_back
; Function Attrs: inlinehint nonlazybind uwtable
define internal void @"_ZN106_$LT$core..str..pattern..CharPredicateSearcher$LT$F$GT$$u20$as$u20$core..str..pattern..ReverseSearcher$GT$16next_reject_back17h31cf4454c08338e2E"(ptr sret([24 x i8]) align 8 %_0, ptr align 8 %self) unnamed_addr #0 !dbg !734 {
start:
  %self.dbg.spill = alloca [8 x i8], align 8
  store ptr %self, ptr %self.dbg.spill, align 8
    #dbg_declare(ptr %self.dbg.spill, !762, !DIExpression(), !763)
; call core::str::pattern::ReverseSearcher::next_reject_back
  call void @_ZN4core3str7pattern15ReverseSearcher16next_reject_back17h8f97ca7c08bdb7d3E(ptr sret([24 x i8]) align 8 %_0, ptr align 8 %self), !dbg !764
  ret void, !dbg !765
}

; std::io::error::repr_bitpacked::decode_repr
; Function Attrs: inlinehint nonlazybind uwtable
define internal void @_ZN3std2io5error14repr_bitpacked11decode_repr17h5c4f0379819a2dfdE(ptr sret([16 x i8]) align 8 %_0, ptr %ptr) unnamed_addr #0 personality ptr @rust_eh_personality !dbg !766 {
start:
  %custom.dbg.spill = alloca [8 x i8], align 8
  %self.dbg.spill7 = alloca [8 x i8], align 8
  %meta.dbg.spill = alloca [8 x i8], align 8
  %self.dbg.spill6 = alloca [8 x i8], align 8
  %0 = alloca [8 x i8], align 8
  %self.dbg.spill5 = alloca [8 x i8], align 8
  %self.dbg.spill4 = alloca [8 x i8], align 8
  %kind.dbg.spill = alloca [1 x i8], align 1
  %f.dbg.spill = alloca [8 x i8], align 8
  %1 = alloca [16 x i8], align 8
  %kind_bits.dbg.spill = alloca [4 x i8], align 4
  %code.dbg.spill = alloca [4 x i8], align 4
  %self.dbg.spill3 = alloca [8 x i8], align 8
  %count.dbg.spill2 = alloca [8 x i8], align 8
  %self.dbg.spill = alloca [8 x i8], align 8
  %count.dbg.spill1 = alloca [8 x i8], align 8
  %count.dbg.spill = alloca [8 x i8], align 8
  %make_custom.dbg.spill = alloca [0 x i8], align 1
  %ptr.dbg.spill = alloca [8 x i8], align 8
  %_21 = alloca [1 x i8], align 1
  %self = alloca [1 x i8], align 1
  %bits = alloca [8 x i8], align 8
  store ptr %ptr, ptr %ptr.dbg.spill, align 8
    #dbg_declare(ptr %ptr.dbg.spill, !774, !DIExpression(), !789)
    #dbg_declare(ptr %ptr.dbg.spill, !790, !DIExpression(), !797)
    #dbg_declare(ptr %ptr.dbg.spill, !790, !DIExpression(), !799)
    #dbg_declare(ptr %ptr.dbg.spill, !801, !DIExpression(), !815)
    #dbg_declare(ptr %make_custom.dbg.spill, !775, !DIExpression(), !817)
    #dbg_declare(ptr %bits, !776, !DIExpression(), !818)
    #dbg_declare(ptr %self, !819, !DIExpression(), !847)
  store i64 1, ptr %count.dbg.spill, align 8, !dbg !849
    #dbg_declare(ptr %count.dbg.spill, !855, !DIExpression(), !849)
  store i64 1, ptr %count.dbg.spill1, align 8, !dbg !857
    #dbg_declare(ptr %count.dbg.spill1, !863, !DIExpression(), !857)
  store i64 1, ptr %self.dbg.spill, align 8, !dbg !865
    #dbg_declare(ptr %self.dbg.spill, !870, !DIExpression(), !865)
  store i64 -1, ptr %count.dbg.spill2, align 8, !dbg !872
    #dbg_declare(ptr %count.dbg.spill2, !878, !DIExpression(), !872)
  store i8 1, ptr %_21, align 1, !dbg !880
  store ptr %ptr, ptr %self.dbg.spill3, align 8, !dbg !881
    #dbg_declare(ptr %self.dbg.spill3, !882, !DIExpression(), !887)
    #dbg_declare(ptr %self.dbg.spill3, !854, !DIExpression(), !889)
    #dbg_declare(ptr %self.dbg.spill3, !890, !DIExpression(), !897)
  store ptr %ptr, ptr %bits, align 8, !dbg !899
  %2 = load i64, ptr %bits, align 8, !dbg !900
  %_5 = and i64 %2, 3, !dbg !900
  switch i64 %_5, label %bb1 [
    i64 2, label %bb5
    i64 3, label %bb4
    i64 0, label %bb3
    i64 1, label %bb2
  ], !dbg !901

bb1:                                              ; preds = %start
; invoke core::panicking::panic
  invoke void @_ZN4core9panicking5panic17ha264d2bb233f2b69E(ptr align 1 @alloc_a500d906b91607583596fa15e63c2ada, i64 40, ptr align 8 @alloc_df38229897fa3f90ed81b968e38fcae7) #15
          to label %unreachable unwind label %cleanup, !dbg !902

bb5:                                              ; preds = %start
  %_8 = load i64, ptr %bits, align 8, !dbg !903
  %_7 = ashr i64 %_8, 32, !dbg !904
  %code = trunc i64 %_7 to i32, !dbg !904
  store i32 %code, ptr %code.dbg.spill, align 4, !dbg !904
    #dbg_declare(ptr %code.dbg.spill, !778, !DIExpression(), !905)
  %3 = getelementptr inbounds i8, ptr %_0, i64 4, !dbg !906
  store i32 %code, ptr %3, align 4, !dbg !906
  store i8 0, ptr %_0, align 8, !dbg !906
  br label %bb10, !dbg !907

bb4:                                              ; preds = %start
  %4 = load i64, ptr %bits, align 8, !dbg !908
  %_10 = lshr i64 %4, 32, !dbg !908
  %kind_bits = trunc i64 %_10 to i32, !dbg !908
  store i32 %kind_bits, ptr %kind_bits.dbg.spill, align 4, !dbg !908
    #dbg_declare(ptr %kind_bits.dbg.spill, !780, !DIExpression(), !909)
; invoke std::io::error::repr_bitpacked::kind_from_prim
  %5 = invoke i8 @_ZN3std2io5error14repr_bitpacked14kind_from_prim17h5920f1cce05e636bE(i32 %kind_bits)
          to label %bb6 unwind label %cleanup, !dbg !910

bb3:                                              ; preds = %start
  store ptr %ptr, ptr %self.dbg.spill4, align 8, !dbg !911
    #dbg_declare(ptr %self.dbg.spill4, !912, !DIExpression(), !919)
  %6 = getelementptr inbounds i8, ptr %_0, i64 8, !dbg !921
  store ptr %ptr, ptr %6, align 8, !dbg !921
  store i8 2, ptr %_0, align 8, !dbg !921
  br label %bb10, !dbg !907

bb2:                                              ; preds = %start
  store ptr %ptr, ptr %self.dbg.spill5, align 8, !dbg !922
    #dbg_declare(ptr %self.dbg.spill5, !862, !DIExpression(), !923)
    #dbg_declare(ptr %self.dbg.spill5, !877, !DIExpression(), !924)
  %7 = getelementptr i8, ptr %ptr, i64 -1, !dbg !925
  store ptr %7, ptr %0, align 8, !dbg !925
  %_35 = load ptr, ptr %0, align 8, !dbg !925
  store ptr %_35, ptr %self.dbg.spill6, align 8, !dbg !925
    #dbg_declare(ptr %self.dbg.spill6, !926, !DIExpression(), !934)
  store ptr %ptr, ptr %meta.dbg.spill, align 8, !dbg !936
    #dbg_declare(ptr %meta.dbg.spill, !931, !DIExpression(), !937)
    #dbg_declare(ptr %meta.dbg.spill, !938, !DIExpression(), !945)
  store ptr %_35, ptr %self.dbg.spill7, align 8, !dbg !947
    #dbg_declare(ptr %self.dbg.spill7, !948, !DIExpression(), !955)
  store ptr %_35, ptr %custom.dbg.spill, align 8, !dbg !957
    #dbg_declare(ptr %custom.dbg.spill, !784, !DIExpression(), !958)
  store i8 0, ptr %_21, align 1, !dbg !959
; invoke <std::io::error::repr_bitpacked::Repr as core::ops::drop::Drop>::drop::{{closure}}
  %_17 = invoke align 8 ptr @"_ZN78_$LT$std..io..error..repr_bitpacked..Repr$u20$as$u20$core..ops..drop..Drop$GT$4drop28_$u7b$$u7b$closure$u7d$$u7d$17he31fa697a435e9afE"(ptr %_35)
          to label %bb7 unwind label %cleanup, !dbg !959

bb10:                                             ; preds = %bb3, %bb15, %bb5
  br label %bb8, !dbg !907

bb12:                                             ; preds = %cleanup
  %8 = load i8, ptr %_21, align 1, !dbg !907
  %9 = trunc nuw i8 %8 to i1, !dbg !907
  br i1 %9, label %bb11, label %bb9, !dbg !907

cleanup:                                          ; preds = %bb1, %bb2, %bb4
  %10 = landingpad { ptr, i32 }
          cleanup
  %11 = extractvalue { ptr, i32 } %10, 0
  %12 = extractvalue { ptr, i32 } %10, 1
  store ptr %11, ptr %1, align 8
  %13 = getelementptr inbounds i8, ptr %1, i64 8
  store i32 %12, ptr %13, align 8
  br label %bb12

bb6:                                              ; preds = %bb4
  store i8 %5, ptr %self, align 1, !dbg !910
  store ptr %bits, ptr %f.dbg.spill, align 8, !dbg !960
    #dbg_declare(ptr %f.dbg.spill, !844, !DIExpression(), !961)
    #dbg_declare(ptr %f.dbg.spill, !962, !DIExpression(DW_OP_deref), !1039)
  %14 = load i8, ptr %self, align 1, !dbg !1041
  %15 = icmp eq i8 %14, 42, !dbg !1041
  %_23 = select i1 %15, i64 0, i64 1, !dbg !1041
  %16 = trunc nuw i64 %_23 to i1, !dbg !1042
  br i1 %16, label %bb15, label %bb14, !dbg !1042

bb15:                                             ; preds = %bb6
  %kind = load i8, ptr %self, align 1, !dbg !1043
  store i8 %kind, ptr %kind.dbg.spill, align 1, !dbg !1043
    #dbg_declare(ptr %kind.dbg.spill, !782, !DIExpression(), !1044)
    #dbg_declare(ptr %kind.dbg.spill, !845, !DIExpression(), !1045)
  %17 = getelementptr inbounds i8, ptr %_0, i64 1, !dbg !1046
  store i8 %kind, ptr %17, align 1, !dbg !1046
  store i8 1, ptr %_0, align 8, !dbg !1046
  br label %bb10, !dbg !907

bb14:                                             ; preds = %bb6
; call core::hint::unreachable_unchecked::precondition_check
  call void @_ZN4core4hint21unreachable_unchecked18precondition_check17hdb618c50f39e3637E(ptr align 8 @alloc_c46812334728ce009f8cea92fbb7a3bb) #14, !dbg !1047
  br label %bb13, !dbg !1047

bb13:                                             ; preds = %bb14
  unreachable, !dbg !1055

bb8:                                              ; preds = %bb7, %bb10
  ret void, !dbg !1057

bb7:                                              ; preds = %bb2
  %18 = getelementptr inbounds i8, ptr %_0, i64 8, !dbg !1058
  store ptr %_17, ptr %18, align 8, !dbg !1058
  store i8 3, ptr %_0, align 8, !dbg !1058
  br label %bb8, !dbg !907

unreachable:                                      ; preds = %bb1
  unreachable

bb9:                                              ; preds = %bb11, %bb12
  %19 = load ptr, ptr %1, align 8, !dbg !1059
  %20 = getelementptr inbounds i8, ptr %1, i64 8, !dbg !1059
  %21 = load i32, ptr %20, align 8, !dbg !1059
  %22 = insertvalue { ptr, i32 } poison, ptr %19, 0, !dbg !1059
  %23 = insertvalue { ptr, i32 } %22, i32 %21, 1, !dbg !1059
  resume { ptr, i32 } %23, !dbg !1059

bb11:                                             ; preds = %bb12
  br label %bb9, !dbg !907
}

; std::io::error::repr_bitpacked::kind_from_prim
; Function Attrs: inlinehint nonlazybind uwtable
define internal i8 @_ZN3std2io5error14repr_bitpacked14kind_from_prim17h5920f1cce05e636bE(i32 %0) unnamed_addr #0 !dbg !1060 {
start:
  %v.dbg.spill41 = alloca [8 x i8], align 8
  %v.dbg.spill40 = alloca [8 x i8], align 8
  %v.dbg.spill39 = alloca [8 x i8], align 8
  %v.dbg.spill38 = alloca [8 x i8], align 8
  %v.dbg.spill37 = alloca [8 x i8], align 8
  %v.dbg.spill36 = alloca [8 x i8], align 8
  %v.dbg.spill35 = alloca [8 x i8], align 8
  %v.dbg.spill34 = alloca [8 x i8], align 8
  %v.dbg.spill33 = alloca [8 x i8], align 8
  %v.dbg.spill32 = alloca [8 x i8], align 8
  %v.dbg.spill31 = alloca [8 x i8], align 8
  %v.dbg.spill30 = alloca [8 x i8], align 8
  %v.dbg.spill29 = alloca [8 x i8], align 8
  %v.dbg.spill28 = alloca [8 x i8], align 8
  %v.dbg.spill27 = alloca [8 x i8], align 8
  %v.dbg.spill26 = alloca [8 x i8], align 8
  %v.dbg.spill25 = alloca [8 x i8], align 8
  %v.dbg.spill24 = alloca [8 x i8], align 8
  %v.dbg.spill23 = alloca [8 x i8], align 8
  %v.dbg.spill22 = alloca [8 x i8], align 8
  %v.dbg.spill21 = alloca [8 x i8], align 8
  %v.dbg.spill20 = alloca [8 x i8], align 8
  %v.dbg.spill19 = alloca [8 x i8], align 8
  %v.dbg.spill18 = alloca [8 x i8], align 8
  %v.dbg.spill17 = alloca [8 x i8], align 8
  %v.dbg.spill16 = alloca [8 x i8], align 8
  %v.dbg.spill15 = alloca [8 x i8], align 8
  %v.dbg.spill14 = alloca [8 x i8], align 8
  %v.dbg.spill13 = alloca [8 x i8], align 8
  %v.dbg.spill12 = alloca [8 x i8], align 8
  %v.dbg.spill11 = alloca [8 x i8], align 8
  %v.dbg.spill10 = alloca [8 x i8], align 8
  %v.dbg.spill9 = alloca [8 x i8], align 8
  %v.dbg.spill8 = alloca [8 x i8], align 8
  %v.dbg.spill7 = alloca [8 x i8], align 8
  %v.dbg.spill6 = alloca [8 x i8], align 8
  %v.dbg.spill5 = alloca [8 x i8], align 8
  %v.dbg.spill4 = alloca [8 x i8], align 8
  %v.dbg.spill3 = alloca [8 x i8], align 8
  %v.dbg.spill2 = alloca [8 x i8], align 8
  %v.dbg.spill1 = alloca [8 x i8], align 8
  %v.dbg.spill = alloca [8 x i8], align 8
  %_0 = alloca [1 x i8], align 1
  %ek = alloca [4 x i8], align 4
  store i32 %0, ptr %ek, align 4
    #dbg_declare(ptr %ek, !1064, !DIExpression(), !1192)
    #dbg_declare(ptr %ek, !1065, !DIExpression(), !1193)
    #dbg_declare(ptr %ek, !1069, !DIExpression(), !1194)
    #dbg_declare(ptr %ek, !1072, !DIExpression(), !1195)
    #dbg_declare(ptr %ek, !1075, !DIExpression(), !1196)
    #dbg_declare(ptr %ek, !1078, !DIExpression(), !1197)
    #dbg_declare(ptr %ek, !1081, !DIExpression(), !1198)
    #dbg_declare(ptr %ek, !1084, !DIExpression(), !1199)
    #dbg_declare(ptr %ek, !1087, !DIExpression(), !1200)
    #dbg_declare(ptr %ek, !1090, !DIExpression(), !1201)
    #dbg_declare(ptr %ek, !1093, !DIExpression(), !1202)
    #dbg_declare(ptr %ek, !1096, !DIExpression(), !1203)
    #dbg_declare(ptr %ek, !1099, !DIExpression(), !1204)
    #dbg_declare(ptr %ek, !1102, !DIExpression(), !1205)
    #dbg_declare(ptr %ek, !1105, !DIExpression(), !1206)
    #dbg_declare(ptr %ek, !1108, !DIExpression(), !1207)
    #dbg_declare(ptr %ek, !1111, !DIExpression(), !1208)
    #dbg_declare(ptr %ek, !1114, !DIExpression(), !1209)
    #dbg_declare(ptr %ek, !1117, !DIExpression(), !1210)
    #dbg_declare(ptr %ek, !1120, !DIExpression(), !1211)
    #dbg_declare(ptr %ek, !1123, !DIExpression(), !1212)
    #dbg_declare(ptr %ek, !1126, !DIExpression(), !1213)
    #dbg_declare(ptr %ek, !1129, !DIExpression(), !1214)
    #dbg_declare(ptr %ek, !1132, !DIExpression(), !1215)
    #dbg_declare(ptr %ek, !1135, !DIExpression(), !1216)
    #dbg_declare(ptr %ek, !1138, !DIExpression(), !1217)
    #dbg_declare(ptr %ek, !1141, !DIExpression(), !1218)
    #dbg_declare(ptr %ek, !1144, !DIExpression(), !1219)
    #dbg_declare(ptr %ek, !1147, !DIExpression(), !1220)
    #dbg_declare(ptr %ek, !1150, !DIExpression(), !1221)
    #dbg_declare(ptr %ek, !1153, !DIExpression(), !1222)
    #dbg_declare(ptr %ek, !1156, !DIExpression(), !1223)
    #dbg_declare(ptr %ek, !1159, !DIExpression(), !1224)
    #dbg_declare(ptr %ek, !1162, !DIExpression(), !1225)
    #dbg_declare(ptr %ek, !1165, !DIExpression(), !1226)
    #dbg_declare(ptr %ek, !1168, !DIExpression(), !1227)
    #dbg_declare(ptr %ek, !1171, !DIExpression(), !1228)
    #dbg_declare(ptr %ek, !1174, !DIExpression(), !1229)
    #dbg_declare(ptr %ek, !1177, !DIExpression(), !1230)
    #dbg_declare(ptr %ek, !1180, !DIExpression(), !1231)
    #dbg_declare(ptr %ek, !1183, !DIExpression(), !1232)
    #dbg_declare(ptr %ek, !1186, !DIExpression(), !1233)
    #dbg_declare(ptr %ek, !1189, !DIExpression(), !1234)
  store ptr %ek, ptr %v.dbg.spill, align 8, !dbg !1235
    #dbg_declare(ptr %v.dbg.spill, !1067, !DIExpression(), !1193)
  %1 = load i32, ptr %ek, align 4, !dbg !1236
  %2 = icmp eq i32 %1, 0, !dbg !1236
  br i1 %2, label %bb1, label %bb2, !dbg !1236

bb1:                                              ; preds = %start
  store i8 0, ptr %_0, align 1, !dbg !1237
  br label %bb85, !dbg !1238

bb2:                                              ; preds = %start
  store ptr %ek, ptr %v.dbg.spill1, align 8, !dbg !1235
    #dbg_declare(ptr %v.dbg.spill1, !1071, !DIExpression(), !1194)
  %3 = load i32, ptr %ek, align 4, !dbg !1236
  %4 = icmp eq i32 %3, 1, !dbg !1236
  br i1 %4, label %bb3, label %bb4, !dbg !1236

bb85:                                             ; preds = %bb84, %bb83, %bb81, %bb79, %bb77, %bb75, %bb73, %bb71, %bb69, %bb67, %bb65, %bb63, %bb61, %bb59, %bb57, %bb55, %bb53, %bb51, %bb49, %bb47, %bb45, %bb43, %bb41, %bb39, %bb37, %bb35, %bb33, %bb31, %bb29, %bb27, %bb25, %bb23, %bb21, %bb19, %bb17, %bb15, %bb13, %bb11, %bb9, %bb7, %bb5, %bb3, %bb1
  %5 = load i8, ptr %_0, align 1, !dbg !1239
  ret i8 %5, !dbg !1239

bb3:                                              ; preds = %bb2
  store i8 1, ptr %_0, align 1, !dbg !1240
  br label %bb85, !dbg !1238

bb4:                                              ; preds = %bb2
  store ptr %ek, ptr %v.dbg.spill2, align 8, !dbg !1235
    #dbg_declare(ptr %v.dbg.spill2, !1074, !DIExpression(), !1195)
  %6 = load i32, ptr %ek, align 4, !dbg !1236
  %7 = icmp eq i32 %6, 2, !dbg !1236
  br i1 %7, label %bb5, label %bb6, !dbg !1236

bb5:                                              ; preds = %bb4
  store i8 2, ptr %_0, align 1, !dbg !1241
  br label %bb85, !dbg !1238

bb6:                                              ; preds = %bb4
  store ptr %ek, ptr %v.dbg.spill3, align 8, !dbg !1235
    #dbg_declare(ptr %v.dbg.spill3, !1077, !DIExpression(), !1196)
  %8 = load i32, ptr %ek, align 4, !dbg !1236
  %9 = icmp eq i32 %8, 3, !dbg !1236
  br i1 %9, label %bb7, label %bb8, !dbg !1236

bb7:                                              ; preds = %bb6
  store i8 3, ptr %_0, align 1, !dbg !1242
  br label %bb85, !dbg !1238

bb8:                                              ; preds = %bb6
  store ptr %ek, ptr %v.dbg.spill4, align 8, !dbg !1235
    #dbg_declare(ptr %v.dbg.spill4, !1080, !DIExpression(), !1197)
  %10 = load i32, ptr %ek, align 4, !dbg !1236
  %11 = icmp eq i32 %10, 4, !dbg !1236
  br i1 %11, label %bb9, label %bb10, !dbg !1236

bb9:                                              ; preds = %bb8
  store i8 4, ptr %_0, align 1, !dbg !1243
  br label %bb85, !dbg !1238

bb10:                                             ; preds = %bb8
  store ptr %ek, ptr %v.dbg.spill5, align 8, !dbg !1235
    #dbg_declare(ptr %v.dbg.spill5, !1083, !DIExpression(), !1198)
  %12 = load i32, ptr %ek, align 4, !dbg !1236
  %13 = icmp eq i32 %12, 5, !dbg !1236
  br i1 %13, label %bb11, label %bb12, !dbg !1236

bb11:                                             ; preds = %bb10
  store i8 5, ptr %_0, align 1, !dbg !1244
  br label %bb85, !dbg !1238

bb12:                                             ; preds = %bb10
  store ptr %ek, ptr %v.dbg.spill6, align 8, !dbg !1235
    #dbg_declare(ptr %v.dbg.spill6, !1086, !DIExpression(), !1199)
  %14 = load i32, ptr %ek, align 4, !dbg !1236
  %15 = icmp eq i32 %14, 6, !dbg !1236
  br i1 %15, label %bb13, label %bb14, !dbg !1236

bb13:                                             ; preds = %bb12
  store i8 6, ptr %_0, align 1, !dbg !1245
  br label %bb85, !dbg !1238

bb14:                                             ; preds = %bb12
  store ptr %ek, ptr %v.dbg.spill7, align 8, !dbg !1235
    #dbg_declare(ptr %v.dbg.spill7, !1089, !DIExpression(), !1200)
  %16 = load i32, ptr %ek, align 4, !dbg !1236
  %17 = icmp eq i32 %16, 7, !dbg !1236
  br i1 %17, label %bb15, label %bb16, !dbg !1236

bb15:                                             ; preds = %bb14
  store i8 7, ptr %_0, align 1, !dbg !1246
  br label %bb85, !dbg !1238

bb16:                                             ; preds = %bb14
  store ptr %ek, ptr %v.dbg.spill8, align 8, !dbg !1235
    #dbg_declare(ptr %v.dbg.spill8, !1092, !DIExpression(), !1201)
  %18 = load i32, ptr %ek, align 4, !dbg !1236
  %19 = icmp eq i32 %18, 8, !dbg !1236
  br i1 %19, label %bb17, label %bb18, !dbg !1236

bb17:                                             ; preds = %bb16
  store i8 8, ptr %_0, align 1, !dbg !1247
  br label %bb85, !dbg !1238

bb18:                                             ; preds = %bb16
  store ptr %ek, ptr %v.dbg.spill9, align 8, !dbg !1235
    #dbg_declare(ptr %v.dbg.spill9, !1095, !DIExpression(), !1202)
  %20 = load i32, ptr %ek, align 4, !dbg !1236
  %21 = icmp eq i32 %20, 9, !dbg !1236
  br i1 %21, label %bb19, label %bb20, !dbg !1236

bb19:                                             ; preds = %bb18
  store i8 9, ptr %_0, align 1, !dbg !1248
  br label %bb85, !dbg !1238

bb20:                                             ; preds = %bb18
  store ptr %ek, ptr %v.dbg.spill10, align 8, !dbg !1235
    #dbg_declare(ptr %v.dbg.spill10, !1098, !DIExpression(), !1203)
  %22 = load i32, ptr %ek, align 4, !dbg !1236
  %23 = icmp eq i32 %22, 10, !dbg !1236
  br i1 %23, label %bb21, label %bb22, !dbg !1236

bb21:                                             ; preds = %bb20
  store i8 10, ptr %_0, align 1, !dbg !1249
  br label %bb85, !dbg !1238

bb22:                                             ; preds = %bb20
  store ptr %ek, ptr %v.dbg.spill11, align 8, !dbg !1235
    #dbg_declare(ptr %v.dbg.spill11, !1101, !DIExpression(), !1204)
  %24 = load i32, ptr %ek, align 4, !dbg !1236
  %25 = icmp eq i32 %24, 11, !dbg !1236
  br i1 %25, label %bb23, label %bb24, !dbg !1236

bb23:                                             ; preds = %bb22
  store i8 11, ptr %_0, align 1, !dbg !1250
  br label %bb85, !dbg !1238

bb24:                                             ; preds = %bb22
  store ptr %ek, ptr %v.dbg.spill12, align 8, !dbg !1235
    #dbg_declare(ptr %v.dbg.spill12, !1104, !DIExpression(), !1205)
  %26 = load i32, ptr %ek, align 4, !dbg !1236
  %27 = icmp eq i32 %26, 12, !dbg !1236
  br i1 %27, label %bb25, label %bb26, !dbg !1236

bb25:                                             ; preds = %bb24
  store i8 12, ptr %_0, align 1, !dbg !1251
  br label %bb85, !dbg !1238

bb26:                                             ; preds = %bb24
  store ptr %ek, ptr %v.dbg.spill13, align 8, !dbg !1235
    #dbg_declare(ptr %v.dbg.spill13, !1107, !DIExpression(), !1206)
  %28 = load i32, ptr %ek, align 4, !dbg !1236
  %29 = icmp eq i32 %28, 13, !dbg !1236
  br i1 %29, label %bb27, label %bb28, !dbg !1236

bb27:                                             ; preds = %bb26
  store i8 13, ptr %_0, align 1, !dbg !1252
  br label %bb85, !dbg !1238

bb28:                                             ; preds = %bb26
  store ptr %ek, ptr %v.dbg.spill14, align 8, !dbg !1235
    #dbg_declare(ptr %v.dbg.spill14, !1110, !DIExpression(), !1207)
  %30 = load i32, ptr %ek, align 4, !dbg !1236
  %31 = icmp eq i32 %30, 14, !dbg !1236
  br i1 %31, label %bb29, label %bb30, !dbg !1236

bb29:                                             ; preds = %bb28
  store i8 14, ptr %_0, align 1, !dbg !1253
  br label %bb85, !dbg !1238

bb30:                                             ; preds = %bb28
  store ptr %ek, ptr %v.dbg.spill15, align 8, !dbg !1235
    #dbg_declare(ptr %v.dbg.spill15, !1113, !DIExpression(), !1208)
  %32 = load i32, ptr %ek, align 4, !dbg !1236
  %33 = icmp eq i32 %32, 15, !dbg !1236
  br i1 %33, label %bb31, label %bb32, !dbg !1236

bb31:                                             ; preds = %bb30
  store i8 15, ptr %_0, align 1, !dbg !1254
  br label %bb85, !dbg !1238

bb32:                                             ; preds = %bb30
  store ptr %ek, ptr %v.dbg.spill16, align 8, !dbg !1235
    #dbg_declare(ptr %v.dbg.spill16, !1116, !DIExpression(), !1209)
  %34 = load i32, ptr %ek, align 4, !dbg !1236
  %35 = icmp eq i32 %34, 16, !dbg !1236
  br i1 %35, label %bb33, label %bb34, !dbg !1236

bb33:                                             ; preds = %bb32
  store i8 16, ptr %_0, align 1, !dbg !1255
  br label %bb85, !dbg !1238

bb34:                                             ; preds = %bb32
  store ptr %ek, ptr %v.dbg.spill17, align 8, !dbg !1235
    #dbg_declare(ptr %v.dbg.spill17, !1119, !DIExpression(), !1210)
  %36 = load i32, ptr %ek, align 4, !dbg !1236
  %37 = icmp eq i32 %36, 17, !dbg !1236
  br i1 %37, label %bb35, label %bb36, !dbg !1236

bb35:                                             ; preds = %bb34
  store i8 17, ptr %_0, align 1, !dbg !1256
  br label %bb85, !dbg !1238

bb36:                                             ; preds = %bb34
  store ptr %ek, ptr %v.dbg.spill18, align 8, !dbg !1235
    #dbg_declare(ptr %v.dbg.spill18, !1122, !DIExpression(), !1211)
  %38 = load i32, ptr %ek, align 4, !dbg !1236
  %39 = icmp eq i32 %38, 18, !dbg !1236
  br i1 %39, label %bb37, label %bb38, !dbg !1236

bb37:                                             ; preds = %bb36
  store i8 18, ptr %_0, align 1, !dbg !1257
  br label %bb85, !dbg !1238

bb38:                                             ; preds = %bb36
  store ptr %ek, ptr %v.dbg.spill19, align 8, !dbg !1235
    #dbg_declare(ptr %v.dbg.spill19, !1125, !DIExpression(), !1212)
  %40 = load i32, ptr %ek, align 4, !dbg !1236
  %41 = icmp eq i32 %40, 19, !dbg !1236
  br i1 %41, label %bb39, label %bb40, !dbg !1236

bb39:                                             ; preds = %bb38
  store i8 19, ptr %_0, align 1, !dbg !1258
  br label %bb85, !dbg !1238

bb40:                                             ; preds = %bb38
  store ptr %ek, ptr %v.dbg.spill20, align 8, !dbg !1235
    #dbg_declare(ptr %v.dbg.spill20, !1128, !DIExpression(), !1213)
  %42 = load i32, ptr %ek, align 4, !dbg !1236
  %43 = icmp eq i32 %42, 20, !dbg !1236
  br i1 %43, label %bb41, label %bb42, !dbg !1236

bb41:                                             ; preds = %bb40
  store i8 20, ptr %_0, align 1, !dbg !1259
  br label %bb85, !dbg !1238

bb42:                                             ; preds = %bb40
  store ptr %ek, ptr %v.dbg.spill21, align 8, !dbg !1235
    #dbg_declare(ptr %v.dbg.spill21, !1131, !DIExpression(), !1214)
  %44 = load i32, ptr %ek, align 4, !dbg !1236
  %45 = icmp eq i32 %44, 21, !dbg !1236
  br i1 %45, label %bb43, label %bb44, !dbg !1236

bb43:                                             ; preds = %bb42
  store i8 21, ptr %_0, align 1, !dbg !1260
  br label %bb85, !dbg !1238

bb44:                                             ; preds = %bb42
  store ptr %ek, ptr %v.dbg.spill22, align 8, !dbg !1235
    #dbg_declare(ptr %v.dbg.spill22, !1134, !DIExpression(), !1215)
  %46 = load i32, ptr %ek, align 4, !dbg !1236
  %47 = icmp eq i32 %46, 22, !dbg !1236
  br i1 %47, label %bb45, label %bb46, !dbg !1236

bb45:                                             ; preds = %bb44
  store i8 22, ptr %_0, align 1, !dbg !1261
  br label %bb85, !dbg !1238

bb46:                                             ; preds = %bb44
  store ptr %ek, ptr %v.dbg.spill23, align 8, !dbg !1235
    #dbg_declare(ptr %v.dbg.spill23, !1137, !DIExpression(), !1216)
  %48 = load i32, ptr %ek, align 4, !dbg !1236
  %49 = icmp eq i32 %48, 23, !dbg !1236
  br i1 %49, label %bb47, label %bb48, !dbg !1236

bb47:                                             ; preds = %bb46
  store i8 23, ptr %_0, align 1, !dbg !1262
  br label %bb85, !dbg !1238

bb48:                                             ; preds = %bb46
  store ptr %ek, ptr %v.dbg.spill24, align 8, !dbg !1235
    #dbg_declare(ptr %v.dbg.spill24, !1140, !DIExpression(), !1217)
  %50 = load i32, ptr %ek, align 4, !dbg !1236
  %51 = icmp eq i32 %50, 24, !dbg !1236
  br i1 %51, label %bb49, label %bb50, !dbg !1236

bb49:                                             ; preds = %bb48
  store i8 24, ptr %_0, align 1, !dbg !1263
  br label %bb85, !dbg !1238

bb50:                                             ; preds = %bb48
  store ptr %ek, ptr %v.dbg.spill25, align 8, !dbg !1235
    #dbg_declare(ptr %v.dbg.spill25, !1143, !DIExpression(), !1218)
  %52 = load i32, ptr %ek, align 4, !dbg !1236
  %53 = icmp eq i32 %52, 25, !dbg !1236
  br i1 %53, label %bb51, label %bb52, !dbg !1236

bb51:                                             ; preds = %bb50
  store i8 25, ptr %_0, align 1, !dbg !1264
  br label %bb85, !dbg !1238

bb52:                                             ; preds = %bb50
  store ptr %ek, ptr %v.dbg.spill26, align 8, !dbg !1235
    #dbg_declare(ptr %v.dbg.spill26, !1146, !DIExpression(), !1219)
  %54 = load i32, ptr %ek, align 4, !dbg !1236
  %55 = icmp eq i32 %54, 26, !dbg !1236
  br i1 %55, label %bb53, label %bb54, !dbg !1236

bb53:                                             ; preds = %bb52
  store i8 26, ptr %_0, align 1, !dbg !1265
  br label %bb85, !dbg !1238

bb54:                                             ; preds = %bb52
  store ptr %ek, ptr %v.dbg.spill27, align 8, !dbg !1235
    #dbg_declare(ptr %v.dbg.spill27, !1149, !DIExpression(), !1220)
  %56 = load i32, ptr %ek, align 4, !dbg !1236
  %57 = icmp eq i32 %56, 27, !dbg !1236
  br i1 %57, label %bb55, label %bb56, !dbg !1236

bb55:                                             ; preds = %bb54
  store i8 27, ptr %_0, align 1, !dbg !1266
  br label %bb85, !dbg !1238

bb56:                                             ; preds = %bb54
  store ptr %ek, ptr %v.dbg.spill28, align 8, !dbg !1235
    #dbg_declare(ptr %v.dbg.spill28, !1152, !DIExpression(), !1221)
  %58 = load i32, ptr %ek, align 4, !dbg !1236
  %59 = icmp eq i32 %58, 28, !dbg !1236
  br i1 %59, label %bb57, label %bb58, !dbg !1236

bb57:                                             ; preds = %bb56
  store i8 28, ptr %_0, align 1, !dbg !1267
  br label %bb85, !dbg !1238

bb58:                                             ; preds = %bb56
  store ptr %ek, ptr %v.dbg.spill29, align 8, !dbg !1235
    #dbg_declare(ptr %v.dbg.spill29, !1155, !DIExpression(), !1222)
  %60 = load i32, ptr %ek, align 4, !dbg !1236
  %61 = icmp eq i32 %60, 29, !dbg !1236
  br i1 %61, label %bb59, label %bb60, !dbg !1236

bb59:                                             ; preds = %bb58
  store i8 29, ptr %_0, align 1, !dbg !1268
  br label %bb85, !dbg !1238

bb60:                                             ; preds = %bb58
  store ptr %ek, ptr %v.dbg.spill30, align 8, !dbg !1235
    #dbg_declare(ptr %v.dbg.spill30, !1158, !DIExpression(), !1223)
  %62 = load i32, ptr %ek, align 4, !dbg !1236
  %63 = icmp eq i32 %62, 30, !dbg !1236
  br i1 %63, label %bb61, label %bb62, !dbg !1236

bb61:                                             ; preds = %bb60
  store i8 30, ptr %_0, align 1, !dbg !1269
  br label %bb85, !dbg !1238

bb62:                                             ; preds = %bb60
  store ptr %ek, ptr %v.dbg.spill31, align 8, !dbg !1235
    #dbg_declare(ptr %v.dbg.spill31, !1161, !DIExpression(), !1224)
  %64 = load i32, ptr %ek, align 4, !dbg !1236
  %65 = icmp eq i32 %64, 31, !dbg !1236
  br i1 %65, label %bb63, label %bb64, !dbg !1236

bb63:                                             ; preds = %bb62
  store i8 31, ptr %_0, align 1, !dbg !1270
  br label %bb85, !dbg !1238

bb64:                                             ; preds = %bb62
  store ptr %ek, ptr %v.dbg.spill32, align 8, !dbg !1235
    #dbg_declare(ptr %v.dbg.spill32, !1164, !DIExpression(), !1225)
  %66 = load i32, ptr %ek, align 4, !dbg !1236
  %67 = icmp eq i32 %66, 32, !dbg !1236
  br i1 %67, label %bb65, label %bb66, !dbg !1236

bb65:                                             ; preds = %bb64
  store i8 32, ptr %_0, align 1, !dbg !1271
  br label %bb85, !dbg !1238

bb66:                                             ; preds = %bb64
  store ptr %ek, ptr %v.dbg.spill33, align 8, !dbg !1235
    #dbg_declare(ptr %v.dbg.spill33, !1167, !DIExpression(), !1226)
  %68 = load i32, ptr %ek, align 4, !dbg !1236
  %69 = icmp eq i32 %68, 33, !dbg !1236
  br i1 %69, label %bb67, label %bb68, !dbg !1236

bb67:                                             ; preds = %bb66
  store i8 33, ptr %_0, align 1, !dbg !1272
  br label %bb85, !dbg !1238

bb68:                                             ; preds = %bb66
  store ptr %ek, ptr %v.dbg.spill34, align 8, !dbg !1235
    #dbg_declare(ptr %v.dbg.spill34, !1170, !DIExpression(), !1227)
  %70 = load i32, ptr %ek, align 4, !dbg !1236
  %71 = icmp eq i32 %70, 34, !dbg !1236
  br i1 %71, label %bb69, label %bb70, !dbg !1236

bb69:                                             ; preds = %bb68
  store i8 34, ptr %_0, align 1, !dbg !1273
  br label %bb85, !dbg !1238

bb70:                                             ; preds = %bb68
  store ptr %ek, ptr %v.dbg.spill35, align 8, !dbg !1235
    #dbg_declare(ptr %v.dbg.spill35, !1173, !DIExpression(), !1228)
  %72 = load i32, ptr %ek, align 4, !dbg !1236
  %73 = icmp eq i32 %72, 35, !dbg !1236
  br i1 %73, label %bb71, label %bb72, !dbg !1236

bb71:                                             ; preds = %bb70
  store i8 35, ptr %_0, align 1, !dbg !1274
  br label %bb85, !dbg !1238

bb72:                                             ; preds = %bb70
  store ptr %ek, ptr %v.dbg.spill36, align 8, !dbg !1235
    #dbg_declare(ptr %v.dbg.spill36, !1176, !DIExpression(), !1229)
  %74 = load i32, ptr %ek, align 4, !dbg !1236
  %75 = icmp eq i32 %74, 40, !dbg !1236
  br i1 %75, label %bb73, label %bb74, !dbg !1236

bb73:                                             ; preds = %bb72
  store i8 40, ptr %_0, align 1, !dbg !1275
  br label %bb85, !dbg !1238

bb74:                                             ; preds = %bb72
  store ptr %ek, ptr %v.dbg.spill37, align 8, !dbg !1235
    #dbg_declare(ptr %v.dbg.spill37, !1179, !DIExpression(), !1230)
  %76 = load i32, ptr %ek, align 4, !dbg !1236
  %77 = icmp eq i32 %76, 37, !dbg !1236
  br i1 %77, label %bb75, label %bb76, !dbg !1236

bb75:                                             ; preds = %bb74
  store i8 37, ptr %_0, align 1, !dbg !1276
  br label %bb85, !dbg !1238

bb76:                                             ; preds = %bb74
  store ptr %ek, ptr %v.dbg.spill38, align 8, !dbg !1235
    #dbg_declare(ptr %v.dbg.spill38, !1182, !DIExpression(), !1231)
  %78 = load i32, ptr %ek, align 4, !dbg !1236
  %79 = icmp eq i32 %78, 36, !dbg !1236
  br i1 %79, label %bb77, label %bb78, !dbg !1236

bb77:                                             ; preds = %bb76
  store i8 36, ptr %_0, align 1, !dbg !1277
  br label %bb85, !dbg !1238

bb78:                                             ; preds = %bb76
  store ptr %ek, ptr %v.dbg.spill39, align 8, !dbg !1235
    #dbg_declare(ptr %v.dbg.spill39, !1185, !DIExpression(), !1232)
  %80 = load i32, ptr %ek, align 4, !dbg !1236
  %81 = icmp eq i32 %80, 38, !dbg !1236
  br i1 %81, label %bb79, label %bb80, !dbg !1236

bb79:                                             ; preds = %bb78
  store i8 38, ptr %_0, align 1, !dbg !1278
  br label %bb85, !dbg !1238

bb80:                                             ; preds = %bb78
  store ptr %ek, ptr %v.dbg.spill40, align 8, !dbg !1235
    #dbg_declare(ptr %v.dbg.spill40, !1188, !DIExpression(), !1233)
  %82 = load i32, ptr %ek, align 4, !dbg !1236
  %83 = icmp eq i32 %82, 39, !dbg !1236
  br i1 %83, label %bb81, label %bb82, !dbg !1236

bb81:                                             ; preds = %bb80
  store i8 39, ptr %_0, align 1, !dbg !1279
  br label %bb85, !dbg !1238

bb82:                                             ; preds = %bb80
  store ptr %ek, ptr %v.dbg.spill41, align 8, !dbg !1235
    #dbg_declare(ptr %v.dbg.spill41, !1191, !DIExpression(), !1234)
  %84 = load i32, ptr %ek, align 4, !dbg !1236
  %85 = icmp eq i32 %84, 41, !dbg !1236
  br i1 %85, label %bb83, label %bb84, !dbg !1236

bb83:                                             ; preds = %bb82
  store i8 41, ptr %_0, align 1, !dbg !1280
  br label %bb85, !dbg !1238

bb84:                                             ; preds = %bb82
  store i8 42, ptr %_0, align 1, !dbg !1281
  br label %bb85, !dbg !1281
}

; std::rt::lang_start
; Function Attrs: nonlazybind uwtable
define hidden i64 @_ZN3std2rt10lang_start17hcaabff07a890c72cE(ptr %main, i64 %argc, ptr %argv, i8 %sigpipe) unnamed_addr #1 !dbg !1282 {
start:
  %sigpipe.dbg.spill = alloca [1 x i8], align 1
  %argv.dbg.spill = alloca [8 x i8], align 8
  %argc.dbg.spill = alloca [8 x i8], align 8
  %main.dbg.spill = alloca [8 x i8], align 8
  %_7 = alloca [8 x i8], align 8
  store ptr %main, ptr %main.dbg.spill, align 8
    #dbg_declare(ptr %main.dbg.spill, !1288, !DIExpression(), !1292)
  store i64 %argc, ptr %argc.dbg.spill, align 8
    #dbg_declare(ptr %argc.dbg.spill, !1289, !DIExpression(), !1293)
  store ptr %argv, ptr %argv.dbg.spill, align 8
    #dbg_declare(ptr %argv.dbg.spill, !1290, !DIExpression(), !1294)
  store i8 %sigpipe, ptr %sigpipe.dbg.spill, align 1
    #dbg_declare(ptr %sigpipe.dbg.spill, !1291, !DIExpression(), !1295)
  store ptr %main, ptr %_7, align 8, !dbg !1296
; call std::rt::lang_start_internal
  %_0 = call i64 @_ZN3std2rt19lang_start_internal17h6ba36b077a531782E(ptr align 1 %_7, ptr align 8 @vtable.0, i64 %argc, ptr %argv, i8 %sigpipe), !dbg !1297
  ret i64 %_0, !dbg !1298
}

; std::rt::lang_start::{{closure}}
; Function Attrs: inlinehint nonlazybind uwtable
define internal i32 @"_ZN3std2rt10lang_start28_$u7b$$u7b$closure$u7d$$u7d$17h777c3308bd82c159E"(ptr align 8 %_1) unnamed_addr #0 !dbg !1299 {
start:
  %self.dbg.spill = alloca [1 x i8], align 1
  %_1.dbg.spill = alloca [8 x i8], align 8
  store ptr %_1, ptr %_1.dbg.spill, align 8
    #dbg_declare(ptr %_1.dbg.spill, !1304, !DIExpression(DW_OP_deref), !1305)
  %_4 = load ptr, ptr %_1, align 8, !dbg !1306
; call std::sys::backtrace::__rust_begin_short_backtrace
  call void @_ZN3std3sys9backtrace28__rust_begin_short_backtrace17h9571ec065b0a9078E(ptr %_4), !dbg !1307
; call <() as std::process::Termination>::report
  %self = call i8 @"_ZN54_$LT$$LP$$RP$$u20$as$u20$std..process..Termination$GT$6report17ha7f99f9a10d97a01E"(), !dbg !1308
  store i8 %self, ptr %self.dbg.spill, align 1, !dbg !1308
    #dbg_declare(ptr %self.dbg.spill, !1309, !DIExpression(), !1327)
  %_0 = zext i8 %self to i32, !dbg !1329
  ret i32 %_0, !dbg !1337
}

; std::sys::backtrace::__rust_begin_short_backtrace
; Function Attrs: noinline nonlazybind uwtable
define internal void @_ZN3std3sys9backtrace28__rust_begin_short_backtrace17h9571ec065b0a9078E(ptr %f) unnamed_addr #2 !dbg !1338 {
start:
  %dummy.dbg.spill = alloca [0 x i8], align 1
  %f.dbg.spill = alloca [8 x i8], align 8
  %result.dbg.spill = alloca [0 x i8], align 1
    #dbg_declare(ptr %result.dbg.spill, !1345, !DIExpression(), !1349)
  store ptr %f, ptr %f.dbg.spill, align 8
    #dbg_declare(ptr %f.dbg.spill, !1344, !DIExpression(), !1350)
    #dbg_declare(ptr %dummy.dbg.spill, !1351, !DIExpression(), !1356)
; call core::ops::function::FnOnce::call_once
  call void @_ZN4core3ops8function6FnOnce9call_once17h81ce58f01dc0d7a6E(ptr %f), !dbg !1358
  call void asm sideeffect "", "~{memory}"(), !dbg !1359, !srcloc !1360
  ret void, !dbg !1361
}

; <F as core::str::pattern::Pattern>::into_searcher
; Function Attrs: inlinehint nonlazybind uwtable
define internal void @"_ZN49_$LT$F$u20$as$u20$core..str..pattern..Pattern$GT$13into_searcher17haf3a352f2ab71a16E"(ptr sret([40 x i8]) align 8 %_0, ptr align 1 %haystack.0, i64 %haystack.1) unnamed_addr #0 !dbg !1362 {
start:
  %haystack.dbg.spill = alloca [16 x i8], align 8
  %self.dbg.spill = alloca [0 x i8], align 1
  %_3 = alloca [40 x i8], align 8
    #dbg_declare(ptr %self.dbg.spill, !1367, !DIExpression(), !1369)
  store ptr %haystack.0, ptr %haystack.dbg.spill, align 8
  %0 = getelementptr inbounds i8, ptr %haystack.dbg.spill, i64 8
  store i64 %haystack.1, ptr %0, align 8
    #dbg_declare(ptr %haystack.dbg.spill, !1368, !DIExpression(), !1370)
; call <core::str::pattern::MultiCharEqPattern<C> as core::str::pattern::Pattern>::into_searcher
  call void @"_ZN95_$LT$core..str..pattern..MultiCharEqPattern$LT$C$GT$$u20$as$u20$core..str..pattern..Pattern$GT$13into_searcher17h9f721ca6d81a5d24E"(ptr sret([40 x i8]) align 8 %_3, ptr align 1 %haystack.0, i64 %haystack.1), !dbg !1371
  call void @llvm.memcpy.p0.p0.i64(ptr align 8 %_0, ptr align 8 %_3, i64 40, i1 false), !dbg !1372
  ret void, !dbg !1373
}

; <usize as core::iter::range::Step>::forward_unchecked
; Function Attrs: inlinehint nonlazybind uwtable
define internal i64 @"_ZN49_$LT$usize$u20$as$u20$core..iter..range..Step$GT$17forward_unchecked17hcdd770f92366948eE"(i64 %start1, i64 %n) unnamed_addr #0 !dbg !1374 {
start:
  %n.dbg.spill = alloca [8 x i8], align 8
  %start.dbg.spill = alloca [8 x i8], align 8
  store i64 %start1, ptr %start.dbg.spill, align 8
    #dbg_declare(ptr %start.dbg.spill, !1382, !DIExpression(), !1384)
    #dbg_declare(ptr %start.dbg.spill, !1385, !DIExpression(), !1393)
  store i64 %n, ptr %n.dbg.spill, align 8
    #dbg_declare(ptr %n.dbg.spill, !1383, !DIExpression(), !1395)
    #dbg_declare(ptr %n.dbg.spill, !1392, !DIExpression(), !1396)
  br label %bb1, !dbg !1397

bb1:                                              ; preds = %start
; call core::num::<impl usize>::unchecked_add::precondition_check
  call void @"_ZN4core3num23_$LT$impl$u20$usize$GT$13unchecked_add18precondition_check17heb54e280a94a5c48E"(i64 %start1, i64 %n, ptr align 8 @alloc_f6c93850c917906f08a9412dbf717571) #14, !dbg !1399
  br label %bb2, !dbg !1399

bb2:                                              ; preds = %bb1
  %_0 = add nuw i64 %start1, %n, !dbg !1400
  ret i64 %_0, !dbg !1401
}

; core::intrinsics::cold_path
; Function Attrs: cold nounwind nonlazybind uwtable
define internal void @_ZN4core10intrinsics9cold_path17hcc4a9c9f99c011beE() unnamed_addr #3 !dbg !1402 {
start:
  ret void, !dbg !1405
}

; core::fmt::rt::<impl core::fmt::Arguments>::new_v1
; Function Attrs: inlinehint nonlazybind uwtable
define internal void @"_ZN4core3fmt2rt38_$LT$impl$u20$core..fmt..Arguments$GT$6new_v117h5a501eb2b1f176b4E"(ptr sret([48 x i8]) align 8 %_0, ptr align 8 %pieces, ptr align 8 %args) unnamed_addr #0 !dbg !1406 {
start:
  %args.dbg.spill = alloca [8 x i8], align 8
  %pieces.dbg.spill = alloca [8 x i8], align 8
  store ptr %pieces, ptr %pieces.dbg.spill, align 8
    #dbg_declare(ptr %pieces.dbg.spill, !1474, !DIExpression(), !1476)
  store ptr %args, ptr %args.dbg.spill, align 8
    #dbg_declare(ptr %args.dbg.spill, !1475, !DIExpression(), !1477)
  store ptr %pieces, ptr %_0, align 8, !dbg !1478
  %0 = getelementptr inbounds i8, ptr %_0, i64 8, !dbg !1478
  store i64 3, ptr %0, align 8, !dbg !1478
  %1 = load ptr, ptr @anon.12ea5d96d0290b8ba80fa83f0d160b84.1, align 8, !dbg !1478
  %2 = load i64, ptr getelementptr inbounds (i8, ptr @anon.12ea5d96d0290b8ba80fa83f0d160b84.1, i64 8), align 8, !dbg !1478
  %3 = getelementptr inbounds i8, ptr %_0, i64 32, !dbg !1478
  store ptr %1, ptr %3, align 8, !dbg !1478
  %4 = getelementptr inbounds i8, ptr %3, i64 8, !dbg !1478
  store i64 %2, ptr %4, align 8, !dbg !1478
  %5 = getelementptr inbounds i8, ptr %_0, i64 16, !dbg !1478
  store ptr %args, ptr %5, align 8, !dbg !1478
  %6 = getelementptr inbounds i8, ptr %5, i64 8, !dbg !1478
  store i64 2, ptr %6, align 8, !dbg !1478
  ret void, !dbg !1479
}

; core::fmt::rt::<impl core::fmt::Arguments>::new_const
; Function Attrs: inlinehint nonlazybind uwtable
define internal void @"_ZN4core3fmt2rt38_$LT$impl$u20$core..fmt..Arguments$GT$9new_const17h5a067d43394e7f93E"(ptr sret([48 x i8]) align 8 %_0, ptr align 8 %pieces) unnamed_addr #0 !dbg !1480 {
start:
  %pieces.dbg.spill = alloca [8 x i8], align 8
  store ptr %pieces, ptr %pieces.dbg.spill, align 8
    #dbg_declare(ptr %pieces.dbg.spill, !1487, !DIExpression(), !1488)
  store ptr %pieces, ptr %_0, align 8, !dbg !1489
  %0 = getelementptr inbounds i8, ptr %_0, i64 8, !dbg !1489
  store i64 1, ptr %0, align 8, !dbg !1489
  %1 = load ptr, ptr @anon.12ea5d96d0290b8ba80fa83f0d160b84.1, align 8, !dbg !1489
  %2 = load i64, ptr getelementptr inbounds (i8, ptr @anon.12ea5d96d0290b8ba80fa83f0d160b84.1, i64 8), align 8, !dbg !1489
  %3 = getelementptr inbounds i8, ptr %_0, i64 32, !dbg !1489
  store ptr %1, ptr %3, align 8, !dbg !1489
  %4 = getelementptr inbounds i8, ptr %3, i64 8, !dbg !1489
  store i64 %2, ptr %4, align 8, !dbg !1489
  %5 = getelementptr inbounds i8, ptr %_0, i64 16, !dbg !1489
  store ptr inttoptr (i64 8 to ptr), ptr %5, align 8, !dbg !1489
  %6 = getelementptr inbounds i8, ptr %5, i64 8, !dbg !1489
  store i64 0, ptr %6, align 8, !dbg !1489
  ret void, !dbg !1490
}

; core::fmt::rt::Argument::new_display
; Function Attrs: inlinehint nonlazybind uwtable
define internal void @_ZN4core3fmt2rt8Argument11new_display17h9e2c2edd7f0e7b87E(ptr sret([16 x i8]) align 8 %_0, ptr align 4 %x) unnamed_addr #0 !dbg !1491 {
start:
  %x.dbg.spill = alloca [8 x i8], align 8
  %_2 = alloca [16 x i8], align 8
  store ptr %x, ptr %x.dbg.spill, align 8
    #dbg_declare(ptr %x.dbg.spill, !1499, !DIExpression(), !1500)
    #dbg_declare(ptr %x.dbg.spill, !1501, !DIExpression(), !1511)
  store ptr %x, ptr %_2, align 8, !dbg !1513
  %0 = getelementptr inbounds i8, ptr %_2, i64 8, !dbg !1513
  store ptr @"_ZN4core3fmt3num3imp52_$LT$impl$u20$core..fmt..Display$u20$for$u20$i32$GT$3fmt17h1d34aa19ad65fef9E", ptr %0, align 8, !dbg !1513
  call void @llvm.memcpy.p0.p0.i64(ptr align 8 %_0, ptr align 8 %_2, i64 16, i1 false), !dbg !1514
  ret void, !dbg !1515
}

; core::fmt::rt::Argument::new_display
; Function Attrs: inlinehint nonlazybind uwtable
define internal void @_ZN4core3fmt2rt8Argument11new_display17hf3295cb4e5521758E(ptr sret([16 x i8]) align 8 %_0, ptr align 8 %x) unnamed_addr #0 !dbg !1516 {
start:
  %x.dbg.spill = alloca [8 x i8], align 8
  %_2 = alloca [16 x i8], align 8
  store ptr %x, ptr %x.dbg.spill, align 8
    #dbg_declare(ptr %x.dbg.spill, !1523, !DIExpression(), !1524)
    #dbg_declare(ptr %x.dbg.spill, !1525, !DIExpression(), !1535)
  store ptr %x, ptr %_2, align 8, !dbg !1537
  %0 = getelementptr inbounds i8, ptr %_2, i64 8, !dbg !1537
  store ptr @"_ZN4core3fmt3num3imp54_$LT$impl$u20$core..fmt..Display$u20$for$u20$usize$GT$3fmt17h47414302a1568dceE", ptr %0, align 8, !dbg !1537
  call void @llvm.memcpy.p0.p0.i64(ptr align 8 %_0, ptr align 8 %_2, i64 16, i1 false), !dbg !1538
  ret void, !dbg !1539
}

; core::num::<impl i32>::from_ascii_radix
; Function Attrs: inlinehint nonlazybind uwtable
define internal i64 @"_ZN4core3num21_$LT$impl$u20$i32$GT$16from_ascii_radix17h49b5624a535c758dE"(ptr align 1 %src.0, i64 %src.1, i32 %radix) unnamed_addr #0 !dbg !1540 {
start:
  %x.dbg.spill50 = alloca [4 x i8], align 4
  %rest.dbg.spill48 = alloca [16 x i8], align 8
  %c.dbg.spill45 = alloca [8 x i8], align 8
  %value.dbg.spill43 = alloca [4 x i8], align 4
  %b.dbg.spill41 = alloca [1 x i8], align 1
  %a.dbg.spill40 = alloca [4 x i8], align 4
  %self.dbg.spill39 = alloca [4 x i8], align 4
  %value.dbg.spill37 = alloca [4 x i8], align 4
  %x.dbg.spill35 = alloca [4 x i8], align 4
  %value.dbg.spill34 = alloca [4 x i8], align 4
  %b.dbg.spill32 = alloca [1 x i8], align 1
  %a.dbg.spill31 = alloca [4 x i8], align 4
  %rhs.dbg.spill30 = alloca [4 x i8], align 4
  %self.dbg.spill29 = alloca [4 x i8], align 4
  %rest.dbg.spill27 = alloca [16 x i8], align 8
  %c.dbg.spill24 = alloca [8 x i8], align 8
  %x.dbg.spill22 = alloca [4 x i8], align 4
  %rest.dbg.spill21 = alloca [16 x i8], align 8
  %c.dbg.spill18 = alloca [8 x i8], align 8
  %value.dbg.spill16 = alloca [4 x i8], align 4
  %b.dbg.spill14 = alloca [1 x i8], align 1
  %a.dbg.spill13 = alloca [4 x i8], align 4
  %self.dbg.spill12 = alloca [4 x i8], align 4
  %value.dbg.spill10 = alloca [4 x i8], align 4
  %x.dbg.spill = alloca [4 x i8], align 4
  %value.dbg.spill = alloca [4 x i8], align 4
  %b.dbg.spill = alloca [1 x i8], align 1
  %a.dbg.spill = alloca [4 x i8], align 4
  %rhs.dbg.spill = alloca [4 x i8], align 4
  %self.dbg.spill = alloca [4 x i8], align 4
  %rest.dbg.spill8 = alloca [16 x i8], align 8
  %c.dbg.spill = alloca [8 x i8], align 8
  %rest.dbg.spill5 = alloca [8 x i8], align 8
  %rest.dbg.spill = alloca [16 x i8], align 8
  %is_signed_ty.dbg.spill4 = alloca [1 x i8], align 1
  %is_signed_ty.dbg.spill = alloca [1 x i8], align 1
  %radix.dbg.spill = alloca [4 x i8], align 4
  %src.dbg.spill = alloca [16 x i8], align 8
  %_102 = alloca [16 x i8], align 8
  %_101 = alloca [1 x i8], align 1
  %_84 = alloca [8 x i8], align 8
  %_83 = alloca [1 x i8], align 1
  %_77 = alloca [8 x i8], align 4
  %_70 = alloca [8 x i8], align 4
  %mul3 = alloca [8 x i8], align 4
  %_58 = alloca [8 x i8], align 4
  %_51 = alloca [8 x i8], align 4
  %mul = alloca [8 x i8], align 4
  %_36 = alloca [8 x i8], align 4
  %_23 = alloca [8 x i8], align 4
  %digits2 = alloca [16 x i8], align 8
  %radix1 = alloca [4 x i8], align 4
  %_14 = alloca [1 x i8], align 1
  %result = alloca [4 x i8], align 4
  %rest = alloca [16 x i8], align 8
  %digits = alloca [16 x i8], align 8
  %is_positive = alloca [1 x i8], align 1
  %_0 = alloca [8 x i8], align 4
  store ptr %src.0, ptr %src.dbg.spill, align 8
  %0 = getelementptr inbounds i8, ptr %src.dbg.spill, i64 8
  store i64 %src.1, ptr %0, align 8
    #dbg_declare(ptr %src.dbg.spill, !1565, !DIExpression(), !1631)
    #dbg_declare(ptr %src.dbg.spill, !1632, !DIExpression(), !1639)
  store i32 %radix, ptr %radix.dbg.spill, align 4
    #dbg_declare(ptr %radix.dbg.spill, !1566, !DIExpression(), !1641)
    #dbg_declare(ptr %is_positive, !1569, !DIExpression(), !1642)
    #dbg_declare(ptr %digits, !1571, !DIExpression(), !1643)
    #dbg_declare(ptr %rest, !1574, !DIExpression(), !1644)
    #dbg_declare(ptr %result, !1578, !DIExpression(), !1645)
    #dbg_declare(ptr %radix1, !1646, !DIExpression(), !1653)
    #dbg_declare(ptr %digits2, !1652, !DIExpression(), !1655)
    #dbg_declare(ptr %mul, !1597, !DIExpression(), !1656)
    #dbg_declare(ptr %mul3, !1621, !DIExpression(), !1657)
  store i8 1, ptr %is_signed_ty.dbg.spill, align 1, !dbg !1658
    #dbg_declare(ptr %is_signed_ty.dbg.spill, !1567, !DIExpression(), !1658)
  store i8 1, ptr %is_signed_ty.dbg.spill4, align 1, !dbg !1659
    #dbg_declare(ptr %is_signed_ty.dbg.spill4, !1651, !DIExpression(), !1659)
  %_3 = icmp ugt i32 2, %radix, !dbg !1660
  br i1 %_3, label %bb2, label %bb1, !dbg !1660

bb1:                                              ; preds = %start
  %_4 = icmp ugt i32 %radix, 36, !dbg !1661
  br i1 %_4, label %bb2, label %bb3, !dbg !1661

bb2:                                              ; preds = %bb1, %start
; call core::num::from_ascii_radix_panic
  call void @_ZN4core3num22from_ascii_radix_panic17hbd13ec38c0e6ecfbE(i32 %radix, ptr align 8 @alloc_75ed0a1913404846148a1d20155f0342) #15, !dbg !1662
  unreachable, !dbg !1662

bb3:                                              ; preds = %bb1
  %1 = icmp eq i64 %src.1, 0, !dbg !1663
  br i1 %1, label %bb4, label %bb5, !dbg !1663

bb4:                                              ; preds = %bb3
  %2 = getelementptr inbounds i8, ptr %_0, i64 1, !dbg !1664
  store i8 0, ptr %2, align 1, !dbg !1664
  store i8 1, ptr %_0, align 4, !dbg !1664
  br label %bb47, !dbg !1665

bb5:                                              ; preds = %bb3
  %3 = icmp eq i64 %src.1, 1, !dbg !1667
  br i1 %3, label %bb7, label %bb6, !dbg !1667

bb47:                                             ; preds = %bb46, %bb43, %bb12, %bb4
  %4 = load i64, ptr %_0, align 4, !dbg !1668
  ret i64 %4, !dbg !1668

bb7:                                              ; preds = %bb5
  %5 = getelementptr inbounds nuw i8, ptr %src.0, i64 0, !dbg !1669
  %6 = load i8, ptr %5, align 1, !dbg !1669
  switch i8 %6, label %bb6 [
    i8 43, label %bb12
    i8 45, label %bb12
  ], !dbg !1669

bb6:                                              ; preds = %bb7, %bb5
  %_9 = icmp uge i64 %src.1, 1, !dbg !1670
  br i1 %_9, label %bb9, label %bb8, !dbg !1670

bb12:                                             ; preds = %bb7, %bb7
  %7 = getelementptr inbounds i8, ptr %_0, i64 1, !dbg !1671
  store i8 1, ptr %7, align 1, !dbg !1671
  store i8 1, ptr %_0, align 4, !dbg !1671
  br label %bb47, !dbg !1672

bb8:                                              ; preds = %bb9, %bb6
  store i8 1, ptr %_101, align 1, !dbg !1674
  store ptr %src.0, ptr %_102, align 8, !dbg !1674
  %8 = getelementptr inbounds i8, ptr %_102, i64 8, !dbg !1674
  store i64 %src.1, ptr %8, align 8, !dbg !1674
  %9 = load i8, ptr %_101, align 1, !dbg !1675
  %10 = trunc nuw i8 %9 to i1, !dbg !1675
  %11 = zext i1 %10 to i8, !dbg !1675
  store i8 %11, ptr %is_positive, align 1, !dbg !1675
  %12 = load ptr, ptr %_102, align 8, !dbg !1676
  %13 = getelementptr inbounds i8, ptr %_102, i64 8, !dbg !1676
  %14 = load i64, ptr %13, align 8, !dbg !1676
  store ptr %12, ptr %digits, align 8, !dbg !1676
  %15 = getelementptr inbounds i8, ptr %digits, i64 8, !dbg !1676
  store i64 %14, ptr %15, align 8, !dbg !1676
  store i32 0, ptr %result, align 4, !dbg !1677
  store i32 %radix, ptr %radix1, align 4, !dbg !1678
  %16 = load ptr, ptr %digits, align 8, !dbg !1679
  %17 = getelementptr inbounds i8, ptr %digits, i64 8, !dbg !1679
  %18 = load i64, ptr %17, align 8, !dbg !1679
  store ptr %16, ptr %digits2, align 8, !dbg !1679
  %19 = getelementptr inbounds i8, ptr %digits2, i64 8, !dbg !1679
  store i64 %18, ptr %19, align 8, !dbg !1679
  %20 = icmp ule i32 %radix, 16, !dbg !1680
  %21 = zext i1 %20 to i8, !dbg !1680
  store i8 %21, ptr %_83, align 1, !dbg !1680
  %22 = load i8, ptr %_83, align 1, !dbg !1680
  %23 = trunc nuw i8 %22 to i1, !dbg !1680
  br i1 %23, label %bb66, label %bb70, !dbg !1680

bb9:                                              ; preds = %bb6
  %24 = getelementptr inbounds nuw i8, ptr %src.0, i64 0, !dbg !1669
  %25 = load i8, ptr %24, align 1, !dbg !1669
  switch i8 %25, label %bb8 [
    i8 43, label %bb11
    i8 45, label %bb10
  ], !dbg !1669

bb11:                                             ; preds = %bb9
  %rest.0 = getelementptr inbounds nuw i8, ptr %src.0, i64 1, !dbg !1681
  %rest.1 = sub i64 %src.1, 1, !dbg !1681
  store ptr %rest.0, ptr %rest.dbg.spill, align 8, !dbg !1681
  %26 = getelementptr inbounds i8, ptr %rest.dbg.spill, i64 8, !dbg !1681
  store i64 %rest.1, ptr %26, align 8, !dbg !1681
    #dbg_declare(ptr %rest.dbg.spill, !1572, !DIExpression(), !1682)
  store i8 1, ptr %_101, align 1, !dbg !1683
  store ptr %rest.0, ptr %_102, align 8, !dbg !1683
  %27 = getelementptr inbounds i8, ptr %_102, i64 8, !dbg !1683
  store i64 %rest.1, ptr %27, align 8, !dbg !1683
  %28 = load i8, ptr %_101, align 1, !dbg !1675
  %29 = trunc nuw i8 %28 to i1, !dbg !1675
  %30 = zext i1 %29 to i8, !dbg !1675
  store i8 %30, ptr %is_positive, align 1, !dbg !1675
  %31 = load ptr, ptr %_102, align 8, !dbg !1676
  %32 = getelementptr inbounds i8, ptr %_102, i64 8, !dbg !1676
  %33 = load i64, ptr %32, align 8, !dbg !1676
  store ptr %31, ptr %digits, align 8, !dbg !1676
  %34 = getelementptr inbounds i8, ptr %digits, i64 8, !dbg !1676
  store i64 %33, ptr %34, align 8, !dbg !1676
  store i32 0, ptr %result, align 4, !dbg !1677
  store i32 %radix, ptr %radix1, align 4, !dbg !1678
  %35 = load ptr, ptr %digits, align 8, !dbg !1679
  %36 = getelementptr inbounds i8, ptr %digits, i64 8, !dbg !1679
  %37 = load i64, ptr %36, align 8, !dbg !1679
  store ptr %35, ptr %digits2, align 8, !dbg !1679
  %38 = getelementptr inbounds i8, ptr %digits2, i64 8, !dbg !1679
  store i64 %37, ptr %38, align 8, !dbg !1679
  %39 = icmp ule i32 %radix, 16, !dbg !1680
  %40 = zext i1 %39 to i8, !dbg !1680
  store i8 %40, ptr %_83, align 1, !dbg !1680
  %41 = load i8, ptr %_83, align 1, !dbg !1680
  %42 = trunc nuw i8 %41 to i1, !dbg !1680
  br i1 %42, label %bb68, label %bb71, !dbg !1680

bb10:                                             ; preds = %bb9
  %43 = getelementptr inbounds nuw i8, ptr %src.0, i64 1, !dbg !1684
  %44 = sub i64 %src.1, 1, !dbg !1684
  store ptr %43, ptr %rest, align 8, !dbg !1684
  %45 = getelementptr inbounds i8, ptr %rest, i64 8, !dbg !1684
  store i64 %44, ptr %45, align 8, !dbg !1684
  store ptr %rest, ptr %rest.dbg.spill5, align 8, !dbg !1684
    #dbg_declare(ptr %rest.dbg.spill5, !1576, !DIExpression(), !1644)
  store i8 0, ptr %_101, align 1, !dbg !1685
  %46 = load ptr, ptr %rest, align 8, !dbg !1685
  %47 = getelementptr inbounds i8, ptr %rest, i64 8, !dbg !1685
  %48 = load i64, ptr %47, align 8, !dbg !1685
  store ptr %46, ptr %_102, align 8, !dbg !1685
  %49 = getelementptr inbounds i8, ptr %_102, i64 8, !dbg !1685
  store i64 %48, ptr %49, align 8, !dbg !1685
  %50 = load i8, ptr %_101, align 1, !dbg !1675
  %51 = trunc nuw i8 %50 to i1, !dbg !1675
  %52 = zext i1 %51 to i8, !dbg !1675
  store i8 %52, ptr %is_positive, align 1, !dbg !1675
  %53 = load ptr, ptr %_102, align 8, !dbg !1676
  %54 = getelementptr inbounds i8, ptr %_102, i64 8, !dbg !1676
  %55 = load i64, ptr %54, align 8, !dbg !1676
  store ptr %53, ptr %digits, align 8, !dbg !1676
  %56 = getelementptr inbounds i8, ptr %digits, i64 8, !dbg !1676
  store i64 %55, ptr %56, align 8, !dbg !1676
  store i32 0, ptr %result, align 4, !dbg !1677
  store i32 %radix, ptr %radix1, align 4, !dbg !1678
  %57 = load ptr, ptr %digits, align 8, !dbg !1679
  %58 = getelementptr inbounds i8, ptr %digits, i64 8, !dbg !1679
  %59 = load i64, ptr %58, align 8, !dbg !1679
  store ptr %57, ptr %digits2, align 8, !dbg !1679
  %60 = getelementptr inbounds i8, ptr %digits2, i64 8, !dbg !1679
  store i64 %59, ptr %60, align 8, !dbg !1679
  %61 = icmp ule i32 %radix, 16, !dbg !1680
  %62 = zext i1 %61 to i8, !dbg !1680
  store i8 %62, ptr %_83, align 1, !dbg !1680
  %63 = load i8, ptr %_83, align 1, !dbg !1680
  %64 = trunc nuw i8 %63 to i1, !dbg !1680
  br i1 %64, label %bb48, label %bb49, !dbg !1680

bb71:                                             ; preds = %bb11
  br label %bb25, !dbg !1686

bb68:                                             ; preds = %bb11
  %65 = load ptr, ptr %digits2, align 8, !dbg !1687
  %66 = getelementptr inbounds i8, ptr %digits2, i64 8, !dbg !1687
  %67 = load i64, ptr %66, align 8, !dbg !1687
  store i64 %67, ptr %_84, align 8, !dbg !1687
  %68 = load i64, ptr %_84, align 8, !dbg !1687
  %69 = icmp ule i64 %68, 7, !dbg !1687
  %70 = zext i1 %69 to i8, !dbg !1687
  store i8 %70, ptr %_14, align 1, !dbg !1687
  %71 = load i8, ptr %_14, align 1, !dbg !1654
  %72 = trunc nuw i8 %71 to i1, !dbg !1654
  br i1 %72, label %bb69, label %bb73, !dbg !1654

bb25:                                             ; preds = %bb33, %bb72, %bb70, %bb73, %bb71
  %73 = load ptr, ptr %digits, align 8, !dbg !1688
  %74 = getelementptr inbounds i8, ptr %digits, i64 8, !dbg !1688
  %_43 = load i64, ptr %74, align 8, !dbg !1688
  %_44 = icmp uge i64 %_43, 1, !dbg !1688
  br i1 %_44, label %bb26, label %bb43, !dbg !1688

bb73:                                             ; preds = %bb68
  br label %bb25, !dbg !1686

bb69:                                             ; preds = %bb68
  br label %bb14, !dbg !1689

bb14:                                             ; preds = %bb19, %bb67, %bb69
  %75 = load ptr, ptr %digits, align 8, !dbg !1690
  %76 = getelementptr inbounds i8, ptr %digits, i64 8, !dbg !1690
  %_17 = load i64, ptr %76, align 8, !dbg !1690
  %_18 = icmp uge i64 %_17, 1, !dbg !1690
  br i1 %_18, label %bb15, label %bb43, !dbg !1690

bb49:                                             ; preds = %bb10
  br label %bb34, !dbg !1686

bb48:                                             ; preds = %bb10
  %77 = load ptr, ptr %digits2, align 8, !dbg !1687
  %78 = getelementptr inbounds i8, ptr %digits2, i64 8, !dbg !1687
  %79 = load i64, ptr %78, align 8, !dbg !1687
  store i64 %79, ptr %_84, align 8, !dbg !1687
  %80 = load i64, ptr %_84, align 8, !dbg !1687
  %81 = icmp ule i64 %80, 7, !dbg !1687
  %82 = zext i1 %81 to i8, !dbg !1687
  store i8 %82, ptr %_14, align 1, !dbg !1687
  %83 = load i8, ptr %_14, align 1, !dbg !1654
  %84 = trunc nuw i8 %83 to i1, !dbg !1654
  br i1 %84, label %bb13, label %bb74, !dbg !1654

bb34:                                             ; preds = %bb42, %bb74, %bb49
  %85 = load ptr, ptr %digits, align 8, !dbg !1691
  %86 = getelementptr inbounds i8, ptr %digits, i64 8, !dbg !1691
  %_62 = load i64, ptr %86, align 8, !dbg !1691
  %_63 = icmp uge i64 %_62, 1, !dbg !1691
  br i1 %_63, label %bb35, label %bb43, !dbg !1691

bb74:                                             ; preds = %bb48
  br label %bb34, !dbg !1686

bb13:                                             ; preds = %bb48
  br label %bb20, !dbg !1689

bb43:                                             ; preds = %bb14, %bb25, %bb20, %bb34
  %_81 = load i32, ptr %result, align 4, !dbg !1692
  %87 = getelementptr inbounds i8, ptr %_0, i64 4, !dbg !1693
  store i32 %_81, ptr %87, align 4, !dbg !1693
  store i8 0, ptr %_0, align 4, !dbg !1693
  br label %bb47, !dbg !1668

bb35:                                             ; preds = %bb34
  %88 = load ptr, ptr %digits, align 8, !dbg !1694
  %89 = getelementptr inbounds i8, ptr %digits, i64 8, !dbg !1694
  %90 = load i64, ptr %89, align 8, !dbg !1694
  %c = getelementptr inbounds nuw i8, ptr %88, i64 0, !dbg !1694
  store ptr %c, ptr %c.dbg.spill, align 8, !dbg !1694
    #dbg_declare(ptr %c.dbg.spill, !1618, !DIExpression(), !1694)
  %91 = load ptr, ptr %digits, align 8, !dbg !1695
  %92 = getelementptr inbounds i8, ptr %digits, i64 8, !dbg !1695
  %93 = load i64, ptr %92, align 8, !dbg !1695
  %rest.06 = getelementptr inbounds nuw i8, ptr %91, i64 1, !dbg !1695
  %rest.17 = sub i64 %93, 1, !dbg !1695
  store ptr %rest.06, ptr %rest.dbg.spill8, align 8, !dbg !1695
  %94 = getelementptr inbounds i8, ptr %rest.dbg.spill8, i64 8, !dbg !1695
  store i64 %rest.17, ptr %94, align 8, !dbg !1695
    #dbg_declare(ptr %rest.dbg.spill8, !1620, !DIExpression(), !1695)
  %self = load i32, ptr %result, align 4, !dbg !1696
  store i32 %self, ptr %self.dbg.spill, align 4, !dbg !1696
    #dbg_declare(ptr %self.dbg.spill, !1697, !DIExpression(), !1710)
    #dbg_declare(ptr %self.dbg.spill, !1713, !DIExpression(), !1723)
  store i32 %radix, ptr %rhs.dbg.spill, align 4, !dbg !1726
    #dbg_declare(ptr %rhs.dbg.spill, !1703, !DIExpression(), !1727)
    #dbg_declare(ptr %rhs.dbg.spill, !1722, !DIExpression(), !1728)
  %95 = call { i32, i1 } @llvm.smul.with.overflow.i32(i32 %self, i32 %radix), !dbg !1729
  %_95.0 = extractvalue { i32, i1 } %95, 0, !dbg !1729
  %_95.1 = extractvalue { i32, i1 } %95, 1, !dbg !1729
  store i32 %_95.0, ptr %a.dbg.spill, align 4, !dbg !1730
    #dbg_declare(ptr %a.dbg.spill, !1707, !DIExpression(), !1731)
  %96 = zext i1 %_95.1 to i8, !dbg !1732
  store i8 %96, ptr %b.dbg.spill, align 1, !dbg !1732
    #dbg_declare(ptr %b.dbg.spill, !1709, !DIExpression(), !1733)
    #dbg_declare(ptr %b.dbg.spill, !1734, !DIExpression(), !1739)
  br i1 %_95.1, label %bb59, label %bb61, !dbg !1742

bb61:                                             ; preds = %bb35
  %97 = getelementptr inbounds i8, ptr %mul3, i64 4, !dbg !1743
  store i32 %_95.0, ptr %97, align 4, !dbg !1743
  store i32 1, ptr %mul3, align 4, !dbg !1743
  br label %bb58, !dbg !1744

bb59:                                             ; preds = %bb35
  %98 = load i32, ptr @anon.12ea5d96d0290b8ba80fa83f0d160b84.2, align 4, !dbg !1745
  %99 = load i32, ptr getelementptr inbounds (i8, ptr @anon.12ea5d96d0290b8ba80fa83f0d160b84.2, i64 4), align 4, !dbg !1745
  store i32 %98, ptr %mul3, align 4, !dbg !1745
  %100 = getelementptr inbounds i8, ptr %mul3, i64 4, !dbg !1745
  store i32 %99, ptr %100, align 4, !dbg !1745
  br label %bb58, !dbg !1744

bb58:                                             ; preds = %bb59, %bb61
  %_72 = load i8, ptr %c, align 1, !dbg !1746
  %_71 = zext i8 %_72 to i32, !dbg !1747
; call core::char::methods::<impl char>::to_digit
  %101 = call { i32, i32 } @"_ZN4core4char7methods22_$LT$impl$u20$char$GT$8to_digit17h428e16ede6856669E"(i32 %_71, i32 %radix), !dbg !1748
  %102 = extractvalue { i32, i32 } %101, 0, !dbg !1748
  %103 = extractvalue { i32, i32 } %101, 1, !dbg !1748
  store i32 %102, ptr %_70, align 4, !dbg !1748
  %104 = getelementptr inbounds i8, ptr %_70, i64 4, !dbg !1748
  store i32 %103, ptr %104, align 4, !dbg !1748
  %105 = load i32, ptr %_70, align 4, !dbg !1747
  %106 = getelementptr inbounds i8, ptr %_70, i64 4, !dbg !1747
  %107 = load i32, ptr %106, align 4, !dbg !1747
  %_73 = zext i32 %105 to i64, !dbg !1747
  %108 = trunc nuw i64 %_73 to i1, !dbg !1749
  br i1 %108, label %bb38, label %bb37, !dbg !1749

bb38:                                             ; preds = %bb58
  %109 = getelementptr inbounds i8, ptr %_70, i64 4, !dbg !1750
  %value = load i32, ptr %109, align 4, !dbg !1750
  store i32 %value, ptr %value.dbg.spill, align 4, !dbg !1750
    #dbg_declare(ptr %value.dbg.spill, !1625, !DIExpression(), !1751)
  store i32 %value, ptr %x.dbg.spill, align 4, !dbg !1752
    #dbg_declare(ptr %x.dbg.spill, !1623, !DIExpression(), !1753)
    #dbg_declare(ptr %x.dbg.spill, !1754, !DIExpression(), !1761)
    #dbg_declare(ptr %x.dbg.spill, !1764, !DIExpression(), !1768)
  %110 = load i32, ptr %mul3, align 4, !dbg !1770
  %111 = getelementptr inbounds i8, ptr %mul3, i64 4, !dbg !1770
  %112 = load i32, ptr %111, align 4, !dbg !1770
  %_75 = zext i32 %110 to i64, !dbg !1770
  %113 = trunc nuw i64 %_75 to i1, !dbg !1771
  br i1 %113, label %bb40, label %bb39, !dbg !1771

bb37:                                             ; preds = %bb58
  %114 = getelementptr inbounds i8, ptr %_0, i64 1, !dbg !1772
  store i8 1, ptr %114, align 1, !dbg !1772
  store i8 1, ptr %_0, align 4, !dbg !1772
  br label %bb44, !dbg !1773

bb44:                                             ; preds = %bb41, %bb39, %bb37
  br label %bb46, !dbg !1775

bb40:                                             ; preds = %bb38
  %115 = getelementptr inbounds i8, ptr %mul3, i64 4, !dbg !1777
  %value9 = load i32, ptr %115, align 4, !dbg !1777
  store i32 %value9, ptr %value.dbg.spill10, align 4, !dbg !1777
    #dbg_declare(ptr %value.dbg.spill10, !1627, !DIExpression(), !1778)
  store i32 %value9, ptr %result, align 4, !dbg !1779
  %self11 = load i32, ptr %result, align 4, !dbg !1780
  store i32 %self11, ptr %self.dbg.spill12, align 4, !dbg !1780
    #dbg_declare(ptr %self.dbg.spill12, !1757, !DIExpression(), !1781)
    #dbg_declare(ptr %self.dbg.spill12, !1767, !DIExpression(), !1782)
  %116 = call { i32, i1 } @llvm.ssub.with.overflow.i32(i32 %self11, i32 %value), !dbg !1783
  %_99.0 = extractvalue { i32, i1 } %116, 0, !dbg !1783
  %_99.1 = extractvalue { i32, i1 } %116, 1, !dbg !1783
  store i32 %_99.0, ptr %a.dbg.spill13, align 4, !dbg !1784
    #dbg_declare(ptr %a.dbg.spill13, !1758, !DIExpression(), !1785)
  %117 = zext i1 %_99.1 to i8, !dbg !1786
  store i8 %117, ptr %b.dbg.spill14, align 1, !dbg !1786
    #dbg_declare(ptr %b.dbg.spill14, !1760, !DIExpression(), !1787)
    #dbg_declare(ptr %b.dbg.spill14, !1734, !DIExpression(), !1788)
  br i1 %_99.1, label %bb63, label %bb65, !dbg !1790

bb39:                                             ; preds = %bb38
  %118 = getelementptr inbounds i8, ptr %_0, i64 1, !dbg !1791
  store i8 3, ptr %118, align 1, !dbg !1791
  store i8 1, ptr %_0, align 4, !dbg !1791
  br label %bb44, !dbg !1792

bb65:                                             ; preds = %bb40
  %119 = getelementptr inbounds i8, ptr %_77, i64 4, !dbg !1794
  store i32 %_99.0, ptr %119, align 4, !dbg !1794
  store i32 1, ptr %_77, align 4, !dbg !1794
  br label %bb62, !dbg !1795

bb63:                                             ; preds = %bb40
  %120 = load i32, ptr @anon.12ea5d96d0290b8ba80fa83f0d160b84.2, align 4, !dbg !1796
  %121 = load i32, ptr getelementptr inbounds (i8, ptr @anon.12ea5d96d0290b8ba80fa83f0d160b84.2, i64 4), align 4, !dbg !1796
  store i32 %120, ptr %_77, align 4, !dbg !1796
  %122 = getelementptr inbounds i8, ptr %_77, i64 4, !dbg !1796
  store i32 %121, ptr %122, align 4, !dbg !1796
  br label %bb62, !dbg !1795

bb62:                                             ; preds = %bb63, %bb65
  %123 = load i32, ptr %_77, align 4, !dbg !1797
  %124 = getelementptr inbounds i8, ptr %_77, i64 4, !dbg !1797
  %125 = load i32, ptr %124, align 4, !dbg !1797
  %_79 = zext i32 %123 to i64, !dbg !1797
  %126 = trunc nuw i64 %_79 to i1, !dbg !1771
  br i1 %126, label %bb42, label %bb41, !dbg !1771

bb42:                                             ; preds = %bb62
  %127 = getelementptr inbounds i8, ptr %_77, i64 4, !dbg !1777
  %value15 = load i32, ptr %127, align 4, !dbg !1777
  store i32 %value15, ptr %value.dbg.spill16, align 4, !dbg !1777
    #dbg_declare(ptr %value.dbg.spill16, !1629, !DIExpression(), !1798)
  store i32 %value15, ptr %result, align 4, !dbg !1799
  store ptr %rest.06, ptr %digits, align 8, !dbg !1800
  %128 = getelementptr inbounds i8, ptr %digits, i64 8, !dbg !1800
  store i64 %rest.17, ptr %128, align 8, !dbg !1800
  br label %bb34, !dbg !1801

bb41:                                             ; preds = %bb62
  %129 = getelementptr inbounds i8, ptr %_0, i64 1, !dbg !1791
  store i8 3, ptr %129, align 1, !dbg !1791
  store i8 1, ptr %_0, align 4, !dbg !1791
  br label %bb44, !dbg !1792

bb46:                                             ; preds = %bb18, %bb45, %bb23, %bb44
  br label %bb47, !dbg !1672

bb20:                                             ; preds = %bb24, %bb13
  %130 = load ptr, ptr %digits, align 8, !dbg !1802
  %131 = getelementptr inbounds i8, ptr %digits, i64 8, !dbg !1802
  %_30 = load i64, ptr %131, align 8, !dbg !1802
  %_31 = icmp uge i64 %_30, 1, !dbg !1802
  br i1 %_31, label %bb21, label %bb43, !dbg !1802

bb21:                                             ; preds = %bb20
  %132 = load ptr, ptr %digits, align 8, !dbg !1803
  %133 = getelementptr inbounds i8, ptr %digits, i64 8, !dbg !1803
  %134 = load i64, ptr %133, align 8, !dbg !1803
  %c17 = getelementptr inbounds nuw i8, ptr %132, i64 0, !dbg !1803
  store ptr %c17, ptr %c.dbg.spill18, align 8, !dbg !1803
    #dbg_declare(ptr %c.dbg.spill18, !1587, !DIExpression(), !1803)
  %135 = load ptr, ptr %digits, align 8, !dbg !1804
  %136 = getelementptr inbounds i8, ptr %digits, i64 8, !dbg !1804
  %137 = load i64, ptr %136, align 8, !dbg !1804
  %rest.019 = getelementptr inbounds nuw i8, ptr %135, i64 1, !dbg !1804
  %rest.120 = sub i64 %137, 1, !dbg !1804
  store ptr %rest.019, ptr %rest.dbg.spill21, align 8, !dbg !1804
  %138 = getelementptr inbounds i8, ptr %rest.dbg.spill21, i64 8, !dbg !1804
  store i64 %rest.120, ptr %138, align 8, !dbg !1804
    #dbg_declare(ptr %rest.dbg.spill21, !1589, !DIExpression(), !1804)
  %_34 = load i32, ptr %result, align 4, !dbg !1805
  %139 = mul i32 %_34, %radix, !dbg !1806
  store i32 %139, ptr %result, align 4, !dbg !1806
  %_38 = load i8, ptr %c17, align 1, !dbg !1807
  %_37 = zext i8 %_38 to i32, !dbg !1808
; call core::char::methods::<impl char>::to_digit
  %140 = call { i32, i32 } @"_ZN4core4char7methods22_$LT$impl$u20$char$GT$8to_digit17h428e16ede6856669E"(i32 %_37, i32 %radix), !dbg !1809
  %141 = extractvalue { i32, i32 } %140, 0, !dbg !1809
  %142 = extractvalue { i32, i32 } %140, 1, !dbg !1809
  store i32 %141, ptr %_36, align 4, !dbg !1809
  %143 = getelementptr inbounds i8, ptr %_36, i64 4, !dbg !1809
  store i32 %142, ptr %143, align 4, !dbg !1809
  %144 = load i32, ptr %_36, align 4, !dbg !1808
  %145 = getelementptr inbounds i8, ptr %_36, i64 4, !dbg !1808
  %146 = load i32, ptr %145, align 4, !dbg !1808
  %_39 = zext i32 %144 to i64, !dbg !1808
  %147 = trunc nuw i64 %_39 to i1, !dbg !1810
  br i1 %147, label %bb24, label %bb23, !dbg !1810

bb24:                                             ; preds = %bb21
  %148 = getelementptr inbounds i8, ptr %_36, i64 4, !dbg !1811
  %x = load i32, ptr %148, align 4, !dbg !1811
  store i32 %x, ptr %x.dbg.spill22, align 4, !dbg !1811
    #dbg_declare(ptr %x.dbg.spill22, !1590, !DIExpression(), !1812)
    #dbg_declare(ptr %x.dbg.spill22, !1592, !DIExpression(), !1813)
  %_41 = load i32, ptr %result, align 4, !dbg !1814
  %149 = sub i32 %_41, %x, !dbg !1815
  store i32 %149, ptr %result, align 4, !dbg !1815
  store ptr %rest.019, ptr %digits, align 8, !dbg !1816
  %150 = getelementptr inbounds i8, ptr %digits, i64 8, !dbg !1816
  store i64 %rest.120, ptr %150, align 8, !dbg !1816
  br label %bb20, !dbg !1817

bb23:                                             ; preds = %bb21
  %151 = getelementptr inbounds i8, ptr %_0, i64 1, !dbg !1818
  store i8 1, ptr %151, align 1, !dbg !1818
  store i8 1, ptr %_0, align 4, !dbg !1818
  br label %bb46, !dbg !1775

bb70:                                             ; preds = %bb8
  br label %bb25, !dbg !1686

bb66:                                             ; preds = %bb8
  %152 = load ptr, ptr %digits2, align 8, !dbg !1687
  %153 = getelementptr inbounds i8, ptr %digits2, i64 8, !dbg !1687
  %154 = load i64, ptr %153, align 8, !dbg !1687
  store i64 %154, ptr %_84, align 8, !dbg !1687
  %155 = load i64, ptr %_84, align 8, !dbg !1687
  %156 = icmp ule i64 %155, 7, !dbg !1687
  %157 = zext i1 %156 to i8, !dbg !1687
  store i8 %157, ptr %_14, align 1, !dbg !1687
  %158 = load i8, ptr %_14, align 1, !dbg !1654
  %159 = trunc nuw i8 %158 to i1, !dbg !1654
  br i1 %159, label %bb67, label %bb72, !dbg !1654

bb72:                                             ; preds = %bb66
  br label %bb25, !dbg !1686

bb67:                                             ; preds = %bb66
  br label %bb14, !dbg !1689

bb26:                                             ; preds = %bb25
  %160 = load ptr, ptr %digits, align 8, !dbg !1819
  %161 = getelementptr inbounds i8, ptr %digits, i64 8, !dbg !1819
  %162 = load i64, ptr %161, align 8, !dbg !1819
  %c23 = getelementptr inbounds nuw i8, ptr %160, i64 0, !dbg !1819
  store ptr %c23, ptr %c.dbg.spill24, align 8, !dbg !1819
    #dbg_declare(ptr %c.dbg.spill24, !1594, !DIExpression(), !1819)
  %163 = load ptr, ptr %digits, align 8, !dbg !1820
  %164 = getelementptr inbounds i8, ptr %digits, i64 8, !dbg !1820
  %165 = load i64, ptr %164, align 8, !dbg !1820
  %rest.025 = getelementptr inbounds nuw i8, ptr %163, i64 1, !dbg !1820
  %rest.126 = sub i64 %165, 1, !dbg !1820
  store ptr %rest.025, ptr %rest.dbg.spill27, align 8, !dbg !1820
  %166 = getelementptr inbounds i8, ptr %rest.dbg.spill27, i64 8, !dbg !1820
  store i64 %rest.126, ptr %166, align 8, !dbg !1820
    #dbg_declare(ptr %rest.dbg.spill27, !1596, !DIExpression(), !1820)
  %self28 = load i32, ptr %result, align 4, !dbg !1821
  store i32 %self28, ptr %self.dbg.spill29, align 4, !dbg !1821
    #dbg_declare(ptr %self.dbg.spill29, !1697, !DIExpression(), !1822)
    #dbg_declare(ptr %self.dbg.spill29, !1713, !DIExpression(), !1824)
  store i32 %radix, ptr %rhs.dbg.spill30, align 4, !dbg !1826
    #dbg_declare(ptr %rhs.dbg.spill30, !1703, !DIExpression(), !1827)
    #dbg_declare(ptr %rhs.dbg.spill30, !1722, !DIExpression(), !1828)
  %167 = call { i32, i1 } @llvm.smul.with.overflow.i32(i32 %self28, i32 %radix), !dbg !1829
  %_87.0 = extractvalue { i32, i1 } %167, 0, !dbg !1829
  %_87.1 = extractvalue { i32, i1 } %167, 1, !dbg !1829
  store i32 %_87.0, ptr %a.dbg.spill31, align 4, !dbg !1830
    #dbg_declare(ptr %a.dbg.spill31, !1704, !DIExpression(), !1831)
  %168 = zext i1 %_87.1 to i8, !dbg !1832
  store i8 %168, ptr %b.dbg.spill32, align 1, !dbg !1832
    #dbg_declare(ptr %b.dbg.spill32, !1706, !DIExpression(), !1833)
    #dbg_declare(ptr %b.dbg.spill32, !1734, !DIExpression(), !1834)
  br i1 %_87.1, label %bb51, label %bb53, !dbg !1836

bb53:                                             ; preds = %bb26
  %169 = getelementptr inbounds i8, ptr %mul, i64 4, !dbg !1837
  store i32 %_87.0, ptr %169, align 4, !dbg !1837
  store i32 1, ptr %mul, align 4, !dbg !1837
  br label %bb50, !dbg !1838

bb51:                                             ; preds = %bb26
  %170 = load i32, ptr @anon.12ea5d96d0290b8ba80fa83f0d160b84.2, align 4, !dbg !1839
  %171 = load i32, ptr getelementptr inbounds (i8, ptr @anon.12ea5d96d0290b8ba80fa83f0d160b84.2, i64 4), align 4, !dbg !1839
  store i32 %170, ptr %mul, align 4, !dbg !1839
  %172 = getelementptr inbounds i8, ptr %mul, i64 4, !dbg !1839
  store i32 %171, ptr %172, align 4, !dbg !1839
  br label %bb50, !dbg !1838

bb50:                                             ; preds = %bb51, %bb53
  %_53 = load i8, ptr %c23, align 1, !dbg !1840
  %_52 = zext i8 %_53 to i32, !dbg !1841
; call core::char::methods::<impl char>::to_digit
  %173 = call { i32, i32 } @"_ZN4core4char7methods22_$LT$impl$u20$char$GT$8to_digit17h428e16ede6856669E"(i32 %_52, i32 %radix), !dbg !1842
  %174 = extractvalue { i32, i32 } %173, 0, !dbg !1842
  %175 = extractvalue { i32, i32 } %173, 1, !dbg !1842
  store i32 %174, ptr %_51, align 4, !dbg !1842
  %176 = getelementptr inbounds i8, ptr %_51, i64 4, !dbg !1842
  store i32 %175, ptr %176, align 4, !dbg !1842
  %177 = load i32, ptr %_51, align 4, !dbg !1841
  %178 = getelementptr inbounds i8, ptr %_51, i64 4, !dbg !1841
  %179 = load i32, ptr %178, align 4, !dbg !1841
  %_54 = zext i32 %177 to i64, !dbg !1841
  %180 = trunc nuw i64 %_54 to i1, !dbg !1843
  br i1 %180, label %bb29, label %bb28, !dbg !1843

bb29:                                             ; preds = %bb50
  %181 = getelementptr inbounds i8, ptr %_51, i64 4, !dbg !1844
  %value33 = load i32, ptr %181, align 4, !dbg !1844
  store i32 %value33, ptr %value.dbg.spill34, align 4, !dbg !1844
    #dbg_declare(ptr %value.dbg.spill34, !1612, !DIExpression(), !1845)
  store i32 %value33, ptr %x.dbg.spill35, align 4, !dbg !1846
    #dbg_declare(ptr %x.dbg.spill35, !1610, !DIExpression(), !1847)
    #dbg_declare(ptr %x.dbg.spill35, !1848, !DIExpression(), !1855)
    #dbg_declare(ptr %x.dbg.spill35, !1857, !DIExpression(), !1861)
  %182 = load i32, ptr %mul, align 4, !dbg !1863
  %183 = getelementptr inbounds i8, ptr %mul, i64 4, !dbg !1863
  %184 = load i32, ptr %183, align 4, !dbg !1863
  %_56 = zext i32 %182 to i64, !dbg !1863
  %185 = trunc nuw i64 %_56 to i1, !dbg !1864
  br i1 %185, label %bb31, label %bb30, !dbg !1864

bb28:                                             ; preds = %bb50
  %186 = getelementptr inbounds i8, ptr %_0, i64 1, !dbg !1865
  store i8 1, ptr %186, align 1, !dbg !1865
  store i8 1, ptr %_0, align 4, !dbg !1865
  br label %bb45, !dbg !1866

bb45:                                             ; preds = %bb32, %bb30, %bb28
  br label %bb46, !dbg !1775

bb31:                                             ; preds = %bb29
  %187 = getelementptr inbounds i8, ptr %mul, i64 4, !dbg !1868
  %value36 = load i32, ptr %187, align 4, !dbg !1868
  store i32 %value36, ptr %value.dbg.spill37, align 4, !dbg !1868
    #dbg_declare(ptr %value.dbg.spill37, !1614, !DIExpression(), !1869)
  store i32 %value36, ptr %result, align 4, !dbg !1870
  %self38 = load i32, ptr %result, align 4, !dbg !1871
  store i32 %self38, ptr %self.dbg.spill39, align 4, !dbg !1871
    #dbg_declare(ptr %self.dbg.spill39, !1851, !DIExpression(), !1872)
    #dbg_declare(ptr %self.dbg.spill39, !1860, !DIExpression(), !1873)
  %188 = call { i32, i1 } @llvm.sadd.with.overflow.i32(i32 %self38, i32 %value33), !dbg !1874
  %_91.0 = extractvalue { i32, i1 } %188, 0, !dbg !1874
  %_91.1 = extractvalue { i32, i1 } %188, 1, !dbg !1874
  store i32 %_91.0, ptr %a.dbg.spill40, align 4, !dbg !1875
    #dbg_declare(ptr %a.dbg.spill40, !1852, !DIExpression(), !1876)
  %189 = zext i1 %_91.1 to i8, !dbg !1877
  store i8 %189, ptr %b.dbg.spill41, align 1, !dbg !1877
    #dbg_declare(ptr %b.dbg.spill41, !1854, !DIExpression(), !1878)
    #dbg_declare(ptr %b.dbg.spill41, !1734, !DIExpression(), !1879)
  br i1 %_91.1, label %bb55, label %bb57, !dbg !1881

bb30:                                             ; preds = %bb29
  %190 = getelementptr inbounds i8, ptr %_0, i64 1, !dbg !1882
  store i8 2, ptr %190, align 1, !dbg !1882
  store i8 1, ptr %_0, align 4, !dbg !1882
  br label %bb45, !dbg !1883

bb57:                                             ; preds = %bb31
  %191 = getelementptr inbounds i8, ptr %_58, i64 4, !dbg !1885
  store i32 %_91.0, ptr %191, align 4, !dbg !1885
  store i32 1, ptr %_58, align 4, !dbg !1885
  br label %bb54, !dbg !1886

bb55:                                             ; preds = %bb31
  %192 = load i32, ptr @anon.12ea5d96d0290b8ba80fa83f0d160b84.2, align 4, !dbg !1887
  %193 = load i32, ptr getelementptr inbounds (i8, ptr @anon.12ea5d96d0290b8ba80fa83f0d160b84.2, i64 4), align 4, !dbg !1887
  store i32 %192, ptr %_58, align 4, !dbg !1887
  %194 = getelementptr inbounds i8, ptr %_58, i64 4, !dbg !1887
  store i32 %193, ptr %194, align 4, !dbg !1887
  br label %bb54, !dbg !1886

bb54:                                             ; preds = %bb55, %bb57
  %195 = load i32, ptr %_58, align 4, !dbg !1856
  %196 = getelementptr inbounds i8, ptr %_58, i64 4, !dbg !1856
  %197 = load i32, ptr %196, align 4, !dbg !1856
  %_60 = zext i32 %195 to i64, !dbg !1856
  %198 = trunc nuw i64 %_60 to i1, !dbg !1864
  br i1 %198, label %bb33, label %bb32, !dbg !1864

bb33:                                             ; preds = %bb54
  %199 = getelementptr inbounds i8, ptr %_58, i64 4, !dbg !1868
  %value42 = load i32, ptr %199, align 4, !dbg !1868
  store i32 %value42, ptr %value.dbg.spill43, align 4, !dbg !1868
    #dbg_declare(ptr %value.dbg.spill43, !1616, !DIExpression(), !1888)
  store i32 %value42, ptr %result, align 4, !dbg !1889
  store ptr %rest.025, ptr %digits, align 8, !dbg !1890
  %200 = getelementptr inbounds i8, ptr %digits, i64 8, !dbg !1890
  store i64 %rest.126, ptr %200, align 8, !dbg !1890
  br label %bb25, !dbg !1801

bb32:                                             ; preds = %bb54
  %201 = getelementptr inbounds i8, ptr %_0, i64 1, !dbg !1882
  store i8 2, ptr %201, align 1, !dbg !1882
  store i8 1, ptr %_0, align 4, !dbg !1882
  br label %bb45, !dbg !1883

bb15:                                             ; preds = %bb14
  %202 = load ptr, ptr %digits, align 8, !dbg !1891
  %203 = getelementptr inbounds i8, ptr %digits, i64 8, !dbg !1891
  %204 = load i64, ptr %203, align 8, !dbg !1891
  %c44 = getelementptr inbounds nuw i8, ptr %202, i64 0, !dbg !1891
  store ptr %c44, ptr %c.dbg.spill45, align 8, !dbg !1891
    #dbg_declare(ptr %c.dbg.spill45, !1580, !DIExpression(), !1891)
  %205 = load ptr, ptr %digits, align 8, !dbg !1892
  %206 = getelementptr inbounds i8, ptr %digits, i64 8, !dbg !1892
  %207 = load i64, ptr %206, align 8, !dbg !1892
  %rest.046 = getelementptr inbounds nuw i8, ptr %205, i64 1, !dbg !1892
  %rest.147 = sub i64 %207, 1, !dbg !1892
  store ptr %rest.046, ptr %rest.dbg.spill48, align 8, !dbg !1892
  %208 = getelementptr inbounds i8, ptr %rest.dbg.spill48, i64 8, !dbg !1892
  store i64 %rest.147, ptr %208, align 8, !dbg !1892
    #dbg_declare(ptr %rest.dbg.spill48, !1582, !DIExpression(), !1892)
  %_21 = load i32, ptr %result, align 4, !dbg !1893
  %209 = mul i32 %_21, %radix, !dbg !1894
  store i32 %209, ptr %result, align 4, !dbg !1894
  %_25 = load i8, ptr %c44, align 1, !dbg !1895
  %_24 = zext i8 %_25 to i32, !dbg !1896
; call core::char::methods::<impl char>::to_digit
  %210 = call { i32, i32 } @"_ZN4core4char7methods22_$LT$impl$u20$char$GT$8to_digit17h428e16ede6856669E"(i32 %_24, i32 %radix), !dbg !1897
  %211 = extractvalue { i32, i32 } %210, 0, !dbg !1897
  %212 = extractvalue { i32, i32 } %210, 1, !dbg !1897
  store i32 %211, ptr %_23, align 4, !dbg !1897
  %213 = getelementptr inbounds i8, ptr %_23, i64 4, !dbg !1897
  store i32 %212, ptr %213, align 4, !dbg !1897
  %214 = load i32, ptr %_23, align 4, !dbg !1896
  %215 = getelementptr inbounds i8, ptr %_23, i64 4, !dbg !1896
  %216 = load i32, ptr %215, align 4, !dbg !1896
  %_26 = zext i32 %214 to i64, !dbg !1896
  %217 = trunc nuw i64 %_26 to i1, !dbg !1898
  br i1 %217, label %bb19, label %bb18, !dbg !1898

bb19:                                             ; preds = %bb15
  %218 = getelementptr inbounds i8, ptr %_23, i64 4, !dbg !1899
  %x49 = load i32, ptr %218, align 4, !dbg !1899
  store i32 %x49, ptr %x.dbg.spill50, align 4, !dbg !1899
    #dbg_declare(ptr %x.dbg.spill50, !1583, !DIExpression(), !1900)
    #dbg_declare(ptr %x.dbg.spill50, !1585, !DIExpression(), !1901)
  %_28 = load i32, ptr %result, align 4, !dbg !1902
  %219 = add i32 %_28, %x49, !dbg !1903
  store i32 %219, ptr %result, align 4, !dbg !1903
  store ptr %rest.046, ptr %digits, align 8, !dbg !1904
  %220 = getelementptr inbounds i8, ptr %digits, i64 8, !dbg !1904
  store i64 %rest.147, ptr %220, align 8, !dbg !1904
  br label %bb14, !dbg !1817

bb18:                                             ; preds = %bb15
  %221 = getelementptr inbounds i8, ptr %_0, i64 1, !dbg !1905
  store i8 1, ptr %221, align 1, !dbg !1905
  store i8 1, ptr %_0, align 4, !dbg !1905
  br label %bb46, !dbg !1775

bb17:                                             ; No predecessors!
  unreachable, !dbg !1665
}

; core::num::<impl isize>::unchecked_neg::precondition_check
; Function Attrs: inlinehint nounwind nonlazybind uwtable
define internal void @"_ZN4core3num23_$LT$impl$u20$isize$GT$13unchecked_neg18precondition_check17hfc045fadf4fc3f99E"(i64 %lhs, ptr align 8 %0) unnamed_addr #4 !dbg !1906 {
start:
  %pieces.dbg.spill = alloca [8 x i8], align 8
  %b.dbg.spill = alloca [1 x i8], align 1
  %msg.dbg.spill = alloca [16 x i8], align 8
  %lhs.dbg.spill = alloca [8 x i8], align 8
  %_5 = alloca [16 x i8], align 8
  %_3 = alloca [48 x i8], align 8
  store i64 %lhs, ptr %lhs.dbg.spill, align 8
    #dbg_declare(ptr %lhs.dbg.spill, !1911, !DIExpression(), !1914)
    #dbg_declare(ptr %lhs.dbg.spill, !1915, !DIExpression(), !1924)
  store ptr @alloc_dbcce5cb8873847766db4f16f930a00e, ptr %msg.dbg.spill, align 8, !dbg !1927
  %1 = getelementptr inbounds i8, ptr %msg.dbg.spill, i64 8, !dbg !1927
  store i64 186, ptr %1, align 8, !dbg !1927
    #dbg_declare(ptr %msg.dbg.spill, !1912, !DIExpression(), !1927)
  %b = icmp eq i64 %lhs, -9223372036854775808, !dbg !1928
  %2 = zext i1 %b to i8, !dbg !1928
  store i8 %2, ptr %b.dbg.spill, align 1, !dbg !1928
    #dbg_declare(ptr %b.dbg.spill, !1929, !DIExpression(), !1932)
  br i1 %b, label %bb1, label %bb3, !dbg !1934

bb3:                                              ; preds = %start
  ret void, !dbg !1935

bb1:                                              ; preds = %start
  %3 = getelementptr inbounds nuw { ptr, i64 }, ptr %_5, i64 0, !dbg !1936
  store ptr @alloc_dbcce5cb8873847766db4f16f930a00e, ptr %3, align 8, !dbg !1936
  %4 = getelementptr inbounds i8, ptr %3, i64 8, !dbg !1936
  store i64 186, ptr %4, align 8, !dbg !1936
  store ptr %_5, ptr %pieces.dbg.spill, align 8, !dbg !1937
    #dbg_declare(ptr %pieces.dbg.spill, !1938, !DIExpression(), !1941)
  store ptr %_5, ptr %_3, align 8, !dbg !1943
  %5 = getelementptr inbounds i8, ptr %_3, i64 8, !dbg !1943
  store i64 1, ptr %5, align 8, !dbg !1943
  %6 = load ptr, ptr @anon.12ea5d96d0290b8ba80fa83f0d160b84.1, align 8, !dbg !1943
  %7 = load i64, ptr getelementptr inbounds (i8, ptr @anon.12ea5d96d0290b8ba80fa83f0d160b84.1, i64 8), align 8, !dbg !1943
  %8 = getelementptr inbounds i8, ptr %_3, i64 32, !dbg !1943
  store ptr %6, ptr %8, align 8, !dbg !1943
  %9 = getelementptr inbounds i8, ptr %8, i64 8, !dbg !1943
  store i64 %7, ptr %9, align 8, !dbg !1943
  %10 = getelementptr inbounds i8, ptr %_3, i64 16, !dbg !1943
  store ptr inttoptr (i64 8 to ptr), ptr %10, align 8, !dbg !1943
  %11 = getelementptr inbounds i8, ptr %10, i64 8, !dbg !1943
  store i64 0, ptr %11, align 8, !dbg !1943
; call core::panicking::panic_nounwind_fmt
  call void @_ZN4core9panicking18panic_nounwind_fmt17h622822847ebd61beE(ptr align 8 %_3, i1 zeroext false, ptr align 8 %0) #16, !dbg !1944
  unreachable, !dbg !1944
}

; core::num::<impl usize>::unchecked_add::precondition_check
; Function Attrs: inlinehint nounwind nonlazybind uwtable
define internal void @"_ZN4core3num23_$LT$impl$u20$usize$GT$13unchecked_add18precondition_check17heb54e280a94a5c48E"(i64 %lhs, i64 %rhs, ptr align 8 %0) unnamed_addr #4 !dbg !1945 {
start:
  %pieces.dbg.spill = alloca [8 x i8], align 8
  %msg.dbg.spill = alloca [16 x i8], align 8
  %rhs.dbg.spill = alloca [8 x i8], align 8
  %lhs.dbg.spill = alloca [8 x i8], align 8
  %_6 = alloca [16 x i8], align 8
  %_4 = alloca [48 x i8], align 8
  store i64 %lhs, ptr %lhs.dbg.spill, align 8
    #dbg_declare(ptr %lhs.dbg.spill, !1950, !DIExpression(), !1954)
    #dbg_declare(ptr %lhs.dbg.spill, !1955, !DIExpression(), !1965)
  store i64 %rhs, ptr %rhs.dbg.spill, align 8
    #dbg_declare(ptr %rhs.dbg.spill, !1951, !DIExpression(), !1954)
    #dbg_declare(ptr %rhs.dbg.spill, !1964, !DIExpression(), !1968)
  store ptr @alloc_3e1ebac14318b612ab4efabc52799932, ptr %msg.dbg.spill, align 8, !dbg !1969
  %1 = getelementptr inbounds i8, ptr %msg.dbg.spill, i64 8, !dbg !1969
  store i64 186, ptr %1, align 8, !dbg !1969
    #dbg_declare(ptr %msg.dbg.spill, !1952, !DIExpression(), !1969)
  %_8.0 = add i64 %lhs, %rhs, !dbg !1970
  %_8.1 = icmp ult i64 %_8.0, %lhs, !dbg !1970
  br i1 %_8.1, label %bb1, label %bb2, !dbg !1971

bb2:                                              ; preds = %start
  ret void, !dbg !1972

bb1:                                              ; preds = %start
  %2 = getelementptr inbounds nuw { ptr, i64 }, ptr %_6, i64 0, !dbg !1973
  store ptr @alloc_3e1ebac14318b612ab4efabc52799932, ptr %2, align 8, !dbg !1973
  %3 = getelementptr inbounds i8, ptr %2, i64 8, !dbg !1973
  store i64 186, ptr %3, align 8, !dbg !1973
  store ptr %_6, ptr %pieces.dbg.spill, align 8, !dbg !1974
    #dbg_declare(ptr %pieces.dbg.spill, !1975, !DIExpression(), !1978)
  store ptr %_6, ptr %_4, align 8, !dbg !1980
  %4 = getelementptr inbounds i8, ptr %_4, i64 8, !dbg !1980
  store i64 1, ptr %4, align 8, !dbg !1980
  %5 = load ptr, ptr @anon.12ea5d96d0290b8ba80fa83f0d160b84.1, align 8, !dbg !1980
  %6 = load i64, ptr getelementptr inbounds (i8, ptr @anon.12ea5d96d0290b8ba80fa83f0d160b84.1, i64 8), align 8, !dbg !1980
  %7 = getelementptr inbounds i8, ptr %_4, i64 32, !dbg !1980
  store ptr %5, ptr %7, align 8, !dbg !1980
  %8 = getelementptr inbounds i8, ptr %7, i64 8, !dbg !1980
  store i64 %6, ptr %8, align 8, !dbg !1980
  %9 = getelementptr inbounds i8, ptr %_4, i64 16, !dbg !1980
  store ptr inttoptr (i64 8 to ptr), ptr %9, align 8, !dbg !1980
  %10 = getelementptr inbounds i8, ptr %9, i64 8, !dbg !1980
  store i64 0, ptr %10, align 8, !dbg !1980
; call core::panicking::panic_nounwind_fmt
  call void @_ZN4core9panicking18panic_nounwind_fmt17h622822847ebd61beE(ptr align 8 %_4, i1 zeroext false, ptr align 8 %0) #16, !dbg !1981
  unreachable, !dbg !1981
}

; core::num::<impl usize>::from_ascii_radix
; Function Attrs: inlinehint nonlazybind uwtable
define internal void @"_ZN4core3num23_$LT$impl$u20$usize$GT$16from_ascii_radix17ha17b6855397a60cfE"(ptr sret([16 x i8]) align 8 %_0, ptr align 1 %src.0, i64 %src.1, i32 %radix) unnamed_addr #0 !dbg !1982 {
start:
  %x.dbg.spill21 = alloca [4 x i8], align 4
  %rest.dbg.spill19 = alloca [16 x i8], align 8
  %c.dbg.spill16 = alloca [8 x i8], align 8
  %value.dbg.spill14 = alloca [8 x i8], align 8
  %b.dbg.spill12 = alloca [1 x i8], align 1
  %self.dbg.spill11 = alloca [8 x i8], align 8
  %value.dbg.spill9 = alloca [8 x i8], align 8
  %x.dbg.spill = alloca [8 x i8], align 8
  %value.dbg.spill = alloca [4 x i8], align 4
  %a.dbg.spill = alloca [8 x i8], align 8
  %b.dbg.spill = alloca [1 x i8], align 1
  %rhs.dbg.spill = alloca [8 x i8], align 8
  %self.dbg.spill = alloca [8 x i8], align 8
  %rest.dbg.spill7 = alloca [16 x i8], align 8
  %c.dbg.spill = alloca [8 x i8], align 8
  %rest.dbg.spill4 = alloca [8 x i8], align 8
  %rest.dbg.spill = alloca [16 x i8], align 8
  %is_signed_ty.dbg.spill3 = alloca [1 x i8], align 1
  %is_signed_ty.dbg.spill = alloca [1 x i8], align 1
  %radix.dbg.spill = alloca [4 x i8], align 4
  %src.dbg.spill = alloca [16 x i8], align 8
  %_82 = alloca [16 x i8], align 8
  %_81 = alloca [1 x i8], align 1
  %_67 = alloca [8 x i8], align 8
  %_66 = alloca [1 x i8], align 1
  %_49 = alloca [16 x i8], align 8
  %_42 = alloca [8 x i8], align 4
  %mul = alloca [16 x i8], align 8
  %_23 = alloca [8 x i8], align 4
  %digits2 = alloca [16 x i8], align 8
  %radix1 = alloca [4 x i8], align 4
  %_14 = alloca [1 x i8], align 1
  %result = alloca [8 x i8], align 8
  %rest = alloca [16 x i8], align 8
  %digits = alloca [16 x i8], align 8
  %is_positive = alloca [1 x i8], align 1
  store ptr %src.0, ptr %src.dbg.spill, align 8
  %0 = getelementptr inbounds i8, ptr %src.dbg.spill, i64 8
  store i64 %src.1, ptr %0, align 8
    #dbg_declare(ptr %src.dbg.spill, !2001, !DIExpression(), !2066)
    #dbg_declare(ptr %src.dbg.spill, !2067, !DIExpression(), !2070)
  store i32 %radix, ptr %radix.dbg.spill, align 4
    #dbg_declare(ptr %radix.dbg.spill, !2002, !DIExpression(), !2072)
    #dbg_declare(ptr %is_positive, !2005, !DIExpression(), !2073)
    #dbg_declare(ptr %digits, !2007, !DIExpression(), !2074)
    #dbg_declare(ptr %rest, !2010, !DIExpression(), !2075)
    #dbg_declare(ptr %result, !2013, !DIExpression(), !2076)
    #dbg_declare(ptr %radix1, !2077, !DIExpression(), !2082)
    #dbg_declare(ptr %digits2, !2081, !DIExpression(), !2084)
    #dbg_declare(ptr %mul, !2032, !DIExpression(), !2085)
  store i8 0, ptr %is_signed_ty.dbg.spill, align 1, !dbg !2086
    #dbg_declare(ptr %is_signed_ty.dbg.spill, !2003, !DIExpression(), !2086)
  store i8 0, ptr %is_signed_ty.dbg.spill3, align 1, !dbg !2087
    #dbg_declare(ptr %is_signed_ty.dbg.spill3, !2080, !DIExpression(), !2087)
  %_3 = icmp ugt i32 2, %radix, !dbg !2088
  br i1 %_3, label %bb2, label %bb1, !dbg !2088

bb1:                                              ; preds = %start
  %_4 = icmp ugt i32 %radix, 36, !dbg !2089
  br i1 %_4, label %bb2, label %bb3, !dbg !2089

bb2:                                              ; preds = %bb1, %start
; call core::num::from_ascii_radix_panic
  call void @_ZN4core3num22from_ascii_radix_panic17hbd13ec38c0e6ecfbE(i32 %radix, ptr align 8 @alloc_ce0610c284ab9716c052bc29463b18fc) #15, !dbg !2090
  unreachable, !dbg !2090

bb3:                                              ; preds = %bb1
  %1 = icmp eq i64 %src.1, 0, !dbg !2091
  br i1 %1, label %bb4, label %bb5, !dbg !2091

bb4:                                              ; preds = %bb3
  %2 = getelementptr inbounds i8, ptr %_0, i64 1, !dbg !2092
  store i8 0, ptr %2, align 1, !dbg !2092
  store i8 1, ptr %_0, align 8, !dbg !2092
  br label %bb31, !dbg !2093

bb5:                                              ; preds = %bb3
  %3 = icmp eq i64 %src.1, 1, !dbg !2095
  br i1 %3, label %bb7, label %bb6, !dbg !2095

bb31:                                             ; preds = %bb30, %bb28, %bb12, %bb4
  ret void, !dbg !2096

bb7:                                              ; preds = %bb5
  %4 = getelementptr inbounds nuw i8, ptr %src.0, i64 0, !dbg !2097
  %5 = load i8, ptr %4, align 1, !dbg !2097
  switch i8 %5, label %bb6 [
    i8 43, label %bb12
    i8 45, label %bb12
  ], !dbg !2097

bb6:                                              ; preds = %bb7, %bb5
  %_9 = icmp uge i64 %src.1, 1, !dbg !2098
  br i1 %_9, label %bb9, label %bb8, !dbg !2098

bb12:                                             ; preds = %bb7, %bb7
  %6 = getelementptr inbounds i8, ptr %_0, i64 1, !dbg !2099
  store i8 1, ptr %6, align 1, !dbg !2099
  store i8 1, ptr %_0, align 8, !dbg !2099
  br label %bb31, !dbg !2100

bb8:                                              ; preds = %bb10, %bb9, %bb6
  store i8 1, ptr %_81, align 1, !dbg !2102
  store ptr %src.0, ptr %_82, align 8, !dbg !2102
  %7 = getelementptr inbounds i8, ptr %_82, i64 8, !dbg !2102
  store i64 %src.1, ptr %7, align 8, !dbg !2102
  %8 = load i8, ptr %_81, align 1, !dbg !2103
  %9 = trunc nuw i8 %8 to i1, !dbg !2103
  %10 = zext i1 %9 to i8, !dbg !2103
  store i8 %10, ptr %is_positive, align 1, !dbg !2103
  %11 = load ptr, ptr %_82, align 8, !dbg !2104
  %12 = getelementptr inbounds i8, ptr %_82, i64 8, !dbg !2104
  %13 = load i64, ptr %12, align 8, !dbg !2104
  store ptr %11, ptr %digits, align 8, !dbg !2104
  %14 = getelementptr inbounds i8, ptr %digits, i64 8, !dbg !2104
  store i64 %13, ptr %14, align 8, !dbg !2104
  store i64 0, ptr %result, align 8, !dbg !2105
  store i32 %radix, ptr %radix1, align 4, !dbg !2106
  %15 = load ptr, ptr %digits, align 8, !dbg !2107
  %16 = getelementptr inbounds i8, ptr %digits, i64 8, !dbg !2107
  %17 = load i64, ptr %16, align 8, !dbg !2107
  store ptr %15, ptr %digits2, align 8, !dbg !2107
  %18 = getelementptr inbounds i8, ptr %digits2, i64 8, !dbg !2107
  store i64 %17, ptr %18, align 8, !dbg !2107
  %19 = icmp ule i32 %radix, 16, !dbg !2108
  %20 = zext i1 %19 to i8, !dbg !2108
  store i8 %20, ptr %_66, align 1, !dbg !2108
  %21 = load i8, ptr %_66, align 1, !dbg !2108
  %22 = trunc nuw i8 %21 to i1, !dbg !2108
  br i1 %22, label %bb40, label %bb44, !dbg !2108

bb9:                                              ; preds = %bb6
  %23 = getelementptr inbounds nuw i8, ptr %src.0, i64 0, !dbg !2097
  %24 = load i8, ptr %23, align 1, !dbg !2097
  switch i8 %24, label %bb8 [
    i8 43, label %bb11
    i8 45, label %bb10
  ], !dbg !2097

bb11:                                             ; preds = %bb9
  %rest.0 = getelementptr inbounds nuw i8, ptr %src.0, i64 1, !dbg !2109
  %rest.1 = sub i64 %src.1, 1, !dbg !2109
  store ptr %rest.0, ptr %rest.dbg.spill, align 8, !dbg !2109
  %25 = getelementptr inbounds i8, ptr %rest.dbg.spill, i64 8, !dbg !2109
  store i64 %rest.1, ptr %25, align 8, !dbg !2109
    #dbg_declare(ptr %rest.dbg.spill, !2008, !DIExpression(), !2110)
  store i8 1, ptr %_81, align 1, !dbg !2111
  store ptr %rest.0, ptr %_82, align 8, !dbg !2111
  %26 = getelementptr inbounds i8, ptr %_82, i64 8, !dbg !2111
  store i64 %rest.1, ptr %26, align 8, !dbg !2111
  %27 = load i8, ptr %_81, align 1, !dbg !2103
  %28 = trunc nuw i8 %27 to i1, !dbg !2103
  %29 = zext i1 %28 to i8, !dbg !2103
  store i8 %29, ptr %is_positive, align 1, !dbg !2103
  %30 = load ptr, ptr %_82, align 8, !dbg !2104
  %31 = getelementptr inbounds i8, ptr %_82, i64 8, !dbg !2104
  %32 = load i64, ptr %31, align 8, !dbg !2104
  store ptr %30, ptr %digits, align 8, !dbg !2104
  %33 = getelementptr inbounds i8, ptr %digits, i64 8, !dbg !2104
  store i64 %32, ptr %33, align 8, !dbg !2104
  store i64 0, ptr %result, align 8, !dbg !2105
  store i32 %radix, ptr %radix1, align 4, !dbg !2106
  %34 = load ptr, ptr %digits, align 8, !dbg !2107
  %35 = getelementptr inbounds i8, ptr %digits, i64 8, !dbg !2107
  %36 = load i64, ptr %35, align 8, !dbg !2107
  store ptr %34, ptr %digits2, align 8, !dbg !2107
  %37 = getelementptr inbounds i8, ptr %digits2, i64 8, !dbg !2107
  store i64 %36, ptr %37, align 8, !dbg !2107
  %38 = icmp ule i32 %radix, 16, !dbg !2108
  %39 = zext i1 %38 to i8, !dbg !2108
  store i8 %39, ptr %_66, align 1, !dbg !2108
  %40 = load i8, ptr %_66, align 1, !dbg !2108
  %41 = trunc nuw i8 %40 to i1, !dbg !2108
  br i1 %41, label %bb42, label %bb45, !dbg !2108

bb10:                                             ; preds = %bb9
  %42 = getelementptr inbounds nuw i8, ptr %src.0, i64 1, !dbg !2112
  %43 = sub i64 %src.1, 1, !dbg !2112
  store ptr %42, ptr %rest, align 8, !dbg !2112
  %44 = getelementptr inbounds i8, ptr %rest, i64 8, !dbg !2112
  store i64 %43, ptr %44, align 8, !dbg !2112
  store ptr %rest, ptr %rest.dbg.spill4, align 8, !dbg !2112
    #dbg_declare(ptr %rest.dbg.spill4, !2012, !DIExpression(), !2075)
  br label %bb8, !dbg !2113

bb45:                                             ; preds = %bb11
  br label %bb19, !dbg !2114

bb42:                                             ; preds = %bb11
  %45 = load ptr, ptr %digits2, align 8, !dbg !2115
  %46 = getelementptr inbounds i8, ptr %digits2, i64 8, !dbg !2115
  %47 = load i64, ptr %46, align 8, !dbg !2115
  store i64 %47, ptr %_67, align 8, !dbg !2115
  %48 = load i64, ptr %_67, align 8, !dbg !2115
  %49 = icmp ule i64 %48, 16, !dbg !2115
  %50 = zext i1 %49 to i8, !dbg !2115
  store i8 %50, ptr %_14, align 1, !dbg !2115
  %51 = load i8, ptr %_14, align 1, !dbg !2083
  %52 = trunc nuw i8 %51 to i1, !dbg !2083
  br i1 %52, label %bb43, label %bb47, !dbg !2083

bb19:                                             ; preds = %bb27, %bb46, %bb44, %bb47, %bb45
  %53 = load ptr, ptr %digits, align 8, !dbg !2116
  %54 = getelementptr inbounds i8, ptr %digits, i64 8, !dbg !2116
  %_34 = load i64, ptr %54, align 8, !dbg !2116
  %_35 = icmp uge i64 %_34, 1, !dbg !2116
  br i1 %_35, label %bb20, label %bb28, !dbg !2116

bb47:                                             ; preds = %bb42
  br label %bb19, !dbg !2114

bb43:                                             ; preds = %bb42
  br label %bb13, !dbg !2117

bb13:                                             ; preds = %bb18, %bb41, %bb43
  %55 = load ptr, ptr %digits, align 8, !dbg !2118
  %56 = getelementptr inbounds i8, ptr %digits, i64 8, !dbg !2118
  %_17 = load i64, ptr %56, align 8, !dbg !2118
  %_18 = icmp uge i64 %_17, 1, !dbg !2118
  br i1 %_18, label %bb14, label %bb28, !dbg !2118

bb44:                                             ; preds = %bb8
  br label %bb19, !dbg !2114

bb40:                                             ; preds = %bb8
  %57 = load ptr, ptr %digits2, align 8, !dbg !2115
  %58 = getelementptr inbounds i8, ptr %digits2, i64 8, !dbg !2115
  %59 = load i64, ptr %58, align 8, !dbg !2115
  store i64 %59, ptr %_67, align 8, !dbg !2115
  %60 = load i64, ptr %_67, align 8, !dbg !2115
  %61 = icmp ule i64 %60, 16, !dbg !2115
  %62 = zext i1 %61 to i8, !dbg !2115
  store i8 %62, ptr %_14, align 1, !dbg !2115
  %63 = load i8, ptr %_14, align 1, !dbg !2083
  %64 = trunc nuw i8 %63 to i1, !dbg !2083
  br i1 %64, label %bb41, label %bb46, !dbg !2083

bb46:                                             ; preds = %bb40
  br label %bb19, !dbg !2114

bb41:                                             ; preds = %bb40
  br label %bb13, !dbg !2117

bb28:                                             ; preds = %bb13, %bb19
  %_64 = load i64, ptr %result, align 8, !dbg !2119
  %65 = getelementptr inbounds i8, ptr %_0, i64 8, !dbg !2120
  store i64 %_64, ptr %65, align 8, !dbg !2120
  store i8 0, ptr %_0, align 8, !dbg !2120
  br label %bb31, !dbg !2096

bb20:                                             ; preds = %bb19
  %66 = load ptr, ptr %digits, align 8, !dbg !2121
  %67 = getelementptr inbounds i8, ptr %digits, i64 8, !dbg !2121
  %68 = load i64, ptr %67, align 8, !dbg !2121
  %c = getelementptr inbounds nuw i8, ptr %66, i64 0, !dbg !2121
  store ptr %c, ptr %c.dbg.spill, align 8, !dbg !2121
    #dbg_declare(ptr %c.dbg.spill, !2029, !DIExpression(), !2121)
  %69 = load ptr, ptr %digits, align 8, !dbg !2122
  %70 = getelementptr inbounds i8, ptr %digits, i64 8, !dbg !2122
  %71 = load i64, ptr %70, align 8, !dbg !2122
  %rest.05 = getelementptr inbounds nuw i8, ptr %69, i64 1, !dbg !2122
  %rest.16 = sub i64 %71, 1, !dbg !2122
  store ptr %rest.05, ptr %rest.dbg.spill7, align 8, !dbg !2122
  %72 = getelementptr inbounds i8, ptr %rest.dbg.spill7, i64 8, !dbg !2122
  store i64 %rest.16, ptr %72, align 8, !dbg !2122
    #dbg_declare(ptr %rest.dbg.spill7, !2031, !DIExpression(), !2122)
  %self = load i64, ptr %result, align 8, !dbg !2123
  store i64 %self, ptr %self.dbg.spill, align 8, !dbg !2123
    #dbg_declare(ptr %self.dbg.spill, !2124, !DIExpression(), !2136)
    #dbg_declare(ptr %self.dbg.spill, !2138, !DIExpression(), !2142)
  %rhs = zext i32 %radix to i64, !dbg !2144
  store i64 %rhs, ptr %rhs.dbg.spill, align 8, !dbg !2144
    #dbg_declare(ptr %rhs.dbg.spill, !2129, !DIExpression(), !2145)
    #dbg_declare(ptr %rhs.dbg.spill, !2141, !DIExpression(), !2146)
  %73 = call { i64, i1 } @llvm.umul.with.overflow.i64(i64 %self, i64 %rhs), !dbg !2147
  %_70.0 = extractvalue { i64, i1 } %73, 0, !dbg !2147
  %_70.1 = extractvalue { i64, i1 } %73, 1, !dbg !2147
  %74 = zext i1 %_70.1 to i8, !dbg !2148
  store i8 %74, ptr %b.dbg.spill, align 1, !dbg !2148
    #dbg_declare(ptr %b.dbg.spill, !2132, !DIExpression(), !2149)
    #dbg_declare(ptr %b.dbg.spill, !2150, !DIExpression(), !2153)
  store i64 %_70.0, ptr %a.dbg.spill, align 8, !dbg !2155
    #dbg_declare(ptr %a.dbg.spill, !2130, !DIExpression(), !2156)
  br i1 %_70.1, label %bb33, label %bb35, !dbg !2157

bb35:                                             ; preds = %bb20
  %75 = getelementptr inbounds i8, ptr %mul, i64 8, !dbg !2158
  store i64 %_70.0, ptr %75, align 8, !dbg !2158
  store i64 1, ptr %mul, align 8, !dbg !2158
  br label %bb32, !dbg !2159

bb33:                                             ; preds = %bb20
  %76 = load i64, ptr @anon.12ea5d96d0290b8ba80fa83f0d160b84.1, align 8, !dbg !2160
  %77 = load i64, ptr getelementptr inbounds (i8, ptr @anon.12ea5d96d0290b8ba80fa83f0d160b84.1, i64 8), align 8, !dbg !2160
  store i64 %76, ptr %mul, align 8, !dbg !2160
  %78 = getelementptr inbounds i8, ptr %mul, i64 8, !dbg !2160
  store i64 %77, ptr %78, align 8, !dbg !2160
  br label %bb32, !dbg !2159

bb32:                                             ; preds = %bb33, %bb35
  %_44 = load i8, ptr %c, align 1, !dbg !2161
  %_43 = zext i8 %_44 to i32, !dbg !2162
; call core::char::methods::<impl char>::to_digit
  %79 = call { i32, i32 } @"_ZN4core4char7methods22_$LT$impl$u20$char$GT$8to_digit17h428e16ede6856669E"(i32 %_43, i32 %radix), !dbg !2163
  %80 = extractvalue { i32, i32 } %79, 0, !dbg !2163
  %81 = extractvalue { i32, i32 } %79, 1, !dbg !2163
  store i32 %80, ptr %_42, align 4, !dbg !2163
  %82 = getelementptr inbounds i8, ptr %_42, i64 4, !dbg !2163
  store i32 %81, ptr %82, align 4, !dbg !2163
  %83 = load i32, ptr %_42, align 4, !dbg !2162
  %84 = getelementptr inbounds i8, ptr %_42, i64 4, !dbg !2162
  %85 = load i32, ptr %84, align 4, !dbg !2162
  %_45 = zext i32 %83 to i64, !dbg !2162
  %86 = trunc nuw i64 %_45 to i1, !dbg !2164
  br i1 %86, label %bb23, label %bb22, !dbg !2164

bb23:                                             ; preds = %bb32
  %87 = getelementptr inbounds i8, ptr %_42, i64 4, !dbg !2165
  %value = load i32, ptr %87, align 4, !dbg !2165
  store i32 %value, ptr %value.dbg.spill, align 4, !dbg !2165
    #dbg_declare(ptr %value.dbg.spill, !2047, !DIExpression(), !2166)
  %x = zext i32 %value to i64, !dbg !2167
  store i64 %x, ptr %x.dbg.spill, align 8, !dbg !2167
    #dbg_declare(ptr %x.dbg.spill, !2045, !DIExpression(), !2168)
    #dbg_declare(ptr %x.dbg.spill, !2169, !DIExpression(), !2173)
  %_47 = load i64, ptr %mul, align 8, !dbg !2175
  %88 = getelementptr inbounds i8, ptr %mul, i64 8, !dbg !2175
  %89 = load i64, ptr %88, align 8, !dbg !2175
  %90 = trunc nuw i64 %_47 to i1, !dbg !2176
  br i1 %90, label %bb25, label %bb24, !dbg !2176

bb22:                                             ; preds = %bb32
  %91 = getelementptr inbounds i8, ptr %_0, i64 1, !dbg !2177
  store i8 1, ptr %91, align 1, !dbg !2177
  store i8 1, ptr %_0, align 8, !dbg !2177
  br label %bb29, !dbg !2178

bb29:                                             ; preds = %bb26, %bb24, %bb22
  br label %bb30, !dbg !2180

bb25:                                             ; preds = %bb23
  %92 = getelementptr inbounds i8, ptr %mul, i64 8, !dbg !2182
  %value8 = load i64, ptr %92, align 8, !dbg !2182
  store i64 %value8, ptr %value.dbg.spill9, align 8, !dbg !2182
    #dbg_declare(ptr %value.dbg.spill9, !2049, !DIExpression(), !2183)
  store i64 %value8, ptr %result, align 8, !dbg !2184
  %self10 = load i64, ptr %result, align 8, !dbg !2185
  store i64 %self10, ptr %self.dbg.spill11, align 8, !dbg !2185
    #dbg_declare(ptr %self.dbg.spill11, !2172, !DIExpression(), !2186)
  %_76.0 = add i64 %self10, %x, !dbg !2187
  %_76.1 = icmp ult i64 %_76.0, %self10, !dbg !2187
  %93 = zext i1 %_76.1 to i8, !dbg !2187
  store i8 %93, ptr %b.dbg.spill12, align 1, !dbg !2187
    #dbg_declare(ptr %b.dbg.spill12, !2150, !DIExpression(), !2188)
  br i1 %_76.1, label %bb37, label %bb39, !dbg !2190

bb24:                                             ; preds = %bb23
  %94 = getelementptr inbounds i8, ptr %_0, i64 1, !dbg !2191
  store i8 2, ptr %94, align 1, !dbg !2191
  store i8 1, ptr %_0, align 8, !dbg !2191
  br label %bb29, !dbg !2192

bb39:                                             ; preds = %bb25
  %_77 = add nuw i64 %self10, %x, !dbg !2194
  %95 = getelementptr inbounds i8, ptr %_49, i64 8, !dbg !2195
  store i64 %_77, ptr %95, align 8, !dbg !2195
  store i64 1, ptr %_49, align 8, !dbg !2195
  br label %bb36, !dbg !2196

bb37:                                             ; preds = %bb25
  %96 = load i64, ptr @anon.12ea5d96d0290b8ba80fa83f0d160b84.1, align 8, !dbg !2197
  %97 = load i64, ptr getelementptr inbounds (i8, ptr @anon.12ea5d96d0290b8ba80fa83f0d160b84.1, i64 8), align 8, !dbg !2197
  store i64 %96, ptr %_49, align 8, !dbg !2197
  %98 = getelementptr inbounds i8, ptr %_49, i64 8, !dbg !2197
  store i64 %97, ptr %98, align 8, !dbg !2197
  br label %bb36, !dbg !2196

bb36:                                             ; preds = %bb37, %bb39
  %_51 = load i64, ptr %_49, align 8, !dbg !2174
  %99 = getelementptr inbounds i8, ptr %_49, i64 8, !dbg !2174
  %100 = load i64, ptr %99, align 8, !dbg !2174
  %101 = trunc nuw i64 %_51 to i1, !dbg !2176
  br i1 %101, label %bb27, label %bb26, !dbg !2176

bb27:                                             ; preds = %bb36
  %102 = getelementptr inbounds i8, ptr %_49, i64 8, !dbg !2182
  %value13 = load i64, ptr %102, align 8, !dbg !2182
  store i64 %value13, ptr %value.dbg.spill14, align 8, !dbg !2182
    #dbg_declare(ptr %value.dbg.spill14, !2051, !DIExpression(), !2198)
  store i64 %value13, ptr %result, align 8, !dbg !2199
  store ptr %rest.05, ptr %digits, align 8, !dbg !2200
  %103 = getelementptr inbounds i8, ptr %digits, i64 8, !dbg !2200
  store i64 %rest.16, ptr %103, align 8, !dbg !2200
  br label %bb19, !dbg !2201

bb26:                                             ; preds = %bb36
  %104 = getelementptr inbounds i8, ptr %_0, i64 1, !dbg !2191
  store i8 2, ptr %104, align 1, !dbg !2191
  store i8 1, ptr %_0, align 8, !dbg !2191
  br label %bb29, !dbg !2192

bb30:                                             ; preds = %bb17, %bb29
  br label %bb31, !dbg !2100

bb14:                                             ; preds = %bb13
  %105 = load ptr, ptr %digits, align 8, !dbg !2202
  %106 = getelementptr inbounds i8, ptr %digits, i64 8, !dbg !2202
  %107 = load i64, ptr %106, align 8, !dbg !2202
  %c15 = getelementptr inbounds nuw i8, ptr %105, i64 0, !dbg !2202
  store ptr %c15, ptr %c.dbg.spill16, align 8, !dbg !2202
    #dbg_declare(ptr %c.dbg.spill16, !2015, !DIExpression(), !2202)
  %108 = load ptr, ptr %digits, align 8, !dbg !2203
  %109 = getelementptr inbounds i8, ptr %digits, i64 8, !dbg !2203
  %110 = load i64, ptr %109, align 8, !dbg !2203
  %rest.017 = getelementptr inbounds nuw i8, ptr %108, i64 1, !dbg !2203
  %rest.118 = sub i64 %110, 1, !dbg !2203
  store ptr %rest.017, ptr %rest.dbg.spill19, align 8, !dbg !2203
  %111 = getelementptr inbounds i8, ptr %rest.dbg.spill19, i64 8, !dbg !2203
  store i64 %rest.118, ptr %111, align 8, !dbg !2203
    #dbg_declare(ptr %rest.dbg.spill19, !2017, !DIExpression(), !2203)
  %_21 = load i64, ptr %result, align 8, !dbg !2204
  %_22 = zext i32 %radix to i64, !dbg !2205
  %112 = mul i64 %_21, %_22, !dbg !2206
  store i64 %112, ptr %result, align 8, !dbg !2206
  %_25 = load i8, ptr %c15, align 1, !dbg !2207
  %_24 = zext i8 %_25 to i32, !dbg !2208
; call core::char::methods::<impl char>::to_digit
  %113 = call { i32, i32 } @"_ZN4core4char7methods22_$LT$impl$u20$char$GT$8to_digit17h428e16ede6856669E"(i32 %_24, i32 %radix), !dbg !2209
  %114 = extractvalue { i32, i32 } %113, 0, !dbg !2209
  %115 = extractvalue { i32, i32 } %113, 1, !dbg !2209
  store i32 %114, ptr %_23, align 4, !dbg !2209
  %116 = getelementptr inbounds i8, ptr %_23, i64 4, !dbg !2209
  store i32 %115, ptr %116, align 4, !dbg !2209
  %117 = load i32, ptr %_23, align 4, !dbg !2208
  %118 = getelementptr inbounds i8, ptr %_23, i64 4, !dbg !2208
  %119 = load i32, ptr %118, align 4, !dbg !2208
  %_26 = zext i32 %117 to i64, !dbg !2208
  %120 = trunc nuw i64 %_26 to i1, !dbg !2210
  br i1 %120, label %bb18, label %bb17, !dbg !2210

bb18:                                             ; preds = %bb14
  %121 = getelementptr inbounds i8, ptr %_23, i64 4, !dbg !2211
  %x20 = load i32, ptr %121, align 4, !dbg !2211
  store i32 %x20, ptr %x.dbg.spill21, align 4, !dbg !2211
    #dbg_declare(ptr %x.dbg.spill21, !2018, !DIExpression(), !2212)
    #dbg_declare(ptr %x.dbg.spill21, !2020, !DIExpression(), !2213)
  %_28 = load i64, ptr %result, align 8, !dbg !2214
  %_29 = zext i32 %x20 to i64, !dbg !2215
  %122 = add i64 %_28, %_29, !dbg !2216
  store i64 %122, ptr %result, align 8, !dbg !2216
  store ptr %rest.017, ptr %digits, align 8, !dbg !2217
  %123 = getelementptr inbounds i8, ptr %digits, i64 8, !dbg !2217
  store i64 %rest.118, ptr %123, align 8, !dbg !2217
  br label %bb13, !dbg !2218

bb17:                                             ; preds = %bb14
  %124 = getelementptr inbounds i8, ptr %_0, i64 1, !dbg !2219
  store i8 1, ptr %124, align 1, !dbg !2219
  store i8 1, ptr %_0, align 8, !dbg !2219
  br label %bb30, !dbg !2180

bb16:                                             ; No predecessors!
  unreachable, !dbg !2093
}

; core::num::<impl core::str::traits::FromStr for i32>::from_str
; Function Attrs: inlinehint nonlazybind uwtable
define internal i64 @"_ZN4core3num60_$LT$impl$u20$core..str..traits..FromStr$u20$for$u20$i32$GT$8from_str17hb5593082a61765f5E"(ptr align 1 %src.0, i64 %src.1) unnamed_addr #0 !dbg !2220 {
start:
  %0 = alloca [8 x i8], align 8
  %radix.dbg.spill = alloca [4 x i8], align 4
  %src.dbg.spill = alloca [16 x i8], align 8
  %_0 = alloca [8 x i8], align 4
  store ptr %src.0, ptr %src.dbg.spill, align 8
  %1 = getelementptr inbounds i8, ptr %src.dbg.spill, i64 8
  store i64 %src.1, ptr %1, align 8
    #dbg_declare(ptr %src.dbg.spill, !2225, !DIExpression(), !2226)
    #dbg_declare(ptr %src.dbg.spill, !2227, !DIExpression(), !2233)
    #dbg_declare(ptr %src.dbg.spill, !2235, !DIExpression(), !2242)
  store i32 10, ptr %radix.dbg.spill, align 4, !dbg !2244
    #dbg_declare(ptr %radix.dbg.spill, !2232, !DIExpression(), !2244)
; call core::num::<impl i32>::from_ascii_radix
  %2 = call i64 @"_ZN4core3num21_$LT$impl$u20$i32$GT$16from_ascii_radix17h49b5624a535c758dE"(ptr align 1 %src.0, i64 %src.1, i32 10), !dbg !2245
  store i64 %2, ptr %0, align 8, !dbg !2245
  call void @llvm.memcpy.p0.p0.i64(ptr align 4 %_0, ptr align 8 %0, i64 8, i1 false), !dbg !2245
  %3 = load i64, ptr %_0, align 4, !dbg !2246
  ret i64 %3, !dbg !2246
}

; core::num::<impl core::str::traits::FromStr for usize>::from_str
; Function Attrs: inlinehint nonlazybind uwtable
define internal void @"_ZN4core3num62_$LT$impl$u20$core..str..traits..FromStr$u20$for$u20$usize$GT$8from_str17h5eec9d3f263fb068E"(ptr sret([16 x i8]) align 8 %_0, ptr align 1 %src.0, i64 %src.1) unnamed_addr #0 !dbg !2247 {
start:
  %radix.dbg.spill = alloca [4 x i8], align 4
  %src.dbg.spill = alloca [16 x i8], align 8
  store ptr %src.0, ptr %src.dbg.spill, align 8
  %0 = getelementptr inbounds i8, ptr %src.dbg.spill, i64 8
  store i64 %src.1, ptr %0, align 8
    #dbg_declare(ptr %src.dbg.spill, !2252, !DIExpression(), !2253)
    #dbg_declare(ptr %src.dbg.spill, !2254, !DIExpression(), !2260)
    #dbg_declare(ptr %src.dbg.spill, !2262, !DIExpression(), !2265)
  store i32 10, ptr %radix.dbg.spill, align 4, !dbg !2267
    #dbg_declare(ptr %radix.dbg.spill, !2259, !DIExpression(), !2267)
; call core::num::<impl usize>::from_ascii_radix
  call void @"_ZN4core3num23_$LT$impl$u20$usize$GT$16from_ascii_radix17ha17b6855397a60cfE"(ptr sret([16 x i8]) align 8 %_0, ptr align 1 %src.0, i64 %src.1, i32 10), !dbg !2268
  ret void, !dbg !2269
}

; core::ops::function::FnMut::call_mut
; Function Attrs: inlinehint nonlazybind uwtable
define internal zeroext i1 @_ZN4core3ops8function5FnMut8call_mut17hceba974b19d86862E(ptr align 1 %_1, i32 %0) unnamed_addr #0 !dbg !2270 {
start:
  %_1.dbg.spill = alloca [8 x i8], align 8
  %_2 = alloca [4 x i8], align 4
  store i32 %0, ptr %_2, align 4
  store ptr %_1, ptr %_1.dbg.spill, align 8
    #dbg_declare(ptr %_1.dbg.spill, !2279, !DIExpression(), !2287)
    #dbg_declare(ptr %_2, !2280, !DIExpression(), !2287)
  %1 = load i32, ptr %_2, align 4, !dbg !2287
; call core::char::methods::<impl char>::is_whitespace
  %_0 = call zeroext i1 @"_ZN4core4char7methods22_$LT$impl$u20$char$GT$13is_whitespace17hb98d89ddc5c40c37E"(i32 %1), !dbg !2287
  ret i1 %_0, !dbg !2287
}

; core::ops::function::FnOnce::call_once{{vtable.shim}}
; Function Attrs: inlinehint nonlazybind uwtable
define internal i32 @"_ZN4core3ops8function6FnOnce40call_once$u7b$$u7b$vtable.shim$u7d$$u7d$17h0c4167313151a682E"(ptr %_1) unnamed_addr #0 !dbg !2288 {
start:
  %_1.dbg.spill = alloca [8 x i8], align 8
  %_2 = alloca [0 x i8], align 1
  store ptr %_1, ptr %_1.dbg.spill, align 8
    #dbg_declare(ptr %_1.dbg.spill, !2294, !DIExpression(), !2299)
    #dbg_declare(ptr %_2, !2295, !DIExpression(), !2299)
  %0 = load ptr, ptr %_1, align 8, !dbg !2299
; call core::ops::function::FnOnce::call_once
  %_0 = call i32 @_ZN4core3ops8function6FnOnce9call_once17h227088640d27d854E(ptr %0), !dbg !2299
  ret i32 %_0, !dbg !2299
}

; core::ops::function::FnOnce::call_once
; Function Attrs: inlinehint nonlazybind uwtable
define internal i32 @_ZN4core3ops8function6FnOnce9call_once17h227088640d27d854E(ptr %0) unnamed_addr #0 personality ptr @rust_eh_personality !dbg !2300 {
start:
  %1 = alloca [16 x i8], align 8
  %_2 = alloca [0 x i8], align 1
  %_1 = alloca [8 x i8], align 8
  store ptr %0, ptr %_1, align 8
    #dbg_declare(ptr %_1, !2304, !DIExpression(), !2306)
    #dbg_declare(ptr %_2, !2305, !DIExpression(), !2306)
; invoke std::rt::lang_start::{{closure}}
  %_0 = invoke i32 @"_ZN3std2rt10lang_start28_$u7b$$u7b$closure$u7d$$u7d$17h777c3308bd82c159E"(ptr align 8 %_1)
          to label %bb1 unwind label %cleanup, !dbg !2306

bb3:                                              ; preds = %cleanup
  %2 = load ptr, ptr %1, align 8, !dbg !2306
  %3 = getelementptr inbounds i8, ptr %1, i64 8, !dbg !2306
  %4 = load i32, ptr %3, align 8, !dbg !2306
  %5 = insertvalue { ptr, i32 } poison, ptr %2, 0, !dbg !2306
  %6 = insertvalue { ptr, i32 } %5, i32 %4, 1, !dbg !2306
  resume { ptr, i32 } %6, !dbg !2306

cleanup:                                          ; preds = %start
  %7 = landingpad { ptr, i32 }
          cleanup
  %8 = extractvalue { ptr, i32 } %7, 0
  %9 = extractvalue { ptr, i32 } %7, 1
  store ptr %8, ptr %1, align 8
  %10 = getelementptr inbounds i8, ptr %1, i64 8
  store i32 %9, ptr %10, align 8
  br label %bb3

bb1:                                              ; preds = %start
  ret i32 %_0, !dbg !2306
}

; core::ops::function::FnOnce::call_once
; Function Attrs: inlinehint nonlazybind uwtable
define internal void @_ZN4core3ops8function6FnOnce9call_once17h81ce58f01dc0d7a6E(ptr %_1) unnamed_addr #0 !dbg !2307 {
start:
  %_1.dbg.spill = alloca [8 x i8], align 8
  %_2 = alloca [0 x i8], align 1
  store ptr %_1, ptr %_1.dbg.spill, align 8
    #dbg_declare(ptr %_1.dbg.spill, !2309, !DIExpression(), !2313)
    #dbg_declare(ptr %_2, !2310, !DIExpression(), !2313)
  call void %_1(), !dbg !2313
  ret void, !dbg !2313
}

; core::ptr::drop_in_place<std::io::error::ErrorData<alloc::boxed::Box<std::io::error::Custom>>>
; Function Attrs: nonlazybind uwtable
define internal void @"_ZN4core3ptr101drop_in_place$LT$std..io..error..ErrorData$LT$alloc..boxed..Box$LT$std..io..error..Custom$GT$$GT$$GT$17h8687fa95b6820823E"(ptr align 8 %_1) unnamed_addr #1 !dbg !2314 {
start:
  %_1.dbg.spill = alloca [8 x i8], align 8
  store ptr %_1, ptr %_1.dbg.spill, align 8
    #dbg_declare(ptr %_1.dbg.spill, !2320, !DIExpression(), !2321)
  %0 = load i8, ptr %_1, align 8, !dbg !2321
  %_2 = zext i8 %0 to i64, !dbg !2321
  switch i64 %_2, label %bb2 [
    i64 0, label %bb1
    i64 1, label %bb1
    i64 2, label %bb1
  ], !dbg !2321

bb2:                                              ; preds = %start
  %1 = getelementptr inbounds i8, ptr %_1, i64 8, !dbg !2321
; call core::ptr::drop_in_place<alloc::boxed::Box<std::io::error::Custom>>
  call void @"_ZN4core3ptr68drop_in_place$LT$alloc..boxed..Box$LT$std..io..error..Custom$GT$$GT$17h777fe117dc6c522cE"(ptr align 8 %1), !dbg !2321
  br label %bb1, !dbg !2321

bb1:                                              ; preds = %bb2, %start, %start, %start
  ret void, !dbg !2321
}

; core::ptr::drop_in_place<alloc::boxed::Box<dyn core::error::Error+core::marker::Sync+core::marker::Send>>
; Function Attrs: nonlazybind uwtable
define internal void @"_ZN4core3ptr118drop_in_place$LT$alloc..boxed..Box$LT$dyn$u20$core..error..Error$u2b$core..marker..Sync$u2b$core..marker..Send$GT$$GT$17h1fa8c9c28a298dc1E"(ptr align 8 %_1) unnamed_addr #1 personality ptr @rust_eh_personality !dbg !2322 {
start:
  %0 = alloca [16 x i8], align 8
  %_1.dbg.spill = alloca [8 x i8], align 8
  store ptr %_1, ptr %_1.dbg.spill, align 8
    #dbg_declare(ptr %_1.dbg.spill, !2327, !DIExpression(), !2330)
  %_6.0 = load ptr, ptr %_1, align 8, !dbg !2330
  %1 = getelementptr inbounds i8, ptr %_1, i64 8, !dbg !2330
  %_6.1 = load ptr, ptr %1, align 8, !dbg !2330
  %2 = getelementptr inbounds i8, ptr %_6.1, i64 0, !dbg !2330
  %3 = load ptr, ptr %2, align 8, !dbg !2330, !invariant.load !23
  %4 = icmp ne ptr %3, null, !dbg !2330
  br i1 %4, label %is_not_null, label %bb3, !dbg !2330

is_not_null:                                      ; preds = %start
  invoke void %3(ptr %_6.0)
          to label %bb3 unwind label %cleanup, !dbg !2330

bb3:                                              ; preds = %is_not_null, %start
; call <alloc::boxed::Box<T,A> as core::ops::drop::Drop>::drop
  call void @"_ZN72_$LT$alloc..boxed..Box$LT$T$C$A$GT$$u20$as$u20$core..ops..drop..Drop$GT$4drop17hbac7400c59c8b74eE"(ptr align 8 %_1), !dbg !2330
  ret void, !dbg !2330

bb4:                                              ; preds = %cleanup
; invoke <alloc::boxed::Box<T,A> as core::ops::drop::Drop>::drop
  invoke void @"_ZN72_$LT$alloc..boxed..Box$LT$T$C$A$GT$$u20$as$u20$core..ops..drop..Drop$GT$4drop17hbac7400c59c8b74eE"(ptr align 8 %_1) #17
          to label %bb1 unwind label %terminate, !dbg !2330

cleanup:                                          ; preds = %is_not_null
  %5 = landingpad { ptr, i32 }
          cleanup
  %6 = extractvalue { ptr, i32 } %5, 0
  %7 = extractvalue { ptr, i32 } %5, 1
  store ptr %6, ptr %0, align 8
  %8 = getelementptr inbounds i8, ptr %0, i64 8
  store i32 %7, ptr %8, align 8
  br label %bb4

terminate:                                        ; preds = %bb4
  %9 = landingpad { ptr, i32 }
          filter [0 x ptr] zeroinitializer
; call core::panicking::panic_in_cleanup
  call void @_ZN4core9panicking16panic_in_cleanup17h5eff40bcc4481d72E() #18, !dbg !2330
  unreachable, !dbg !2330

bb1:                                              ; preds = %bb4
  %10 = load ptr, ptr %0, align 8, !dbg !2330
  %11 = getelementptr inbounds i8, ptr %0, i64 8, !dbg !2330
  %12 = load i32, ptr %11, align 8, !dbg !2330
  %13 = insertvalue { ptr, i32 } poison, ptr %10, 0, !dbg !2330
  %14 = insertvalue { ptr, i32 } %13, i32 %12, 1, !dbg !2330
  resume { ptr, i32 } %14, !dbg !2330
}

; core::ptr::drop_in_place<alloc::string::String>
; Function Attrs: nonlazybind uwtable
define internal void @"_ZN4core3ptr42drop_in_place$LT$alloc..string..String$GT$17h7b8b1de5d5c43b78E"(ptr align 8 %_1) unnamed_addr #1 !dbg !2331 {
start:
  %_1.dbg.spill = alloca [8 x i8], align 8
  store ptr %_1, ptr %_1.dbg.spill, align 8
    #dbg_declare(ptr %_1.dbg.spill, !2371, !DIExpression(), !2374)
; call core::ptr::drop_in_place<alloc::vec::Vec<u8>>
  call void @"_ZN4core3ptr46drop_in_place$LT$alloc..vec..Vec$LT$u8$GT$$GT$17h757b459750bd827dE"(ptr align 8 %_1), !dbg !2374
  ret void, !dbg !2374
}

; core::ptr::drop_in_place<std::io::error::Error>
; Function Attrs: nonlazybind uwtable
define internal void @"_ZN4core3ptr42drop_in_place$LT$std..io..error..Error$GT$17h9e6eeb4571b17a1aE"(ptr align 8 %_1) unnamed_addr #1 !dbg !2375 {
start:
  %_1.dbg.spill = alloca [8 x i8], align 8
  store ptr %_1, ptr %_1.dbg.spill, align 8
    #dbg_declare(ptr %_1.dbg.spill, !2380, !DIExpression(), !2383)
; call core::ptr::drop_in_place<std::io::error::repr_bitpacked::Repr>
  call void @"_ZN4core3ptr57drop_in_place$LT$std..io..error..repr_bitpacked..Repr$GT$17h9bd9a70d9458ed92E"(ptr align 8 %_1), !dbg !2383
  ret void, !dbg !2383
}

; core::ptr::drop_in_place<std::io::error::Custom>
; Function Attrs: nonlazybind uwtable
define internal void @"_ZN4core3ptr43drop_in_place$LT$std..io..error..Custom$GT$17h8d607188ba32e346E"(ptr align 8 %_1) unnamed_addr #1 !dbg !2384 {
start:
  %_1.dbg.spill = alloca [8 x i8], align 8
  store ptr %_1, ptr %_1.dbg.spill, align 8
    #dbg_declare(ptr %_1.dbg.spill, !2388, !DIExpression(), !2391)
; call core::ptr::drop_in_place<alloc::boxed::Box<dyn core::error::Error+core::marker::Sync+core::marker::Send>>
  call void @"_ZN4core3ptr118drop_in_place$LT$alloc..boxed..Box$LT$dyn$u20$core..error..Error$u2b$core..marker..Sync$u2b$core..marker..Send$GT$$GT$17h1fa8c9c28a298dc1E"(ptr align 8 %_1), !dbg !2391
  ret void, !dbg !2391
}

; core::ptr::drop_in_place<alloc::vec::Vec<u8>>
; Function Attrs: nonlazybind uwtable
define internal void @"_ZN4core3ptr46drop_in_place$LT$alloc..vec..Vec$LT$u8$GT$$GT$17h757b459750bd827dE"(ptr align 8 %_1) unnamed_addr #1 personality ptr @rust_eh_personality !dbg !2392 {
start:
  %0 = alloca [16 x i8], align 8
  %_1.dbg.spill = alloca [8 x i8], align 8
  store ptr %_1, ptr %_1.dbg.spill, align 8
    #dbg_declare(ptr %_1.dbg.spill, !2397, !DIExpression(), !2400)
; invoke <alloc::vec::Vec<T,A> as core::ops::drop::Drop>::drop
  invoke void @"_ZN70_$LT$alloc..vec..Vec$LT$T$C$A$GT$$u20$as$u20$core..ops..drop..Drop$GT$4drop17h9d31ff021d90655fE"(ptr align 8 %_1)
          to label %bb4 unwind label %cleanup, !dbg !2400

bb3:                                              ; preds = %cleanup
; invoke core::ptr::drop_in_place<alloc::raw_vec::RawVec<u8>>
  invoke void @"_ZN4core3ptr53drop_in_place$LT$alloc..raw_vec..RawVec$LT$u8$GT$$GT$17hbdef6ba156357f18E"(ptr align 8 %_1) #17
          to label %bb1 unwind label %terminate, !dbg !2400

cleanup:                                          ; preds = %start
  %1 = landingpad { ptr, i32 }
          cleanup
  %2 = extractvalue { ptr, i32 } %1, 0
  %3 = extractvalue { ptr, i32 } %1, 1
  store ptr %2, ptr %0, align 8
  %4 = getelementptr inbounds i8, ptr %0, i64 8
  store i32 %3, ptr %4, align 8
  br label %bb3

bb4:                                              ; preds = %start
; call core::ptr::drop_in_place<alloc::raw_vec::RawVec<u8>>
  call void @"_ZN4core3ptr53drop_in_place$LT$alloc..raw_vec..RawVec$LT$u8$GT$$GT$17hbdef6ba156357f18E"(ptr align 8 %_1), !dbg !2400
  ret void, !dbg !2400

terminate:                                        ; preds = %bb3
  %5 = landingpad { ptr, i32 }
          filter [0 x ptr] zeroinitializer
; call core::panicking::panic_in_cleanup
  call void @_ZN4core9panicking16panic_in_cleanup17h5eff40bcc4481d72E() #18, !dbg !2400
  unreachable, !dbg !2400

bb1:                                              ; preds = %bb3
  %6 = load ptr, ptr %0, align 8, !dbg !2400
  %7 = getelementptr inbounds i8, ptr %0, i64 8, !dbg !2400
  %8 = load i32, ptr %7, align 8, !dbg !2400
  %9 = insertvalue { ptr, i32 } poison, ptr %6, 0, !dbg !2400
  %10 = insertvalue { ptr, i32 } %9, i32 %8, 1, !dbg !2400
  resume { ptr, i32 } %10, !dbg !2400
}

; core::ptr::drop_in_place<alloc::raw_vec::RawVec<u8>>
; Function Attrs: nonlazybind uwtable
define internal void @"_ZN4core3ptr53drop_in_place$LT$alloc..raw_vec..RawVec$LT$u8$GT$$GT$17hbdef6ba156357f18E"(ptr align 8 %_1) unnamed_addr #1 !dbg !2401 {
start:
  %_1.dbg.spill = alloca [8 x i8], align 8
  store ptr %_1, ptr %_1.dbg.spill, align 8
    #dbg_declare(ptr %_1.dbg.spill, !2406, !DIExpression(), !2409)
; call <alloc::raw_vec::RawVec<T,A> as core::ops::drop::Drop>::drop
  call void @"_ZN77_$LT$alloc..raw_vec..RawVec$LT$T$C$A$GT$$u20$as$u20$core..ops..drop..Drop$GT$4drop17h8d336a5866d2c9c3E"(ptr align 8 %_1), !dbg !2409
  ret void, !dbg !2409
}

; core::ptr::drop_in_place<std::io::error::repr_bitpacked::Repr>
; Function Attrs: nonlazybind uwtable
define internal void @"_ZN4core3ptr57drop_in_place$LT$std..io..error..repr_bitpacked..Repr$GT$17h9bd9a70d9458ed92E"(ptr align 8 %_1) unnamed_addr #1 !dbg !2410 {
start:
  %_1.dbg.spill = alloca [8 x i8], align 8
  store ptr %_1, ptr %_1.dbg.spill, align 8
    #dbg_declare(ptr %_1.dbg.spill, !2415, !DIExpression(), !2418)
; call <std::io::error::repr_bitpacked::Repr as core::ops::drop::Drop>::drop
  call void @"_ZN78_$LT$std..io..error..repr_bitpacked..Repr$u20$as$u20$core..ops..drop..Drop$GT$4drop17h2a1efee40ae2b1eaE"(ptr align 8 %_1), !dbg !2418
  ret void, !dbg !2418
}

; core::ptr::drop_in_place<alloc::boxed::Box<std::io::error::Custom>>
; Function Attrs: nonlazybind uwtable
define internal void @"_ZN4core3ptr68drop_in_place$LT$alloc..boxed..Box$LT$std..io..error..Custom$GT$$GT$17h777fe117dc6c522cE"(ptr align 8 %_1) unnamed_addr #1 personality ptr @rust_eh_personality !dbg !2419 {
start:
  %0 = alloca [16 x i8], align 8
  %_1.dbg.spill = alloca [8 x i8], align 8
  store ptr %_1, ptr %_1.dbg.spill, align 8
    #dbg_declare(ptr %_1.dbg.spill, !2424, !DIExpression(), !2427)
  %_6 = load ptr, ptr %_1, align 8, !dbg !2427
; invoke core::ptr::drop_in_place<std::io::error::Custom>
  invoke void @"_ZN4core3ptr43drop_in_place$LT$std..io..error..Custom$GT$17h8d607188ba32e346E"(ptr align 8 %_6)
          to label %bb3 unwind label %cleanup, !dbg !2427

bb4:                                              ; preds = %cleanup
; invoke <alloc::boxed::Box<T,A> as core::ops::drop::Drop>::drop
  invoke void @"_ZN72_$LT$alloc..boxed..Box$LT$T$C$A$GT$$u20$as$u20$core..ops..drop..Drop$GT$4drop17hb7c1c6c551df7675E"(ptr align 8 %_1) #17
          to label %bb1 unwind label %terminate, !dbg !2427

cleanup:                                          ; preds = %start
  %1 = landingpad { ptr, i32 }
          cleanup
  %2 = extractvalue { ptr, i32 } %1, 0
  %3 = extractvalue { ptr, i32 } %1, 1
  store ptr %2, ptr %0, align 8
  %4 = getelementptr inbounds i8, ptr %0, i64 8
  store i32 %3, ptr %4, align 8
  br label %bb4

bb3:                                              ; preds = %start
; call <alloc::boxed::Box<T,A> as core::ops::drop::Drop>::drop
  call void @"_ZN72_$LT$alloc..boxed..Box$LT$T$C$A$GT$$u20$as$u20$core..ops..drop..Drop$GT$4drop17hb7c1c6c551df7675E"(ptr align 8 %_1), !dbg !2427
  ret void, !dbg !2427

terminate:                                        ; preds = %bb4
  %5 = landingpad { ptr, i32 }
          filter [0 x ptr] zeroinitializer
; call core::panicking::panic_in_cleanup
  call void @_ZN4core9panicking16panic_in_cleanup17h5eff40bcc4481d72E() #18, !dbg !2427
  unreachable, !dbg !2427

bb1:                                              ; preds = %bb4
  %6 = load ptr, ptr %0, align 8, !dbg !2427
  %7 = getelementptr inbounds i8, ptr %0, i64 8, !dbg !2427
  %8 = load i32, ptr %7, align 8, !dbg !2427
  %9 = insertvalue { ptr, i32 } poison, ptr %6, 0, !dbg !2427
  %10 = insertvalue { ptr, i32 } %9, i32 %8, 1, !dbg !2427
  resume { ptr, i32 } %10, !dbg !2427
}

; core::ptr::non_null::NonNull<T>::new_unchecked::precondition_check
; Function Attrs: inlinehint nounwind nonlazybind uwtable
define internal void @"_ZN4core3ptr8non_null16NonNull$LT$T$GT$13new_unchecked18precondition_check17h607fb41fb0120ef7E"(ptr %ptr, ptr align 8 %0) unnamed_addr #4 !dbg !2428 {
start:
  %pieces.dbg.spill = alloca [8 x i8], align 8
  %msg.dbg.spill = alloca [16 x i8], align 8
  %ptr.dbg.spill = alloca [8 x i8], align 8
  %_5 = alloca [16 x i8], align 8
  %_3 = alloca [48 x i8], align 8
  store ptr %ptr, ptr %ptr.dbg.spill, align 8
    #dbg_declare(ptr %ptr.dbg.spill, !2434, !DIExpression(), !2437)
    #dbg_declare(ptr %ptr.dbg.spill, !2438, !DIExpression(), !2443)
  store ptr @alloc_560a59ed819b9d9a5841f6e731c4c8e5, ptr %msg.dbg.spill, align 8, !dbg !2446
  %1 = getelementptr inbounds i8, ptr %msg.dbg.spill, i64 8, !dbg !2446
  store i64 210, ptr %1, align 8, !dbg !2446
    #dbg_declare(ptr %msg.dbg.spill, !2435, !DIExpression(), !2446)
  %_6 = ptrtoint ptr %ptr to i64, !dbg !2447
  %2 = icmp eq i64 %_6, 0, !dbg !2466
  br i1 %2, label %bb1, label %bb2, !dbg !2466

bb1:                                              ; preds = %start
  %3 = getelementptr inbounds nuw { ptr, i64 }, ptr %_5, i64 0, !dbg !2467
  store ptr @alloc_560a59ed819b9d9a5841f6e731c4c8e5, ptr %3, align 8, !dbg !2467
  %4 = getelementptr inbounds i8, ptr %3, i64 8, !dbg !2467
  store i64 210, ptr %4, align 8, !dbg !2467
  store ptr %_5, ptr %pieces.dbg.spill, align 8, !dbg !2468
    #dbg_declare(ptr %pieces.dbg.spill, !2469, !DIExpression(), !2472)
  store ptr %_5, ptr %_3, align 8, !dbg !2474
  %5 = getelementptr inbounds i8, ptr %_3, i64 8, !dbg !2474
  store i64 1, ptr %5, align 8, !dbg !2474
  %6 = load ptr, ptr @anon.12ea5d96d0290b8ba80fa83f0d160b84.1, align 8, !dbg !2474
  %7 = load i64, ptr getelementptr inbounds (i8, ptr @anon.12ea5d96d0290b8ba80fa83f0d160b84.1, i64 8), align 8, !dbg !2474
  %8 = getelementptr inbounds i8, ptr %_3, i64 32, !dbg !2474
  store ptr %6, ptr %8, align 8, !dbg !2474
  %9 = getelementptr inbounds i8, ptr %8, i64 8, !dbg !2474
  store i64 %7, ptr %9, align 8, !dbg !2474
  %10 = getelementptr inbounds i8, ptr %_3, i64 16, !dbg !2474
  store ptr inttoptr (i64 8 to ptr), ptr %10, align 8, !dbg !2474
  %11 = getelementptr inbounds i8, ptr %10, i64 8, !dbg !2474
  store i64 0, ptr %11, align 8, !dbg !2474
; call core::panicking::panic_nounwind_fmt
  call void @_ZN4core9panicking18panic_nounwind_fmt17h622822847ebd61beE(ptr align 8 %_3, i1 zeroext false, ptr align 8 %0) #16, !dbg !2475
  unreachable, !dbg !2475

bb2:                                              ; preds = %start
  ret void, !dbg !2476
}

; core::ptr::non_null::NonNull<T>::offset_from_unsigned
; Function Attrs: inlinehint nonlazybind uwtable
define internal i64 @"_ZN4core3ptr8non_null16NonNull$LT$T$GT$20offset_from_unsigned17hf98797d33e557606E"(ptr %self, ptr %subtracted) unnamed_addr #0 !dbg !2477 {
start:
  %0 = alloca [8 x i8], align 8
  %pointee_size.dbg.spill = alloca [8 x i8], align 8
  %self.dbg.spill2 = alloca [8 x i8], align 8
  %origin.dbg.spill = alloca [8 x i8], align 8
  %self.dbg.spill1 = alloca [8 x i8], align 8
  %subtracted.dbg.spill = alloca [8 x i8], align 8
  %self.dbg.spill = alloca [8 x i8], align 8
  store ptr %self, ptr %self.dbg.spill, align 8
    #dbg_declare(ptr %self.dbg.spill, !2482, !DIExpression(), !2484)
    #dbg_declare(ptr %self.dbg.spill, !2485, !DIExpression(), !2488)
  store ptr %subtracted, ptr %subtracted.dbg.spill, align 8
    #dbg_declare(ptr %subtracted.dbg.spill, !2483, !DIExpression(), !2490)
    #dbg_declare(ptr %subtracted.dbg.spill, !2485, !DIExpression(), !2491)
  store ptr %self, ptr %self.dbg.spill1, align 8, !dbg !2493
    #dbg_declare(ptr %self.dbg.spill1, !2494, !DIExpression(), !2500)
  store ptr %subtracted, ptr %origin.dbg.spill, align 8, !dbg !2502
    #dbg_declare(ptr %origin.dbg.spill, !2499, !DIExpression(), !2503)
    #dbg_declare(ptr %origin.dbg.spill, !2504, !DIExpression(), !2512)
  store ptr %self, ptr %self.dbg.spill2, align 8, !dbg !2514
    #dbg_declare(ptr %self.dbg.spill2, !2509, !DIExpression(), !2515)
  br label %bb2, !dbg !2516

bb2:                                              ; preds = %start
; call core::ptr::const_ptr::<impl *const T>::offset_from_unsigned::precondition_check
  call void @"_ZN4core3ptr9const_ptr33_$LT$impl$u20$$BP$const$u20$T$GT$20offset_from_unsigned18precondition_check17hb6cd2cf8ddcb3b7aE"(ptr %self, ptr %subtracted, ptr align 8 @alloc_f8be598209e2f834cf2d2b9cc4a8e7e5) #14, !dbg !2518
  br label %bb4, !dbg !2519

bb4:                                              ; preds = %bb2
  store i64 1, ptr %pointee_size.dbg.spill, align 8, !dbg !2520
    #dbg_declare(ptr %pointee_size.dbg.spill, !2510, !DIExpression(), !2527)
  br label %bb5, !dbg !2528

bb5:                                              ; preds = %bb4
  br label %bb6, !dbg !2529

bb6:                                              ; preds = %bb5
  %1 = ptrtoint ptr %self to i64, !dbg !2530
  %2 = ptrtoint ptr %subtracted to i64, !dbg !2530
  %3 = sub nuw i64 %1, %2, !dbg !2530
  %4 = udiv exact i64 %3, 1, !dbg !2530
  store i64 %4, ptr %0, align 8, !dbg !2530
  %_0 = load i64, ptr %0, align 8, !dbg !2530
  ret i64 %_0, !dbg !2531

bb7:                                              ; No predecessors!
; call core::panicking::panic
  call void @_ZN4core9panicking5panic17ha264d2bb233f2b69E(ptr align 1 @alloc_ec595fc0e82ef92fc59bd74f68296eae, i64 73, ptr align 8 @alloc_f8be598209e2f834cf2d2b9cc4a8e7e5) #15, !dbg !2532
  unreachable, !dbg !2532
}

; core::ptr::drop_in_place<dyn core::error::Error+core::marker::Sync+core::marker::Send>
; Function Attrs: nonlazybind uwtable
define internal void @"_ZN4core3ptr93drop_in_place$LT$dyn$u20$core..error..Error$u2b$core..marker..Sync$u2b$core..marker..Send$GT$17h8604cd8569e49952E"(ptr align 1 %_1.0, ptr align 8 %_1.1) unnamed_addr #1 !dbg !2533 {
start:
  %_1.dbg.spill = alloca [16 x i8], align 8
  store ptr %_1.0, ptr %_1.dbg.spill, align 8
  %0 = getelementptr inbounds i8, ptr %_1.dbg.spill, i64 8
  store ptr %_1.1, ptr %0, align 8
    #dbg_declare(ptr %_1.dbg.spill, !2541, !DIExpression(), !2544)
  %1 = getelementptr inbounds i8, ptr %_1.1, i64 0, !dbg !2544
  %2 = load ptr, ptr %1, align 8, !dbg !2544, !invariant.load !23
  %3 = icmp ne ptr %2, null, !dbg !2544
  br i1 %3, label %is_not_null, label %bb1, !dbg !2544

is_not_null:                                      ; preds = %start
  call void %2(ptr %_1.0), !dbg !2544
  br label %bb1, !dbg !2544

bb1:                                              ; preds = %is_not_null, %start
  ret void, !dbg !2544
}

; core::ptr::const_ptr::<impl *const T>::offset_from_unsigned::precondition_check
; Function Attrs: inlinehint nounwind nonlazybind uwtable
define internal void @"_ZN4core3ptr9const_ptr33_$LT$impl$u20$$BP$const$u20$T$GT$20offset_from_unsigned18precondition_check17hb6cd2cf8ddcb3b7aE"(ptr %this, ptr %origin, ptr align 8 %0) unnamed_addr #4 !dbg !2545 {
start:
  %pieces.dbg.spill = alloca [8 x i8], align 8
  %msg.dbg.spill = alloca [16 x i8], align 8
  %origin.dbg.spill = alloca [8 x i8], align 8
  %this.dbg.spill = alloca [8 x i8], align 8
  %_7 = alloca [16 x i8], align 8
  %_5 = alloca [48 x i8], align 8
  store ptr %this, ptr %this.dbg.spill, align 8
    #dbg_declare(ptr %this.dbg.spill, !2550, !DIExpression(), !2554)
    #dbg_declare(ptr %this.dbg.spill, !2555, !DIExpression(), !2561)
  store ptr %origin, ptr %origin.dbg.spill, align 8
    #dbg_declare(ptr %origin.dbg.spill, !2551, !DIExpression(), !2554)
    #dbg_declare(ptr %origin.dbg.spill, !2560, !DIExpression(), !2564)
  store ptr @alloc_de4e626d456b04760e72bc785ed7e52a, ptr %msg.dbg.spill, align 8, !dbg !2565
  %1 = getelementptr inbounds i8, ptr %msg.dbg.spill, i64 8, !dbg !2565
  store i64 201, ptr %1, align 8, !dbg !2565
    #dbg_declare(ptr %msg.dbg.spill, !2552, !DIExpression(), !2565)
  %_3 = icmp uge ptr %this, %origin, !dbg !2566
  br i1 %_3, label %bb1, label %bb2, !dbg !2562

bb2:                                              ; preds = %start
  %2 = getelementptr inbounds nuw { ptr, i64 }, ptr %_7, i64 0, !dbg !2572
  store ptr @alloc_de4e626d456b04760e72bc785ed7e52a, ptr %2, align 8, !dbg !2572
  %3 = getelementptr inbounds i8, ptr %2, i64 8, !dbg !2572
  store i64 201, ptr %3, align 8, !dbg !2572
  store ptr %_7, ptr %pieces.dbg.spill, align 8, !dbg !2573
    #dbg_declare(ptr %pieces.dbg.spill, !2574, !DIExpression(), !2577)
  store ptr %_7, ptr %_5, align 8, !dbg !2579
  %4 = getelementptr inbounds i8, ptr %_5, i64 8, !dbg !2579
  store i64 1, ptr %4, align 8, !dbg !2579
  %5 = load ptr, ptr @anon.12ea5d96d0290b8ba80fa83f0d160b84.1, align 8, !dbg !2579
  %6 = load i64, ptr getelementptr inbounds (i8, ptr @anon.12ea5d96d0290b8ba80fa83f0d160b84.1, i64 8), align 8, !dbg !2579
  %7 = getelementptr inbounds i8, ptr %_5, i64 32, !dbg !2579
  store ptr %5, ptr %7, align 8, !dbg !2579
  %8 = getelementptr inbounds i8, ptr %7, i64 8, !dbg !2579
  store i64 %6, ptr %8, align 8, !dbg !2579
  %9 = getelementptr inbounds i8, ptr %_5, i64 16, !dbg !2579
  store ptr inttoptr (i64 8 to ptr), ptr %9, align 8, !dbg !2579
  %10 = getelementptr inbounds i8, ptr %9, i64 8, !dbg !2579
  store i64 0, ptr %10, align 8, !dbg !2579
; call core::panicking::panic_nounwind_fmt
  call void @_ZN4core9panicking18panic_nounwind_fmt17h622822847ebd61beE(ptr align 8 %_5, i1 zeroext false, ptr align 8 %0) #16, !dbg !2580
  unreachable, !dbg !2580

bb1:                                              ; preds = %start
  ret void, !dbg !2581
}

; core::str::validations::next_code_point
; Function Attrs: inlinehint nonlazybind uwtable
define internal { i32, i32 } @_ZN4core3str11validations15next_code_point17h3af2560e5bc12f71E(ptr align 8 %bytes) unnamed_addr #0 !dbg !2582 {
start:
  %w.dbg.spill = alloca [1 x i8], align 1
  %val.dbg.spill10 = alloca [8 x i8], align 8
  %y_z.dbg.spill = alloca [4 x i8], align 4
  %ch.dbg.spill = alloca [4 x i8], align 4
  %z.dbg.spill = alloca [1 x i8], align 1
  %val.dbg.spill7 = alloca [8 x i8], align 8
  %y.dbg.spill = alloca [1 x i8], align 1
  %val.dbg.spill5 = alloca [8 x i8], align 8
  %init.dbg.spill = alloca [4 x i8], align 4
  %x.dbg.spill = alloca [1 x i8], align 1
  %val.dbg.spill = alloca [8 x i8], align 8
  %v.dbg.spill = alloca [8 x i8], align 8
  %width.dbg.spill = alloca [4 x i8], align 4
  %residual.dbg.spill = alloca [0 x i8], align 1
  %bytes.dbg.spill = alloca [8 x i8], align 8
  %self3 = alloca [8 x i8], align 8
  %self2 = alloca [8 x i8], align 8
  %ch = alloca [4 x i8], align 4
  %self1 = alloca [8 x i8], align 8
  %self = alloca [8 x i8], align 8
  %_3 = alloca [8 x i8], align 8
  %_0 = alloca [8 x i8], align 4
  store ptr %bytes, ptr %bytes.dbg.spill, align 8
    #dbg_declare(ptr %bytes.dbg.spill, !2588, !DIExpression(), !2625)
    #dbg_declare(ptr %self, !2626, !DIExpression(), !2651)
    #dbg_declare(ptr %self1, !2653, !DIExpression(), !2665)
    #dbg_declare(ptr %ch, !2615, !DIExpression(), !2667)
    #dbg_declare(ptr %self2, !2653, !DIExpression(), !2668)
    #dbg_declare(ptr %self3, !2653, !DIExpression(), !2670)
    #dbg_declare(ptr %residual.dbg.spill, !2591, !DIExpression(), !2672)
  store i32 2, ptr %width.dbg.spill, align 4, !dbg !2673
    #dbg_declare(ptr %width.dbg.spill, !2679, !DIExpression(), !2673)
; call <core::slice::iter::Iter<T> as core::iter::traits::iterator::Iterator>::next
  %0 = call align 1 ptr @"_ZN91_$LT$core..slice..iter..Iter$LT$T$GT$$u20$as$u20$core..iter..traits..iterator..Iterator$GT$4next17h570a5afad9859359E"(ptr align 8 %bytes), !dbg !2681
  store ptr %0, ptr %self, align 8, !dbg !2681
  %1 = load ptr, ptr %self, align 8, !dbg !2682
  %2 = ptrtoint ptr %1 to i64, !dbg !2682
  %3 = icmp eq i64 %2, 0, !dbg !2682
  %_29 = select i1 %3, i64 0, i64 1, !dbg !2682
  %4 = trunc nuw i64 %_29 to i1, !dbg !2683
  br i1 %4, label %bb14, label %bb13, !dbg !2683

bb14:                                             ; preds = %start
  %v = load ptr, ptr %self, align 8, !dbg !2684
  store ptr %v, ptr %v.dbg.spill, align 8, !dbg !2684
    #dbg_declare(ptr %v.dbg.spill, !2649, !DIExpression(), !2685)
  store ptr %v, ptr %_3, align 8, !dbg !2686
  %val = load ptr, ptr %_3, align 8, !dbg !2652
  store ptr %val, ptr %val.dbg.spill, align 8, !dbg !2652
    #dbg_declare(ptr %val.dbg.spill, !2609, !DIExpression(), !2687)
  %x = load i8, ptr %val, align 1, !dbg !2688
  store i8 %x, ptr %x.dbg.spill, align 1, !dbg !2688
    #dbg_declare(ptr %x.dbg.spill, !2589, !DIExpression(), !2689)
    #dbg_declare(ptr %x.dbg.spill, !2678, !DIExpression(), !2690)
  %_6 = icmp ult i8 %x, -128, !dbg !2691
  br i1 %_6, label %bb3, label %bb4, !dbg !2691

bb13:                                             ; preds = %start
  %5 = load i32, ptr @anon.12ea5d96d0290b8ba80fa83f0d160b84.2, align 4, !dbg !2692
  %6 = load i32, ptr getelementptr inbounds (i8, ptr @anon.12ea5d96d0290b8ba80fa83f0d160b84.2, i64 4), align 4, !dbg !2692
  store i32 %5, ptr %_0, align 4, !dbg !2692
  %7 = getelementptr inbounds i8, ptr %_0, i64 4, !dbg !2692
  store i32 %6, ptr %7, align 4, !dbg !2692
  br label %bb12, !dbg !2699

bb12:                                             ; preds = %bb3, %bb11, %bb13
  %8 = load i32, ptr %_0, align 4, !dbg !2701
  %9 = getelementptr inbounds i8, ptr %_0, i64 4, !dbg !2701
  %10 = load i32, ptr %9, align 4, !dbg !2701
  %11 = insertvalue { i32, i32 } poison, i32 %8, 0, !dbg !2701
  %12 = insertvalue { i32, i32 } %11, i32 %10, 1, !dbg !2701
  ret { i32, i32 } %12, !dbg !2701

bb4:                                              ; preds = %bb14
  %_31 = and i8 %x, 31, !dbg !2702
  %init = zext i8 %_31 to i32, !dbg !2702
  store i32 %init, ptr %init.dbg.spill, align 4, !dbg !2702
    #dbg_declare(ptr %init.dbg.spill, !2611, !DIExpression(), !2703)
    #dbg_declare(ptr %init.dbg.spill, !2704, !DIExpression(), !2710)
; call <core::slice::iter::Iter<T> as core::iter::traits::iterator::Iterator>::next
  %13 = call align 1 ptr @"_ZN91_$LT$core..slice..iter..Iter$LT$T$GT$$u20$as$u20$core..iter..traits..iterator..Iterator$GT$4next17h570a5afad9859359E"(ptr align 8 %bytes), !dbg !2712
  store ptr %13, ptr %self1, align 8, !dbg !2712
  %14 = load ptr, ptr %self1, align 8, !dbg !2713
  %15 = ptrtoint ptr %14 to i64, !dbg !2713
  %16 = icmp eq i64 %15, 0, !dbg !2713
  %_32 = select i1 %16, i64 0, i64 1, !dbg !2713
  %17 = trunc nuw i64 %_32 to i1, !dbg !2714
  br i1 %17, label %bb16, label %bb15, !dbg !2714

bb3:                                              ; preds = %bb14
  %_7 = zext i8 %x to i32, !dbg !2715
  %18 = getelementptr inbounds i8, ptr %_0, i64 4, !dbg !2716
  store i32 %_7, ptr %18, align 4, !dbg !2716
  store i32 1, ptr %_0, align 4, !dbg !2716
  br label %bb12, !dbg !2717

bb16:                                             ; preds = %bb4
  %val4 = load ptr, ptr %self1, align 8, !dbg !2719
  store ptr %val4, ptr %val.dbg.spill5, align 8, !dbg !2719
    #dbg_declare(ptr %val.dbg.spill5, !2659, !DIExpression(), !2720)
  %y = load i8, ptr %val4, align 1, !dbg !2721
  store i8 %y, ptr %y.dbg.spill, align 1, !dbg !2721
    #dbg_declare(ptr %y.dbg.spill, !2613, !DIExpression(), !2722)
    #dbg_declare(ptr %y.dbg.spill, !2709, !DIExpression(), !2723)
  %_35 = shl i32 %init, 6, !dbg !2724
  %_37 = and i8 %y, 63, !dbg !2725
  %_36 = zext i8 %_37 to i32, !dbg !2725
  %19 = or i32 %_35, %_36, !dbg !2724
  store i32 %19, ptr %ch, align 4, !dbg !2724
  %_13 = icmp uge i8 %x, -32, !dbg !2726
  br i1 %_13, label %bb6, label %bb11, !dbg !2726

bb15:                                             ; preds = %bb4
; call core::hint::unreachable_unchecked::precondition_check
  call void @_ZN4core4hint21unreachable_unchecked18precondition_check17hdb618c50f39e3637E(ptr align 8 @alloc_529b6025d83b9ebb0e57fdfa1395d046) #14, !dbg !2727
  br label %bb2, !dbg !2727

bb2:                                              ; preds = %bb19, %bb17, %bb15
  unreachable, !dbg !2699

bb11:                                             ; preds = %bb10, %bb16
  %_28 = load i32, ptr %ch, align 4, !dbg !2731
  %20 = getelementptr inbounds i8, ptr %_0, i64 4, !dbg !2732
  store i32 %_28, ptr %20, align 4, !dbg !2732
  store i32 1, ptr %_0, align 4, !dbg !2732
  br label %bb12, !dbg !2701

bb6:                                              ; preds = %bb16
; call <core::slice::iter::Iter<T> as core::iter::traits::iterator::Iterator>::next
  %21 = call align 1 ptr @"_ZN91_$LT$core..slice..iter..Iter$LT$T$GT$$u20$as$u20$core..iter..traits..iterator..Iterator$GT$4next17h570a5afad9859359E"(ptr align 8 %bytes), !dbg !2733
  store ptr %21, ptr %self2, align 8, !dbg !2733
  %22 = load ptr, ptr %self2, align 8, !dbg !2734
  %23 = ptrtoint ptr %22 to i64, !dbg !2734
  %24 = icmp eq i64 %23, 0, !dbg !2734
  %_38 = select i1 %24, i64 0, i64 1, !dbg !2734
  %25 = trunc nuw i64 %_38 to i1, !dbg !2735
  br i1 %25, label %bb18, label %bb17, !dbg !2735

bb18:                                             ; preds = %bb6
  %val6 = load ptr, ptr %self2, align 8, !dbg !2736
  store ptr %val6, ptr %val.dbg.spill7, align 8, !dbg !2736
    #dbg_declare(ptr %val.dbg.spill7, !2661, !DIExpression(), !2737)
  %z = load i8, ptr %val6, align 1, !dbg !2738
  store i8 %z, ptr %z.dbg.spill, align 1, !dbg !2738
    #dbg_declare(ptr %z.dbg.spill, !2617, !DIExpression(), !2739)
    #dbg_declare(ptr %z.dbg.spill, !2709, !DIExpression(), !2740)
  %_19 = and i8 %y, 63, !dbg !2742
  %ch8 = zext i8 %_19 to i32, !dbg !2742
  store i32 %ch8, ptr %ch.dbg.spill, align 4, !dbg !2742
    #dbg_declare(ptr %ch.dbg.spill, !2704, !DIExpression(), !2743)
  %_41 = shl i32 %ch8, 6, !dbg !2744
  %_43 = and i8 %z, 63, !dbg !2745
  %_42 = zext i8 %_43 to i32, !dbg !2745
  %y_z = or i32 %_41, %_42, !dbg !2744
  store i32 %y_z, ptr %y_z.dbg.spill, align 4, !dbg !2744
    #dbg_declare(ptr %y_z.dbg.spill, !2619, !DIExpression(), !2746)
    #dbg_declare(ptr %y_z.dbg.spill, !2704, !DIExpression(), !2747)
  %_20 = shl i32 %init, 12, !dbg !2749
  %26 = or i32 %_20, %y_z, !dbg !2750
  store i32 %26, ptr %ch, align 4, !dbg !2750
  %_21 = icmp uge i8 %x, -16, !dbg !2751
  br i1 %_21, label %bb8, label %bb10, !dbg !2751

bb17:                                             ; preds = %bb6
; call core::hint::unreachable_unchecked::precondition_check
  call void @_ZN4core4hint21unreachable_unchecked18precondition_check17hdb618c50f39e3637E(ptr align 8 @alloc_7f873a0e7c47e0ef63cb2a1c0771ddcd) #14, !dbg !2752
  br label %bb2, !dbg !2752

bb10:                                             ; preds = %bb20, %bb18
  br label %bb11, !dbg !2755

bb8:                                              ; preds = %bb18
; call <core::slice::iter::Iter<T> as core::iter::traits::iterator::Iterator>::next
  %27 = call align 1 ptr @"_ZN91_$LT$core..slice..iter..Iter$LT$T$GT$$u20$as$u20$core..iter..traits..iterator..Iterator$GT$4next17h570a5afad9859359E"(ptr align 8 %bytes), !dbg !2756
  store ptr %27, ptr %self3, align 8, !dbg !2756
  %28 = load ptr, ptr %self3, align 8, !dbg !2757
  %29 = ptrtoint ptr %28 to i64, !dbg !2757
  %30 = icmp eq i64 %29, 0, !dbg !2757
  %_44 = select i1 %30, i64 0, i64 1, !dbg !2757
  %31 = trunc nuw i64 %_44 to i1, !dbg !2758
  br i1 %31, label %bb20, label %bb19, !dbg !2758

bb20:                                             ; preds = %bb8
  %val9 = load ptr, ptr %self3, align 8, !dbg !2759
  store ptr %val9, ptr %val.dbg.spill10, align 8, !dbg !2759
    #dbg_declare(ptr %val.dbg.spill10, !2663, !DIExpression(), !2760)
  %w = load i8, ptr %val9, align 1, !dbg !2761
  store i8 %w, ptr %w.dbg.spill, align 1, !dbg !2761
    #dbg_declare(ptr %w.dbg.spill, !2621, !DIExpression(), !2762)
    #dbg_declare(ptr %w.dbg.spill, !2709, !DIExpression(), !2763)
  %_26 = and i32 %init, 7, !dbg !2764
  %_25 = shl i32 %_26, 18, !dbg !2764
  %_47 = shl i32 %y_z, 6, !dbg !2765
  %_49 = and i8 %w, 63, !dbg !2766
  %_48 = zext i8 %_49 to i32, !dbg !2766
  %_27 = or i32 %_47, %_48, !dbg !2765
  %32 = or i32 %_25, %_27, !dbg !2767
  store i32 %32, ptr %ch, align 4, !dbg !2767
  br label %bb10, !dbg !2768

bb19:                                             ; preds = %bb8
; call core::hint::unreachable_unchecked::precondition_check
  call void @_ZN4core4hint21unreachable_unchecked18precondition_check17hdb618c50f39e3637E(ptr align 8 @alloc_5b1ece176c586484ef2b256193cf7173) #14, !dbg !2769
  br label %bb2, !dbg !2769
}

; core::str::validations::next_code_point_reverse
; Function Attrs: inlinehint nonlazybind uwtable
define internal { i32, i32 } @_ZN4core3str11validations23next_code_point_reverse17h4a6990dea14afee7E(ptr align 8 %bytes) unnamed_addr #0 !dbg !2772 {
start:
  %next_byte.dbg.spill = alloca [1 x i8], align 1
  %ch.dbg.spill16 = alloca [4 x i8], align 4
  %ch.dbg.spill14 = alloca [4 x i8], align 4
  %ch.dbg.spill = alloca [4 x i8], align 4
  %x.dbg.spill = alloca [1 x i8], align 1
  %val.dbg.spill11 = alloca [8 x i8], align 8
  %y.dbg.spill = alloca [1 x i8], align 1
  %val.dbg.spill9 = alloca [8 x i8], align 8
  %z.dbg.spill = alloca [1 x i8], align 1
  %val.dbg.spill7 = alloca [8 x i8], align 8
  %w.dbg.spill = alloca [1 x i8], align 1
  %val.dbg.spill = alloca [8 x i8], align 8
  %v.dbg.spill = alloca [8 x i8], align 8
  %width.dbg.spill5 = alloca [4 x i8], align 4
  %width.dbg.spill4 = alloca [4 x i8], align 4
  %width.dbg.spill = alloca [4 x i8], align 4
  %residual.dbg.spill = alloca [0 x i8], align 1
  %bytes.dbg.spill = alloca [8 x i8], align 8
  %self3 = alloca [8 x i8], align 8
  %self2 = alloca [8 x i8], align 8
  %self1 = alloca [8 x i8], align 8
  %ch = alloca [4 x i8], align 4
  %self = alloca [8 x i8], align 8
  %_2 = alloca [8 x i8], align 8
  %_0 = alloca [8 x i8], align 4
  store ptr %bytes, ptr %bytes.dbg.spill, align 8
    #dbg_declare(ptr %bytes.dbg.spill, !2774, !DIExpression(), !2794)
    #dbg_declare(ptr %self, !2795, !DIExpression(), !2800)
    #dbg_declare(ptr %ch, !2786, !DIExpression(), !2802)
    #dbg_declare(ptr %self1, !2803, !DIExpression(), !2812)
    #dbg_declare(ptr %self2, !2803, !DIExpression(), !2814)
    #dbg_declare(ptr %self3, !2803, !DIExpression(), !2816)
    #dbg_declare(ptr %residual.dbg.spill, !2777, !DIExpression(), !2818)
  store i32 2, ptr %width.dbg.spill, align 4, !dbg !2819
    #dbg_declare(ptr %width.dbg.spill, !2823, !DIExpression(), !2819)
  store i32 3, ptr %width.dbg.spill4, align 4, !dbg !2825
    #dbg_declare(ptr %width.dbg.spill4, !2823, !DIExpression(), !2825)
  store i32 4, ptr %width.dbg.spill5, align 4, !dbg !2827
    #dbg_declare(ptr %width.dbg.spill5, !2823, !DIExpression(), !2827)
; call <core::slice::iter::Iter<T> as core::iter::traits::double_ended::DoubleEndedIterator>::next_back
  %0 = call align 1 ptr @"_ZN106_$LT$core..slice..iter..Iter$LT$T$GT$$u20$as$u20$core..iter..traits..double_ended..DoubleEndedIterator$GT$9next_back17h1d2e7f84831db424E"(ptr align 8 %bytes), !dbg !2829
  store ptr %0, ptr %self, align 8, !dbg !2829
  %1 = load ptr, ptr %self, align 8, !dbg !2830
  %2 = ptrtoint ptr %1 to i64, !dbg !2830
  %3 = icmp eq i64 %2, 0, !dbg !2830
  %_31 = select i1 %3, i64 0, i64 1, !dbg !2830
  %4 = trunc nuw i64 %_31 to i1, !dbg !2831
  br i1 %4, label %bb17, label %bb16, !dbg !2831

bb17:                                             ; preds = %start
  %v = load ptr, ptr %self, align 8, !dbg !2832
  store ptr %v, ptr %v.dbg.spill, align 8, !dbg !2832
    #dbg_declare(ptr %v.dbg.spill, !2798, !DIExpression(), !2833)
  store ptr %v, ptr %_2, align 8, !dbg !2834
  %val = load ptr, ptr %_2, align 8, !dbg !2801
  store ptr %val, ptr %val.dbg.spill, align 8, !dbg !2801
    #dbg_declare(ptr %val.dbg.spill, !2779, !DIExpression(), !2835)
    #dbg_declare(ptr %val.dbg.spill, !2783, !DIExpression(), !2836)
  %w = load i8, ptr %val, align 1, !dbg !2837
  store i8 %w, ptr %w.dbg.spill, align 1, !dbg !2837
    #dbg_declare(ptr %w.dbg.spill, !2775, !DIExpression(), !2838)
    #dbg_declare(ptr %w.dbg.spill, !2784, !DIExpression(), !2839)
    #dbg_declare(ptr %w.dbg.spill, !2840, !DIExpression(), !2844)
  %_6 = icmp ult i8 %w, -128, !dbg !2837
  br i1 %_6, label %bb3, label %bb4, !dbg !2837

bb16:                                             ; preds = %start
  %5 = load i32, ptr @anon.12ea5d96d0290b8ba80fa83f0d160b84.2, align 4, !dbg !2846
  %6 = load i32, ptr getelementptr inbounds (i8, ptr @anon.12ea5d96d0290b8ba80fa83f0d160b84.2, i64 4), align 4, !dbg !2846
  store i32 %5, ptr %_0, align 4, !dbg !2846
  %7 = getelementptr inbounds i8, ptr %_0, i64 4, !dbg !2846
  store i32 %6, ptr %7, align 4, !dbg !2846
  br label %bb14, !dbg !2850

bb14:                                             ; preds = %bb3, %bb16
  br label %bb15, !dbg !2852

bb4:                                              ; preds = %bb17
; call <core::slice::iter::Iter<T> as core::iter::traits::double_ended::DoubleEndedIterator>::next_back
  %8 = call align 1 ptr @"_ZN106_$LT$core..slice..iter..Iter$LT$T$GT$$u20$as$u20$core..iter..traits..double_ended..DoubleEndedIterator$GT$9next_back17h1d2e7f84831db424E"(ptr align 8 %bytes), !dbg !2853
  store ptr %8, ptr %self1, align 8, !dbg !2853
  %9 = load ptr, ptr %self1, align 8, !dbg !2854
  %10 = ptrtoint ptr %9 to i64, !dbg !2854
  %11 = icmp eq i64 %10, 0, !dbg !2854
  %_33 = select i1 %11, i64 0, i64 1, !dbg !2854
  %12 = trunc nuw i64 %_33 to i1, !dbg !2855
  br i1 %12, label %bb19, label %bb18, !dbg !2855

bb3:                                              ; preds = %bb17
  %next_byte = load i8, ptr %val, align 1, !dbg !2856
  store i8 %next_byte, ptr %next_byte.dbg.spill, align 1, !dbg !2856
    #dbg_declare(ptr %next_byte.dbg.spill, !2781, !DIExpression(), !2836)
  %_8 = zext i8 %next_byte to i32, !dbg !2857
  %13 = getelementptr inbounds i8, ptr %_0, i64 4, !dbg !2858
  store i32 %_8, ptr %13, align 4, !dbg !2858
  store i32 1, ptr %_0, align 4, !dbg !2858
  br label %bb14, !dbg !2850

bb19:                                             ; preds = %bb4
  %val6 = load ptr, ptr %self1, align 8, !dbg !2859
  store ptr %val6, ptr %val.dbg.spill7, align 8, !dbg !2859
    #dbg_declare(ptr %val.dbg.spill7, !2806, !DIExpression(), !2860)
  %z = load i8, ptr %val6, align 1, !dbg !2861
  store i8 %z, ptr %z.dbg.spill, align 1, !dbg !2861
    #dbg_declare(ptr %z.dbg.spill, !2788, !DIExpression(), !2862)
    #dbg_declare(ptr %z.dbg.spill, !2822, !DIExpression(), !2863)
    #dbg_declare(ptr %z.dbg.spill, !2864, !DIExpression(), !2869)
    #dbg_declare(ptr %z.dbg.spill, !2840, !DIExpression(), !2871)
  %_36 = and i8 %z, 31, !dbg !2873
  %_13 = zext i8 %_36 to i32, !dbg !2873
  store i32 %_13, ptr %ch, align 4, !dbg !2874
  %_14 = icmp slt i8 %z, -64, !dbg !2875
  br i1 %_14, label %bb6, label %bb12, !dbg !2870

bb18:                                             ; preds = %bb4
; call core::hint::unreachable_unchecked::precondition_check
  call void @_ZN4core4hint21unreachable_unchecked18precondition_check17hdb618c50f39e3637E(ptr align 8 @alloc_d35d46144934c9827c8be2c636a8f370) #14, !dbg !2876
  br label %bb2, !dbg !2876

bb2:                                              ; preds = %bb22, %bb20, %bb18
  unreachable, !dbg !2850

bb12:                                             ; preds = %bb19
  br label %bb13, !dbg !2880

bb6:                                              ; preds = %bb19
; call <core::slice::iter::Iter<T> as core::iter::traits::double_ended::DoubleEndedIterator>::next_back
  %14 = call align 1 ptr @"_ZN106_$LT$core..slice..iter..Iter$LT$T$GT$$u20$as$u20$core..iter..traits..double_ended..DoubleEndedIterator$GT$9next_back17h1d2e7f84831db424E"(ptr align 8 %bytes), !dbg !2881
  store ptr %14, ptr %self2, align 8, !dbg !2881
  %15 = load ptr, ptr %self2, align 8, !dbg !2882
  %16 = ptrtoint ptr %15 to i64, !dbg !2882
  %17 = icmp eq i64 %16, 0, !dbg !2882
  %_38 = select i1 %17, i64 0, i64 1, !dbg !2882
  %18 = trunc nuw i64 %_38 to i1, !dbg !2883
  br i1 %18, label %bb21, label %bb20, !dbg !2883

bb13:                                             ; preds = %bb11, %bb12
  %ch15 = load i32, ptr %ch, align 4, !dbg !2884
  store i32 %ch15, ptr %ch.dbg.spill16, align 4, !dbg !2884
    #dbg_declare(ptr %ch.dbg.spill16, !2843, !DIExpression(), !2885)
  %_53 = shl i32 %ch15, 6, !dbg !2886
  %_55 = and i8 %w, 63, !dbg !2887
  %_54 = zext i8 %_55 to i32, !dbg !2887
  %_28 = or i32 %_53, %_54, !dbg !2886
  store i32 %_28, ptr %ch, align 4, !dbg !2888
  %_30 = load i32, ptr %ch, align 4, !dbg !2889
  %19 = getelementptr inbounds i8, ptr %_0, i64 4, !dbg !2890
  store i32 %_30, ptr %19, align 4, !dbg !2890
  store i32 1, ptr %_0, align 4, !dbg !2890
  br label %bb15, !dbg !2852

bb21:                                             ; preds = %bb6
  %val8 = load ptr, ptr %self2, align 8, !dbg !2891
  store ptr %val8, ptr %val.dbg.spill9, align 8, !dbg !2891
    #dbg_declare(ptr %val.dbg.spill9, !2808, !DIExpression(), !2892)
  %y = load i8, ptr %val8, align 1, !dbg !2893
  store i8 %y, ptr %y.dbg.spill, align 1, !dbg !2893
    #dbg_declare(ptr %y.dbg.spill, !2790, !DIExpression(), !2894)
    #dbg_declare(ptr %y.dbg.spill, !2822, !DIExpression(), !2895)
    #dbg_declare(ptr %y.dbg.spill, !2864, !DIExpression(), !2896)
    #dbg_declare(ptr %y.dbg.spill, !2840, !DIExpression(), !2898)
  %_41 = and i8 %y, 15, !dbg !2900
  %_18 = zext i8 %_41 to i32, !dbg !2900
  store i32 %_18, ptr %ch, align 4, !dbg !2901
  %_19 = icmp slt i8 %y, -64, !dbg !2902
  br i1 %_19, label %bb8, label %bb10, !dbg !2897

bb20:                                             ; preds = %bb6
; call core::hint::unreachable_unchecked::precondition_check
  call void @_ZN4core4hint21unreachable_unchecked18precondition_check17hdb618c50f39e3637E(ptr align 8 @alloc_665d5d661668e66e88a8de838b13b717) #14, !dbg !2903
  br label %bb2, !dbg !2903

bb10:                                             ; preds = %bb21
  br label %bb11, !dbg !2906

bb8:                                              ; preds = %bb21
; call <core::slice::iter::Iter<T> as core::iter::traits::double_ended::DoubleEndedIterator>::next_back
  %20 = call align 1 ptr @"_ZN106_$LT$core..slice..iter..Iter$LT$T$GT$$u20$as$u20$core..iter..traits..double_ended..DoubleEndedIterator$GT$9next_back17h1d2e7f84831db424E"(ptr align 8 %bytes), !dbg !2907
  store ptr %20, ptr %self3, align 8, !dbg !2907
  %21 = load ptr, ptr %self3, align 8, !dbg !2908
  %22 = ptrtoint ptr %21 to i64, !dbg !2908
  %23 = icmp eq i64 %22, 0, !dbg !2908
  %_43 = select i1 %23, i64 0, i64 1, !dbg !2908
  %24 = trunc nuw i64 %_43 to i1, !dbg !2909
  br i1 %24, label %bb23, label %bb22, !dbg !2909

bb11:                                             ; preds = %bb23, %bb10
  %ch13 = load i32, ptr %ch, align 4, !dbg !2910
  store i32 %ch13, ptr %ch.dbg.spill14, align 4, !dbg !2910
    #dbg_declare(ptr %ch.dbg.spill14, !2843, !DIExpression(), !2911)
  %_50 = shl i32 %ch13, 6, !dbg !2912
  %_52 = and i8 %z, 63, !dbg !2913
  %_51 = zext i8 %_52 to i32, !dbg !2913
  %_26 = or i32 %_50, %_51, !dbg !2912
  store i32 %_26, ptr %ch, align 4, !dbg !2914
  br label %bb13, !dbg !2880

bb23:                                             ; preds = %bb8
  %val10 = load ptr, ptr %self3, align 8, !dbg !2915
  store ptr %val10, ptr %val.dbg.spill11, align 8, !dbg !2915
    #dbg_declare(ptr %val.dbg.spill11, !2810, !DIExpression(), !2916)
  %x = load i8, ptr %val10, align 1, !dbg !2917
  store i8 %x, ptr %x.dbg.spill, align 1, !dbg !2917
    #dbg_declare(ptr %x.dbg.spill, !2792, !DIExpression(), !2918)
    #dbg_declare(ptr %x.dbg.spill, !2822, !DIExpression(), !2919)
  %_46 = and i8 %x, 7, !dbg !2920
  %_23 = zext i8 %_46 to i32, !dbg !2920
  store i32 %_23, ptr %ch, align 4, !dbg !2921
  %ch12 = load i32, ptr %ch, align 4, !dbg !2922
  store i32 %ch12, ptr %ch.dbg.spill, align 4, !dbg !2922
    #dbg_declare(ptr %ch.dbg.spill, !2843, !DIExpression(), !2923)
  %_47 = shl i32 %ch12, 6, !dbg !2924
  %_49 = and i8 %y, 63, !dbg !2925
  %_48 = zext i8 %_49 to i32, !dbg !2925
  %_24 = or i32 %_47, %_48, !dbg !2924
  store i32 %_24, ptr %ch, align 4, !dbg !2926
  br label %bb11, !dbg !2906

bb22:                                             ; preds = %bb8
; call core::hint::unreachable_unchecked::precondition_check
  call void @_ZN4core4hint21unreachable_unchecked18precondition_check17hdb618c50f39e3637E(ptr align 8 @alloc_5ed187e3efe0ef0d2eaa93b916f4b9e6) #14, !dbg !2927
  br label %bb2, !dbg !2927

bb15:                                             ; preds = %bb14, %bb13
  %25 = load i32, ptr %_0, align 4, !dbg !2852
  %26 = getelementptr inbounds i8, ptr %_0, i64 4, !dbg !2852
  %27 = load i32, ptr %26, align 4, !dbg !2852
  %28 = insertvalue { i32, i32 } poison, i32 %25, 0, !dbg !2852
  %29 = insertvalue { i32, i32 } %28, i32 %27, 1, !dbg !2852
  ret { i32, i32 } %29, !dbg !2852
}

; core::str::<impl str>::trim_matches
; Function Attrs: nonlazybind uwtable
define internal { ptr, i64 } @"_ZN4core3str21_$LT$impl$u20$str$GT$12trim_matches17h6e1b573db34337eeE"(ptr align 1 %self.0, i64 %self.1) unnamed_addr #1 personality ptr @rust_eh_personality !dbg !2930 {
start:
  %data.dbg.spill = alloca [8 x i8], align 8
  %self.dbg.spill6 = alloca [8 x i8], align 8
  %new_len.dbg.spill = alloca [8 x i8], align 8
  %slice.dbg.spill = alloca [16 x i8], align 8
  %i.dbg.spill5 = alloca [8 x i8], align 8
  %i.dbg.spill = alloca [8 x i8], align 8
  %b.dbg.spill2 = alloca [8 x i8], align 8
  %b.dbg.spill = alloca [8 x i8], align 8
  %a.dbg.spill = alloca [8 x i8], align 8
  %0 = alloca [16 x i8], align 8
  %pat.dbg.spill = alloca [0 x i8], align 1
  %self.dbg.spill = alloca [16 x i8], align 8
  %_11 = alloca [24 x i8], align 8
  %_6 = alloca [24 x i8], align 8
  %matcher = alloca [40 x i8], align 8
  %j = alloca [8 x i8], align 8
  %i = alloca [8 x i8], align 8
  store ptr %self.0, ptr %self.dbg.spill, align 8
  %1 = getelementptr inbounds i8, ptr %self.dbg.spill, i64 8
  store i64 %self.1, ptr %1, align 8
    #dbg_declare(ptr %self.dbg.spill, !2934, !DIExpression(), !2949)
    #dbg_declare(ptr %self.dbg.spill, !2950, !DIExpression(), !2965)
    #dbg_declare(ptr %self.dbg.spill, !2967, !DIExpression(), !2984)
    #dbg_declare(ptr %pat.dbg.spill, !2935, !DIExpression(), !2986)
    #dbg_declare(ptr %i, !2936, !DIExpression(), !2987)
    #dbg_declare(ptr %j, !2938, !DIExpression(), !2988)
    #dbg_declare(ptr %matcher, !2940, !DIExpression(), !2989)
  store i64 0, ptr %i, align 8, !dbg !2990
  store i64 0, ptr %j, align 8, !dbg !2991
; call <F as core::str::pattern::Pattern>::into_searcher
  call void @"_ZN49_$LT$F$u20$as$u20$core..str..pattern..Pattern$GT$13into_searcher17haf3a352f2ab71a16E"(ptr sret([40 x i8]) align 8 %matcher, ptr align 1 %self.0, i64 %self.1), !dbg !2992
; invoke <core::str::pattern::CharPredicateSearcher<F> as core::str::pattern::Searcher>::next_reject
  invoke void @"_ZN99_$LT$core..str..pattern..CharPredicateSearcher$LT$F$GT$$u20$as$u20$core..str..pattern..Searcher$GT$11next_reject17he6b91cd90db4aa14E"(ptr sret([24 x i8]) align 8 %_6, ptr align 8 %matcher)
          to label %bb2 unwind label %cleanup, !dbg !2993

bb11:                                             ; preds = %cleanup
  %2 = load ptr, ptr %0, align 8, !dbg !2994
  %3 = getelementptr inbounds i8, ptr %0, i64 8, !dbg !2994
  %4 = load i32, ptr %3, align 8, !dbg !2994
  %5 = insertvalue { ptr, i32 } poison, ptr %2, 0, !dbg !2994
  %6 = insertvalue { ptr, i32 } %5, i32 %4, 1, !dbg !2994
  resume { ptr, i32 } %6, !dbg !2994

cleanup:                                          ; preds = %bb5, %start
  %7 = landingpad { ptr, i32 }
          cleanup
  %8 = extractvalue { ptr, i32 } %7, 0
  %9 = extractvalue { ptr, i32 } %7, 1
  store ptr %8, ptr %0, align 8
  %10 = getelementptr inbounds i8, ptr %0, i64 8
  store i32 %9, ptr %10, align 8
  br label %bb11

bb2:                                              ; preds = %start
  %_8 = load i64, ptr %_6, align 8, !dbg !2995
  %11 = trunc nuw i64 %_8 to i1, !dbg !2996
  br i1 %11, label %bb3, label %bb4, !dbg !2996

bb3:                                              ; preds = %bb2
  %12 = getelementptr inbounds i8, ptr %_6, i64 8, !dbg !2997
  %a = load i64, ptr %12, align 8, !dbg !2997
  store i64 %a, ptr %a.dbg.spill, align 8, !dbg !2997
    #dbg_declare(ptr %a.dbg.spill, !2942, !DIExpression(), !2997)
  %13 = getelementptr inbounds i8, ptr %_6, i64 8, !dbg !2998
  %14 = getelementptr inbounds i8, ptr %13, i64 8, !dbg !2998
  %b = load i64, ptr %14, align 8, !dbg !2998
  store i64 %b, ptr %b.dbg.spill, align 8, !dbg !2998
    #dbg_declare(ptr %b.dbg.spill, !2944, !DIExpression(), !2998)
  store i64 %a, ptr %i, align 8, !dbg !2999
  store i64 %b, ptr %j, align 8, !dbg !3000
  br label %bb5, !dbg !3001

bb4:                                              ; preds = %bb2
  br label %bb5, !dbg !3001

bb5:                                              ; preds = %bb4, %bb3
; invoke <core::str::pattern::CharPredicateSearcher<F> as core::str::pattern::ReverseSearcher>::next_reject_back
  invoke void @"_ZN106_$LT$core..str..pattern..CharPredicateSearcher$LT$F$GT$$u20$as$u20$core..str..pattern..ReverseSearcher$GT$16next_reject_back17h31cf4454c08338e2E"(ptr sret([24 x i8]) align 8 %_11, ptr align 8 %matcher)
          to label %bb6 unwind label %cleanup, !dbg !3002

bb6:                                              ; preds = %bb5
  %_13 = load i64, ptr %_11, align 8, !dbg !3003
  %15 = trunc nuw i64 %_13 to i1, !dbg !3004
  br i1 %15, label %bb7, label %bb8, !dbg !3004

bb7:                                              ; preds = %bb6
  %16 = getelementptr inbounds i8, ptr %_11, i64 8, !dbg !3005
  %17 = getelementptr inbounds i8, ptr %16, i64 8, !dbg !3005
  %b1 = load i64, ptr %17, align 8, !dbg !3005
  store i64 %b1, ptr %b.dbg.spill2, align 8, !dbg !3005
    #dbg_declare(ptr %b.dbg.spill2, !2945, !DIExpression(), !3005)
  store i64 %b1, ptr %j, align 8, !dbg !3006
  br label %bb9, !dbg !3007

bb8:                                              ; preds = %bb6
  br label %bb9, !dbg !3007

bb9:                                              ; preds = %bb8, %bb7
  %i3 = load i64, ptr %i, align 8, !dbg !3008
  store i64 %i3, ptr %i.dbg.spill, align 8, !dbg !3008
    #dbg_declare(ptr %i.dbg.spill, !2962, !DIExpression(DW_OP_LLVM_fragment, 0, 64), !3009)
    #dbg_declare(ptr %i.dbg.spill, !2975, !DIExpression(DW_OP_LLVM_fragment, 0, 64), !3010)
    #dbg_declare(ptr %i.dbg.spill, !3011, !DIExpression(), !3017)
  %i4 = load i64, ptr %j, align 8, !dbg !3019
  store i64 %i4, ptr %i.dbg.spill5, align 8, !dbg !3019
    #dbg_declare(ptr %i.dbg.spill5, !2962, !DIExpression(DW_OP_LLVM_fragment, 64, 64), !3009)
    #dbg_declare(ptr %i.dbg.spill5, !2975, !DIExpression(DW_OP_LLVM_fragment, 64, 64), !3010)
  store ptr %self.0, ptr %slice.dbg.spill, align 8, !dbg !3020
  %18 = getelementptr inbounds i8, ptr %slice.dbg.spill, i64 8, !dbg !3020
  store i64 %self.1, ptr %18, align 8, !dbg !3020
    #dbg_declare(ptr %slice.dbg.spill, !2976, !DIExpression(), !3021)
    #dbg_declare(ptr %slice.dbg.spill, !3022, !DIExpression(), !3028)
    #dbg_declare(ptr %slice.dbg.spill, !3030, !DIExpression(), !3033)
    #dbg_declare(ptr %slice.dbg.spill, !3035, !DIExpression(), !3040)
  br label %bb13, !dbg !3042

bb13:                                             ; preds = %bb9
; call core::str::traits::<impl core::slice::index::SliceIndex<str> for core::ops::range::Range<usize>>::get_unchecked::precondition_check
  call void @"_ZN4core3str6traits108_$LT$impl$u20$core..slice..index..SliceIndex$LT$str$GT$$u20$for$u20$core..ops..range..Range$LT$usize$GT$$GT$13get_unchecked18precondition_check17h0400472f04a561e8E"(i64 %i3, i64 %i4, i64 %self.1, ptr align 8 @alloc_58f83348092d5ee291504bc000cb25c3) #14, !dbg !3044
  br label %bb15, !dbg !3045

bb15:                                             ; preds = %bb13
  %new_len = sub nuw i64 %i4, %i3, !dbg !3046
  store i64 %new_len, ptr %new_len.dbg.spill, align 8, !dbg !3046
    #dbg_declare(ptr %new_len.dbg.spill, !2982, !DIExpression(), !3047)
    #dbg_declare(ptr %new_len.dbg.spill, !3048, !DIExpression(), !3054)
  store ptr %self.0, ptr %self.dbg.spill6, align 8, !dbg !3056
    #dbg_declare(ptr %self.dbg.spill6, !3016, !DIExpression(), !3057)
  %data = getelementptr inbounds nuw i8, ptr %self.0, i64 %i3, !dbg !3058
  store ptr %data, ptr %data.dbg.spill, align 8, !dbg !3058
    #dbg_declare(ptr %data.dbg.spill, !3053, !DIExpression(), !3059)
    #dbg_declare(ptr %data.dbg.spill, !3060, !DIExpression(), !3065)
  %19 = insertvalue { ptr, i64 } poison, ptr %data, 0, !dbg !3067
  %20 = insertvalue { ptr, i64 } %19, i64 %new_len, 1, !dbg !3067
  ret { ptr, i64 } %20, !dbg !3067

bb16:                                             ; No predecessors!
  unreachable, !dbg !2994
}

; core::str::<impl str>::trim
; Function Attrs: inlinehint nonlazybind uwtable
define internal { ptr, i64 } @"_ZN4core3str21_$LT$impl$u20$str$GT$4trim17haef794c40112f32eE"(ptr align 1 %self.0, i64 %self.1) unnamed_addr #0 !dbg !3068 {
start:
  %self.dbg.spill = alloca [16 x i8], align 8
  store ptr %self.0, ptr %self.dbg.spill, align 8
  %0 = getelementptr inbounds i8, ptr %self.dbg.spill, i64 8
  store i64 %self.1, ptr %0, align 8
    #dbg_declare(ptr %self.dbg.spill, !3072, !DIExpression(), !3073)
; call core::str::<impl str>::trim_matches
  %1 = call { ptr, i64 } @"_ZN4core3str21_$LT$impl$u20$str$GT$12trim_matches17h6e1b573db34337eeE"(ptr align 1 %self.0, i64 %self.1), !dbg !3074
  %_0.0 = extractvalue { ptr, i64 } %1, 0, !dbg !3074
  %_0.1 = extractvalue { ptr, i64 } %1, 1, !dbg !3074
  %2 = insertvalue { ptr, i64 } poison, ptr %_0.0, 0, !dbg !3075
  %3 = insertvalue { ptr, i64 } %2, i64 %_0.1, 1, !dbg !3075
  ret { ptr, i64 } %3, !dbg !3075
}

; core::str::<impl str>::chars
; Function Attrs: inlinehint nonlazybind uwtable
define internal { ptr, ptr } @"_ZN4core3str21_$LT$impl$u20$str$GT$5chars17h97c62f96401a69acE"(ptr align 1 %self.0, i64 %self.1) unnamed_addr #0 !dbg !3076 {
start:
  %self.dbg.spill = alloca [16 x i8], align 8
  store ptr %self.0, ptr %self.dbg.spill, align 8
  %0 = getelementptr inbounds i8, ptr %self.dbg.spill, i64 8
  store i64 %self.1, ptr %0, align 8
    #dbg_declare(ptr %self.dbg.spill, !3080, !DIExpression(), !3081)
    #dbg_declare(ptr %self.dbg.spill, !3082, !DIExpression(), !3085)
  %_7 = getelementptr inbounds nuw i8, ptr %self.0, i64 %self.1, !dbg !3087
  %1 = insertvalue { ptr, ptr } poison, ptr %self.0, 0, !dbg !3100
  %2 = insertvalue { ptr, ptr } %1, ptr %_7, 1, !dbg !3100
  ret { ptr, ptr } %2, !dbg !3100
}

; core::str::<impl str>::parse
; Function Attrs: inlinehint nonlazybind uwtable
define internal void @"_ZN4core3str21_$LT$impl$u20$str$GT$5parse17h3c249401a6490d7cE"(ptr sret([16 x i8]) align 8 %_0, ptr align 1 %self.0, i64 %self.1) unnamed_addr #0 !dbg !3101 {
start:
  %self.dbg.spill = alloca [16 x i8], align 8
  store ptr %self.0, ptr %self.dbg.spill, align 8
  %0 = getelementptr inbounds i8, ptr %self.dbg.spill, i64 8
  store i64 %self.1, ptr %0, align 8
    #dbg_declare(ptr %self.dbg.spill, !3103, !DIExpression(), !3106)
; call core::num::<impl core::str::traits::FromStr for usize>::from_str
  call void @"_ZN4core3num62_$LT$impl$u20$core..str..traits..FromStr$u20$for$u20$usize$GT$8from_str17h5eec9d3f263fb068E"(ptr sret([16 x i8]) align 8 %_0, ptr align 1 %self.0, i64 %self.1), !dbg !3107
  ret void, !dbg !3108
}

; core::str::<impl str>::parse
; Function Attrs: inlinehint nonlazybind uwtable
define internal i64 @"_ZN4core3str21_$LT$impl$u20$str$GT$5parse17h906de3be7afb99c3E"(ptr align 1 %self.0, i64 %self.1) unnamed_addr #0 !dbg !3109 {
start:
  %0 = alloca [8 x i8], align 8
  %self.dbg.spill = alloca [16 x i8], align 8
  %_0 = alloca [8 x i8], align 4
  store ptr %self.0, ptr %self.dbg.spill, align 8
  %1 = getelementptr inbounds i8, ptr %self.dbg.spill, i64 8
  store i64 %self.1, ptr %1, align 8
    #dbg_declare(ptr %self.dbg.spill, !3111, !DIExpression(), !3114)
; call core::num::<impl core::str::traits::FromStr for i32>::from_str
  %2 = call i64 @"_ZN4core3num60_$LT$impl$u20$core..str..traits..FromStr$u20$for$u20$i32$GT$8from_str17hb5593082a61765f5E"(ptr align 1 %self.0, i64 %self.1), !dbg !3115
  store i64 %2, ptr %0, align 8, !dbg !3115
  call void @llvm.memcpy.p0.p0.i64(ptr align 4 %_0, ptr align 8 %0, i64 8, i1 false), !dbg !3115
  %3 = load i64, ptr %_0, align 4, !dbg !3116
  ret i64 %3, !dbg !3116
}

; core::str::traits::<impl core::slice::index::SliceIndex<str> for core::ops::range::Range<usize>>::get_unchecked::precondition_check
; Function Attrs: inlinehint nounwind nonlazybind uwtable
define internal void @"_ZN4core3str6traits108_$LT$impl$u20$core..slice..index..SliceIndex$LT$str$GT$$u20$for$u20$core..ops..range..Range$LT$usize$GT$$GT$13get_unchecked18precondition_check17h0400472f04a561e8E"(i64 %start1, i64 %end, i64 %len, ptr align 8 %0) unnamed_addr #4 !dbg !3117 {
start:
  %pieces.dbg.spill = alloca [8 x i8], align 8
  %msg.dbg.spill = alloca [16 x i8], align 8
  %len.dbg.spill = alloca [8 x i8], align 8
  %end.dbg.spill = alloca [8 x i8], align 8
  %start.dbg.spill = alloca [8 x i8], align 8
  %_9 = alloca [16 x i8], align 8
  %_7 = alloca [48 x i8], align 8
  store i64 %start1, ptr %start.dbg.spill, align 8
    #dbg_declare(ptr %start.dbg.spill, !3122, !DIExpression(), !3127)
  store i64 %end, ptr %end.dbg.spill, align 8
    #dbg_declare(ptr %end.dbg.spill, !3123, !DIExpression(), !3127)
  store i64 %len, ptr %len.dbg.spill, align 8
    #dbg_declare(ptr %len.dbg.spill, !3124, !DIExpression(), !3127)
  store ptr @alloc_91f2a00ff2cd9cdc4bb205a66832e2bb, ptr %msg.dbg.spill, align 8, !dbg !3128
  %1 = getelementptr inbounds i8, ptr %msg.dbg.spill, i64 8, !dbg !3128
  store i64 219, ptr %1, align 8, !dbg !3128
    #dbg_declare(ptr %msg.dbg.spill, !3125, !DIExpression(), !3128)
  %_4 = icmp uge i64 %end, %start1, !dbg !3129
  br i1 %_4, label %bb1, label %bb3, !dbg !3129

bb3:                                              ; preds = %bb1, %start
  %2 = getelementptr inbounds nuw { ptr, i64 }, ptr %_9, i64 0, !dbg !3131
  store ptr @alloc_91f2a00ff2cd9cdc4bb205a66832e2bb, ptr %2, align 8, !dbg !3131
  %3 = getelementptr inbounds i8, ptr %2, i64 8, !dbg !3131
  store i64 219, ptr %3, align 8, !dbg !3131
  store ptr %_9, ptr %pieces.dbg.spill, align 8, !dbg !3132
    #dbg_declare(ptr %pieces.dbg.spill, !3133, !DIExpression(), !3136)
  store ptr %_9, ptr %_7, align 8, !dbg !3138
  %4 = getelementptr inbounds i8, ptr %_7, i64 8, !dbg !3138
  store i64 1, ptr %4, align 8, !dbg !3138
  %5 = load ptr, ptr @anon.12ea5d96d0290b8ba80fa83f0d160b84.1, align 8, !dbg !3138
  %6 = load i64, ptr getelementptr inbounds (i8, ptr @anon.12ea5d96d0290b8ba80fa83f0d160b84.1, i64 8), align 8, !dbg !3138
  %7 = getelementptr inbounds i8, ptr %_7, i64 32, !dbg !3138
  store ptr %5, ptr %7, align 8, !dbg !3138
  %8 = getelementptr inbounds i8, ptr %7, i64 8, !dbg !3138
  store i64 %6, ptr %8, align 8, !dbg !3138
  %9 = getelementptr inbounds i8, ptr %_7, i64 16, !dbg !3138
  store ptr inttoptr (i64 8 to ptr), ptr %9, align 8, !dbg !3138
  %10 = getelementptr inbounds i8, ptr %9, i64 8, !dbg !3138
  store i64 0, ptr %10, align 8, !dbg !3138
; call core::panicking::panic_nounwind_fmt
  call void @_ZN4core9panicking18panic_nounwind_fmt17h622822847ebd61beE(ptr align 8 %_7, i1 zeroext false, ptr align 8 %0) #16, !dbg !3139
  unreachable, !dbg !3139

bb1:                                              ; preds = %start
  %_5 = icmp ule i64 %end, %len, !dbg !3140
  br i1 %_5, label %bb2, label %bb3, !dbg !3140

bb2:                                              ; preds = %bb1
  ret void, !dbg !3141
}

; core::str::pattern::ReverseSearcher::next_reject_back
; Function Attrs: inlinehint nonlazybind uwtable
define internal void @_ZN4core3str7pattern15ReverseSearcher16next_reject_back17h8f97ca7c08bdb7d3E(ptr sret([24 x i8]) align 8 %_0, ptr align 8 %self) unnamed_addr #0 !dbg !3142 {
start:
  %b.dbg.spill = alloca [8 x i8], align 8
  %a.dbg.spill = alloca [8 x i8], align 8
  %self.dbg.spill = alloca [8 x i8], align 8
  %_2 = alloca [24 x i8], align 8
  store ptr %self, ptr %self.dbg.spill, align 8
    #dbg_declare(ptr %self.dbg.spill, !3147, !DIExpression(), !3153)
  br label %bb1, !dbg !3154

bb1:                                              ; preds = %bb5, %start
; call <core::str::pattern::MultiCharEqSearcher<C> as core::str::pattern::ReverseSearcher>::next_back
  call void @"_ZN104_$LT$core..str..pattern..MultiCharEqSearcher$LT$C$GT$$u20$as$u20$core..str..pattern..ReverseSearcher$GT$9next_back17h7927da32cff711b9E"(ptr sret([24 x i8]) align 8 %_2, ptr align 8 %self), !dbg !3155
  %_3 = load i64, ptr %_2, align 8, !dbg !3156
  switch i64 %_3, label %bb7 [
    i64 1, label %bb4
    i64 2, label %bb3
    i64 0, label %bb5
  ], !dbg !3157

bb7:                                              ; preds = %bb1
  unreachable, !dbg !3158

bb4:                                              ; preds = %bb1
  %0 = getelementptr inbounds i8, ptr %_2, i64 8, !dbg !3159
  %a = load i64, ptr %0, align 8, !dbg !3159
  store i64 %a, ptr %a.dbg.spill, align 8, !dbg !3159
    #dbg_declare(ptr %a.dbg.spill, !3148, !DIExpression(), !3160)
  %1 = getelementptr inbounds i8, ptr %_2, i64 16, !dbg !3161
  %b = load i64, ptr %1, align 8, !dbg !3161
  store i64 %b, ptr %b.dbg.spill, align 8, !dbg !3161
    #dbg_declare(ptr %b.dbg.spill, !3150, !DIExpression(), !3162)
  %2 = getelementptr inbounds i8, ptr %_0, i64 8, !dbg !3163
  store i64 %a, ptr %2, align 8, !dbg !3163
  %3 = getelementptr inbounds i8, ptr %2, i64 8, !dbg !3163
  store i64 %b, ptr %3, align 8, !dbg !3163
  store i64 1, ptr %_0, align 8, !dbg !3163
  br label %bb6, !dbg !3164

bb3:                                              ; preds = %bb1
  store i64 0, ptr %_0, align 8, !dbg !3166
  br label %bb6, !dbg !3167

bb5:                                              ; preds = %bb1
  br label %bb1, !dbg !3164

bb6:                                              ; preds = %bb3, %bb4
  ret void, !dbg !3168
}

; core::str::pattern::Searcher::next_reject
; Function Attrs: inlinehint nonlazybind uwtable
define internal void @_ZN4core3str7pattern8Searcher11next_reject17h2dd085ea928128b9E(ptr sret([24 x i8]) align 8 %_0, ptr align 8 %self) unnamed_addr #0 !dbg !3169 {
start:
  %b.dbg.spill = alloca [8 x i8], align 8
  %a.dbg.spill = alloca [8 x i8], align 8
  %self.dbg.spill = alloca [8 x i8], align 8
  %_2 = alloca [24 x i8], align 8
  store ptr %self, ptr %self.dbg.spill, align 8
    #dbg_declare(ptr %self.dbg.spill, !3172, !DIExpression(), !3176)
  br label %bb1, !dbg !3177

bb1:                                              ; preds = %bb5, %start
; call <core::str::pattern::MultiCharEqSearcher<C> as core::str::pattern::Searcher>::next
  call void @"_ZN97_$LT$core..str..pattern..MultiCharEqSearcher$LT$C$GT$$u20$as$u20$core..str..pattern..Searcher$GT$4next17h092521ef620b7d1dE"(ptr sret([24 x i8]) align 8 %_2, ptr align 8 %self), !dbg !3178
  %_3 = load i64, ptr %_2, align 8, !dbg !3179
  switch i64 %_3, label %bb7 [
    i64 1, label %bb4
    i64 2, label %bb3
    i64 0, label %bb5
  ], !dbg !3180

bb7:                                              ; preds = %bb1
  unreachable, !dbg !3181

bb4:                                              ; preds = %bb1
  %0 = getelementptr inbounds i8, ptr %_2, i64 8, !dbg !3182
  %a = load i64, ptr %0, align 8, !dbg !3182
  store i64 %a, ptr %a.dbg.spill, align 8, !dbg !3182
    #dbg_declare(ptr %a.dbg.spill, !3173, !DIExpression(), !3183)
  %1 = getelementptr inbounds i8, ptr %_2, i64 16, !dbg !3184
  %b = load i64, ptr %1, align 8, !dbg !3184
  store i64 %b, ptr %b.dbg.spill, align 8, !dbg !3184
    #dbg_declare(ptr %b.dbg.spill, !3175, !DIExpression(), !3185)
  %2 = getelementptr inbounds i8, ptr %_0, i64 8, !dbg !3186
  store i64 %a, ptr %2, align 8, !dbg !3186
  %3 = getelementptr inbounds i8, ptr %2, i64 8, !dbg !3186
  store i64 %b, ptr %3, align 8, !dbg !3186
  store i64 1, ptr %_0, align 8, !dbg !3186
  br label %bb6, !dbg !3187

bb3:                                              ; preds = %bb1
  store i64 0, ptr %_0, align 8, !dbg !3189
  br label %bb6, !dbg !3190

bb5:                                              ; preds = %bb1
  br label %bb1, !dbg !3187

bb6:                                              ; preds = %bb3, %bb4
  ret void, !dbg !3191
}

; core::char::convert::from_u32_unchecked::precondition_check
; Function Attrs: inlinehint nounwind nonlazybind uwtable
define internal void @_ZN4core4char7convert18from_u32_unchecked18precondition_check17h238f453ec1ecfd6cE(i32 %i, ptr align 8 %0) unnamed_addr #4 !dbg !3192 {
start:
  %pieces.dbg.spill = alloca [8 x i8], align 8
  %self.dbg.spill1 = alloca [8 x i8], align 8
  %self.dbg.spill = alloca [4 x i8], align 4
  %rhs.dbg.spill = alloca [4 x i8], align 4
  %msg.dbg.spill = alloca [16 x i8], align 8
  %i.dbg.spill = alloca [4 x i8], align 4
  %_7 = alloca [16 x i8], align 8
  %_5 = alloca [48 x i8], align 8
  %_3 = alloca [4 x i8], align 4
  store i32 %i, ptr %i.dbg.spill, align 4
    #dbg_declare(ptr %i.dbg.spill, !3197, !DIExpression(), !3200)
    #dbg_declare(ptr %i.dbg.spill, !3201, !DIExpression(), !3224)
  store ptr @alloc_4dc07e69e5d34e9d1484dfbbef0bb9b1, ptr %msg.dbg.spill, align 8, !dbg !3227
  %1 = getelementptr inbounds i8, ptr %msg.dbg.spill, i64 8, !dbg !3227
  store i64 174, ptr %1, align 8, !dbg !3227
    #dbg_declare(ptr %msg.dbg.spill, !3198, !DIExpression(), !3227)
  store i32 2048, ptr %rhs.dbg.spill, align 4, !dbg !3228
    #dbg_declare(ptr %rhs.dbg.spill, !3235, !DIExpression(), !3228)
  %self = xor i32 %i, 55296, !dbg !3237
  store i32 %self, ptr %self.dbg.spill, align 4, !dbg !3237
    #dbg_declare(ptr %self.dbg.spill, !3234, !DIExpression(), !3238)
  %_9 = sub i32 %self, 2048, !dbg !3239
  %_8 = icmp uge i32 %_9, 1112064, !dbg !3237
  br i1 %_8, label %bb3, label %bb4, !dbg !3237

bb4:                                              ; preds = %start
  store i32 %i, ptr %_3, align 4, !dbg !3240
  br label %bb5, !dbg !3241

bb3:                                              ; preds = %start
  store i32 1114112, ptr %_3, align 4, !dbg !3242
  br label %bb5, !dbg !3241

bb5:                                              ; preds = %bb3, %bb4
  store ptr %_3, ptr %self.dbg.spill1, align 8, !dbg !3225
    #dbg_declare(ptr %self.dbg.spill1, !3243, !DIExpression(), !3251)
  %2 = load i32, ptr %_3, align 4, !dbg !3253
  %3 = icmp eq i32 %2, 1114112, !dbg !3253
  %_12 = select i1 %3, i64 1, i64 0, !dbg !3253
  %4 = icmp eq i64 %_12, 0, !dbg !3225
  br i1 %4, label %bb1, label %bb2, !dbg !3225

bb1:                                              ; preds = %bb5
  ret void, !dbg !3254

bb2:                                              ; preds = %bb5
  %5 = getelementptr inbounds nuw { ptr, i64 }, ptr %_7, i64 0, !dbg !3255
  store ptr @alloc_4dc07e69e5d34e9d1484dfbbef0bb9b1, ptr %5, align 8, !dbg !3255
  %6 = getelementptr inbounds i8, ptr %5, i64 8, !dbg !3255
  store i64 174, ptr %6, align 8, !dbg !3255
  store ptr %_7, ptr %pieces.dbg.spill, align 8, !dbg !3256
    #dbg_declare(ptr %pieces.dbg.spill, !3257, !DIExpression(), !3260)
  store ptr %_7, ptr %_5, align 8, !dbg !3262
  %7 = getelementptr inbounds i8, ptr %_5, i64 8, !dbg !3262
  store i64 1, ptr %7, align 8, !dbg !3262
  %8 = load ptr, ptr @anon.12ea5d96d0290b8ba80fa83f0d160b84.1, align 8, !dbg !3262
  %9 = load i64, ptr getelementptr inbounds (i8, ptr @anon.12ea5d96d0290b8ba80fa83f0d160b84.1, i64 8), align 8, !dbg !3262
  %10 = getelementptr inbounds i8, ptr %_5, i64 32, !dbg !3262
  store ptr %8, ptr %10, align 8, !dbg !3262
  %11 = getelementptr inbounds i8, ptr %10, i64 8, !dbg !3262
  store i64 %9, ptr %11, align 8, !dbg !3262
  %12 = getelementptr inbounds i8, ptr %_5, i64 16, !dbg !3262
  store ptr inttoptr (i64 8 to ptr), ptr %12, align 8, !dbg !3262
  %13 = getelementptr inbounds i8, ptr %12, i64 8, !dbg !3262
  store i64 0, ptr %13, align 8, !dbg !3262
; call core::panicking::panic_nounwind_fmt
  call void @_ZN4core9panicking18panic_nounwind_fmt17h622822847ebd61beE(ptr align 8 %_5, i1 zeroext false, ptr align 8 %0) #16, !dbg !3263
  unreachable, !dbg !3263
}

; core::char::methods::<impl char>::is_whitespace
; Function Attrs: inlinehint nonlazybind uwtable
define internal zeroext i1 @"_ZN4core4char7methods22_$LT$impl$u20$char$GT$13is_whitespace17hb98d89ddc5c40c37E"(i32 %self) unnamed_addr #0 !dbg !3264 {
start:
  %self.dbg.spill = alloca [4 x i8], align 4
  %_0 = alloca [1 x i8], align 1
  store i32 %self, ptr %self.dbg.spill, align 4
    #dbg_declare(ptr %self.dbg.spill, !3266, !DIExpression(), !3269)
    #dbg_declare(ptr %self.dbg.spill, !3267, !DIExpression(), !3270)
  %0 = icmp eq i32 %self, 32, !dbg !3271
  br i1 %0, label %bb4, label %bb2, !dbg !3271

bb4:                                              ; preds = %bb3, %start
  store i8 1, ptr %_0, align 1, !dbg !3272
  br label %bb8, !dbg !3272

bb2:                                              ; preds = %start
  %_2 = icmp ule i32 9, %self, !dbg !3273
  br i1 %_2, label %bb3, label %bb1, !dbg !3273

bb1:                                              ; preds = %bb3, %bb2
  %_4 = icmp ugt i32 %self, 127, !dbg !3274
  br i1 %_4, label %bb5, label %bb6, !dbg !3274

bb3:                                              ; preds = %bb2
  %_3 = icmp ule i32 %self, 13, !dbg !3273
  br i1 %_3, label %bb4, label %bb1, !dbg !3273

bb6:                                              ; preds = %bb1
  store i8 0, ptr %_0, align 1, !dbg !3274
  br label %bb7, !dbg !3274

bb5:                                              ; preds = %bb1
; call core::unicode::unicode_data::white_space::lookup
  %1 = call zeroext i1 @_ZN4core7unicode12unicode_data11white_space6lookup17h340ce046b0f60f9dE(i32 %self), !dbg !3275
  %2 = zext i1 %1 to i8, !dbg !3275
  store i8 %2, ptr %_0, align 1, !dbg !3275
  br label %bb7, !dbg !3275

bb7:                                              ; preds = %bb5, %bb6
  br label %bb8, !dbg !3276

bb8:                                              ; preds = %bb4, %bb7
  %3 = load i8, ptr %_0, align 1, !dbg !3277
  %4 = trunc nuw i8 %3 to i1, !dbg !3277
  ret i1 %4, !dbg !3277
}

; core::char::methods::<impl char>::to_digit
; Function Attrs: inlinehint nonlazybind uwtable
define internal { i32, i32 } @"_ZN4core4char7methods22_$LT$impl$u20$char$GT$8to_digit17h428e16ede6856669E"(i32 %self, i32 %radix) unnamed_addr #0 !dbg !3278 {
start:
  %self.dbg.spill3 = alloca [4 x i8], align 4
  %self.dbg.spill2 = alloca [4 x i8], align 4
  %rhs.dbg.spill1 = alloca [4 x i8], align 4
  %rhs.dbg.spill = alloca [4 x i8], align 4
  %pieces.dbg.spill = alloca [8 x i8], align 8
  %radix.dbg.spill = alloca [4 x i8], align 4
  %self.dbg.spill = alloca [4 x i8], align 4
  %value = alloca [4 x i8], align 4
  %_6 = alloca [48 x i8], align 8
  %_0 = alloca [8 x i8], align 4
  store i32 %self, ptr %self.dbg.spill, align 4
    #dbg_declare(ptr %self.dbg.spill, !3282, !DIExpression(), !3286)
  store i32 %radix, ptr %radix.dbg.spill, align 4
    #dbg_declare(ptr %radix.dbg.spill, !3283, !DIExpression(), !3287)
    #dbg_declare(ptr %value, !3284, !DIExpression(), !3288)
  store ptr @alloc_708eb9f2492b697e0d761b647be5d46c, ptr %pieces.dbg.spill, align 8, !dbg !3289
    #dbg_declare(ptr %pieces.dbg.spill, !3292, !DIExpression(), !3289)
  store i32 65, ptr %rhs.dbg.spill, align 4, !dbg !3294
    #dbg_declare(ptr %rhs.dbg.spill, !3298, !DIExpression(), !3294)
  store i32 48, ptr %rhs.dbg.spill1, align 4, !dbg !3300
    #dbg_declare(ptr %rhs.dbg.spill1, !3298, !DIExpression(), !3300)
  %_3 = icmp uge i32 %radix, 2, !dbg !3302
  br i1 %_3, label %bb1, label %bb3, !dbg !3302

bb3:                                              ; preds = %bb1, %start
  store ptr @alloc_708eb9f2492b697e0d761b647be5d46c, ptr %_6, align 8, !dbg !3303
  %0 = getelementptr inbounds i8, ptr %_6, i64 8, !dbg !3303
  store i64 1, ptr %0, align 8, !dbg !3303
  %1 = load ptr, ptr @anon.12ea5d96d0290b8ba80fa83f0d160b84.1, align 8, !dbg !3303
  %2 = load i64, ptr getelementptr inbounds (i8, ptr @anon.12ea5d96d0290b8ba80fa83f0d160b84.1, i64 8), align 8, !dbg !3303
  %3 = getelementptr inbounds i8, ptr %_6, i64 32, !dbg !3303
  store ptr %1, ptr %3, align 8, !dbg !3303
  %4 = getelementptr inbounds i8, ptr %3, i64 8, !dbg !3303
  store i64 %2, ptr %4, align 8, !dbg !3303
  %5 = getelementptr inbounds i8, ptr %_6, i64 16, !dbg !3303
  store ptr inttoptr (i64 8 to ptr), ptr %5, align 8, !dbg !3303
  %6 = getelementptr inbounds i8, ptr %5, i64 8, !dbg !3303
  store i64 0, ptr %6, align 8, !dbg !3303
; call core::panicking::panic_fmt
  call void @_ZN4core9panicking9panic_fmt17h92c8e5abe71dd8d1E(ptr align 8 %_6, ptr align 8 @alloc_8d0c494df655f9d67b952dcf71fa636b) #15, !dbg !3293
  unreachable, !dbg !3293

bb1:                                              ; preds = %start
  %_4 = icmp ule i32 %radix, 36, !dbg !3304
  br i1 %_4, label %bb2, label %bb3, !dbg !3304

bb2:                                              ; preds = %bb1
  %_8 = icmp ugt i32 %self, 57, !dbg !3305
  br i1 %_8, label %bb4, label %bb6, !dbg !3305

bb6:                                              ; preds = %bb4, %bb2
  store i32 %self, ptr %self.dbg.spill2, align 4, !dbg !3306
    #dbg_declare(ptr %self.dbg.spill2, !3297, !DIExpression(), !3307)
  %7 = sub i32 %self, 48, !dbg !3308
  store i32 %7, ptr %value, align 4, !dbg !3308
  br label %bb7, !dbg !3309

bb4:                                              ; preds = %bb2
  %_9 = icmp ugt i32 %radix, 10, !dbg !3310
  br i1 %_9, label %bb5, label %bb6, !dbg !3310

bb5:                                              ; preds = %bb4
  store i32 %self, ptr %self.dbg.spill3, align 4, !dbg !3311
    #dbg_declare(ptr %self.dbg.spill3, !3297, !DIExpression(), !3312)
  %_11 = sub i32 %self, 65, !dbg !3313
  %_10 = and i32 %_11, -33, !dbg !3314
  %8 = add i32 %_10, 10, !dbg !3314
  store i32 %8, ptr %value, align 4, !dbg !3314
  br label %bb7, !dbg !3309

bb7:                                              ; preds = %bb5, %bb6
  %_15 = load i32, ptr %value, align 4, !dbg !3315
  %_14 = icmp ult i32 %_15, %radix, !dbg !3315
  br i1 %_14, label %bb8, label %bb9, !dbg !3315

bb9:                                              ; preds = %bb7
  %9 = load i32, ptr @anon.12ea5d96d0290b8ba80fa83f0d160b84.2, align 4, !dbg !3316
  %10 = load i32, ptr getelementptr inbounds (i8, ptr @anon.12ea5d96d0290b8ba80fa83f0d160b84.2, i64 4), align 4, !dbg !3316
  store i32 %9, ptr %_0, align 4, !dbg !3316
  %11 = getelementptr inbounds i8, ptr %_0, i64 4, !dbg !3316
  store i32 %10, ptr %11, align 4, !dbg !3316
  br label %bb10, !dbg !3317

bb8:                                              ; preds = %bb7
  %_16 = load i32, ptr %value, align 4, !dbg !3318
  %12 = getelementptr inbounds i8, ptr %_0, i64 4, !dbg !3319
  store i32 %_16, ptr %12, align 4, !dbg !3319
  store i32 1, ptr %_0, align 4, !dbg !3319
  br label %bb10, !dbg !3317

bb10:                                             ; preds = %bb8, %bb9
  %13 = load i32, ptr %_0, align 4, !dbg !3320
  %14 = getelementptr inbounds i8, ptr %_0, i64 4, !dbg !3320
  %15 = load i32, ptr %14, align 4, !dbg !3320
  %16 = insertvalue { i32, i32 } poison, i32 %13, 0, !dbg !3320
  %17 = insertvalue { i32, i32 } %16, i32 %15, 1, !dbg !3320
  ret { i32, i32 } %17, !dbg !3320
}

; core::hint::unreachable_unchecked::precondition_check
; Function Attrs: inlinehint nounwind nonlazybind uwtable
define internal void @_ZN4core4hint21unreachable_unchecked18precondition_check17hdb618c50f39e3637E(ptr align 8 %0) unnamed_addr #4 !dbg !3321 {
start:
  %pieces.dbg.spill = alloca [8 x i8], align 8
  %msg.dbg.spill = alloca [16 x i8], align 8
  %_4 = alloca [16 x i8], align 8
  %_2 = alloca [48 x i8], align 8
  store ptr @alloc_75fb06c2453febd814e73f5f2e72ae38, ptr %msg.dbg.spill, align 8, !dbg !3326
  %1 = getelementptr inbounds i8, ptr %msg.dbg.spill, i64 8, !dbg !3326
  store i64 199, ptr %1, align 8, !dbg !3326
    #dbg_declare(ptr %msg.dbg.spill, !3324, !DIExpression(), !3326)
  %2 = getelementptr inbounds nuw { ptr, i64 }, ptr %_4, i64 0, !dbg !3327
  store ptr @alloc_75fb06c2453febd814e73f5f2e72ae38, ptr %2, align 8, !dbg !3327
  %3 = getelementptr inbounds i8, ptr %2, i64 8, !dbg !3327
  store i64 199, ptr %3, align 8, !dbg !3327
  store ptr %_4, ptr %pieces.dbg.spill, align 8, !dbg !3328
    #dbg_declare(ptr %pieces.dbg.spill, !3329, !DIExpression(), !3332)
  store ptr %_4, ptr %_2, align 8, !dbg !3334
  %4 = getelementptr inbounds i8, ptr %_2, i64 8, !dbg !3334
  store i64 1, ptr %4, align 8, !dbg !3334
  %5 = load ptr, ptr @anon.12ea5d96d0290b8ba80fa83f0d160b84.1, align 8, !dbg !3334
  %6 = load i64, ptr getelementptr inbounds (i8, ptr @anon.12ea5d96d0290b8ba80fa83f0d160b84.1, i64 8), align 8, !dbg !3334
  %7 = getelementptr inbounds i8, ptr %_2, i64 32, !dbg !3334
  store ptr %5, ptr %7, align 8, !dbg !3334
  %8 = getelementptr inbounds i8, ptr %7, i64 8, !dbg !3334
  store i64 %6, ptr %8, align 8, !dbg !3334
  %9 = getelementptr inbounds i8, ptr %_2, i64 16, !dbg !3334
  store ptr inttoptr (i64 8 to ptr), ptr %9, align 8, !dbg !3334
  %10 = getelementptr inbounds i8, ptr %9, i64 8, !dbg !3334
  store i64 0, ptr %10, align 8, !dbg !3334
; call core::panicking::panic_nounwind_fmt
  call void @_ZN4core9panicking18panic_nounwind_fmt17h622822847ebd61beE(ptr align 8 %_2, i1 zeroext false, ptr align 8 %0) #16, !dbg !3335
  unreachable, !dbg !3335
}

; core::iter::range::<impl core::iter::traits::iterator::Iterator for core::ops::range::Range<A>>::next
; Function Attrs: inlinehint nonlazybind uwtable
define internal { i64, i64 } @"_ZN4core4iter5range101_$LT$impl$u20$core..iter..traits..iterator..Iterator$u20$for$u20$core..ops..range..Range$LT$A$GT$$GT$4next17hcc2142e180b5c272E"(ptr align 8 %self) unnamed_addr #0 !dbg !3336 {
start:
  %self.dbg.spill = alloca [8 x i8], align 8
  store ptr %self, ptr %self.dbg.spill, align 8
    #dbg_declare(ptr %self.dbg.spill, !3342, !DIExpression(), !3345)
; call <core::ops::range::Range<T> as core::iter::range::RangeIteratorImpl>::spec_next
  %0 = call { i64, i64 } @"_ZN89_$LT$core..ops..range..Range$LT$T$GT$$u20$as$u20$core..iter..range..RangeIteratorImpl$GT$9spec_next17h2555f296300973dfE"(ptr align 8 %self), !dbg !3346
  %_0.0 = extractvalue { i64, i64 } %0, 0, !dbg !3346
  %_0.1 = extractvalue { i64, i64 } %0, 1, !dbg !3346
  %1 = insertvalue { i64, i64 } poison, i64 %_0.0, 0, !dbg !3347
  %2 = insertvalue { i64, i64 } %1, i64 %_0.1, 1, !dbg !3347
  ret { i64, i64 } %2, !dbg !3347
}

; core::alloc::layout::Layout::from_size_align_unchecked::precondition_check
; Function Attrs: inlinehint nounwind nonlazybind uwtable
define internal void @_ZN4core5alloc6layout6Layout25from_size_align_unchecked18precondition_check17he6f38bd08178d1b7E(i64 %size, i64 %align, ptr align 8 %0) unnamed_addr #4 personality ptr @rust_eh_personality !dbg !3348 {
start:
  %pieces.dbg.spill = alloca [8 x i8], align 8
  %msg.dbg.spill = alloca [16 x i8], align 8
  %align.dbg.spill = alloca [8 x i8], align 8
  %size.dbg.spill = alloca [8 x i8], align 8
  %_7 = alloca [16 x i8], align 8
  %_5 = alloca [48 x i8], align 8
  store i64 %size, ptr %size.dbg.spill, align 8
    #dbg_declare(ptr %size.dbg.spill, !3354, !DIExpression(), !3358)
  store i64 %align, ptr %align.dbg.spill, align 8
    #dbg_declare(ptr %align.dbg.spill, !3355, !DIExpression(), !3358)
  store ptr @alloc_1be5ea12ba708d9a11b6e93a7d387a75, ptr %msg.dbg.spill, align 8, !dbg !3359
  %1 = getelementptr inbounds i8, ptr %msg.dbg.spill, i64 8, !dbg !3359
  store i64 281, ptr %1, align 8, !dbg !3359
    #dbg_declare(ptr %msg.dbg.spill, !3356, !DIExpression(), !3359)
; invoke core::alloc::layout::Layout::is_size_align_valid
  %_3 = invoke zeroext i1 @_ZN4core5alloc6layout6Layout19is_size_align_valid17h26adf6c6175f55f5E(i64 %size, i64 %align)
          to label %bb1 unwind label %terminate, !dbg !3360

terminate:                                        ; preds = %start
  %2 = landingpad { ptr, i32 }
          filter [0 x ptr] zeroinitializer
; call core::panicking::panic_cannot_unwind
  call void @_ZN4core9panicking19panic_cannot_unwind17hebe3a4840b691755E() #18, !dbg !3363
  unreachable, !dbg !3363

bb1:                                              ; preds = %start
  br i1 %_3, label %bb2, label %bb3, !dbg !3360

bb3:                                              ; preds = %bb1
  %3 = getelementptr inbounds nuw { ptr, i64 }, ptr %_7, i64 0, !dbg !3364
  store ptr @alloc_1be5ea12ba708d9a11b6e93a7d387a75, ptr %3, align 8, !dbg !3364
  %4 = getelementptr inbounds i8, ptr %3, i64 8, !dbg !3364
  store i64 281, ptr %4, align 8, !dbg !3364
  store ptr %_7, ptr %pieces.dbg.spill, align 8, !dbg !3365
    #dbg_declare(ptr %pieces.dbg.spill, !3366, !DIExpression(), !3369)
  store ptr %_7, ptr %_5, align 8, !dbg !3371
  %5 = getelementptr inbounds i8, ptr %_5, i64 8, !dbg !3371
  store i64 1, ptr %5, align 8, !dbg !3371
  %6 = load ptr, ptr @anon.12ea5d96d0290b8ba80fa83f0d160b84.1, align 8, !dbg !3371
  %7 = load i64, ptr getelementptr inbounds (i8, ptr @anon.12ea5d96d0290b8ba80fa83f0d160b84.1, i64 8), align 8, !dbg !3371
  %8 = getelementptr inbounds i8, ptr %_5, i64 32, !dbg !3371
  store ptr %6, ptr %8, align 8, !dbg !3371
  %9 = getelementptr inbounds i8, ptr %8, i64 8, !dbg !3371
  store i64 %7, ptr %9, align 8, !dbg !3371
  %10 = getelementptr inbounds i8, ptr %_5, i64 16, !dbg !3371
  store ptr inttoptr (i64 8 to ptr), ptr %10, align 8, !dbg !3371
  %11 = getelementptr inbounds i8, ptr %10, i64 8, !dbg !3371
  store i64 0, ptr %11, align 8, !dbg !3371
; call core::panicking::panic_nounwind_fmt
  call void @_ZN4core9panicking18panic_nounwind_fmt17h622822847ebd61beE(ptr align 8 %_5, i1 zeroext false, ptr align 8 %0) #16, !dbg !3372
  unreachable, !dbg !3372

bb2:                                              ; preds = %bb1
  ret void, !dbg !3373
}

; core::slice::raw::from_raw_parts::precondition_check
; Function Attrs: inlinehint nounwind nonlazybind uwtable
define internal void @_ZN4core5slice3raw14from_raw_parts18precondition_check17h76f8529ed85481b0E(ptr %data, i64 %size, i64 %align, i64 %len, ptr align 8 %0) unnamed_addr #4 personality ptr @rust_eh_personality !dbg !3374 {
start:
  %pieces.dbg.spill1 = alloca [8 x i8], align 8
  %1 = alloca [4 x i8], align 4
  %ptr.dbg.spill = alloca [8 x i8], align 8
  %pieces.dbg.spill = alloca [8 x i8], align 8
  %is_zst.dbg.spill = alloca [1 x i8], align 1
  %msg.dbg.spill = alloca [16 x i8], align 8
  %len.dbg.spill = alloca [8 x i8], align 8
  %align.dbg.spill = alloca [8 x i8], align 8
  %size.dbg.spill = alloca [8 x i8], align 8
  %data.dbg.spill = alloca [8 x i8], align 8
  %max_len = alloca [8 x i8], align 8
  %_14 = alloca [48 x i8], align 8
  %_11 = alloca [16 x i8], align 8
  %_9 = alloca [48 x i8], align 8
  store ptr %data, ptr %data.dbg.spill, align 8
    #dbg_declare(ptr %data.dbg.spill, !3380, !DIExpression(), !3386)
  store i64 %size, ptr %size.dbg.spill, align 8
    #dbg_declare(ptr %size.dbg.spill, !3381, !DIExpression(), !3386)
    #dbg_declare(ptr %size.dbg.spill, !3387, !DIExpression(), !3396)
  store i64 %align, ptr %align.dbg.spill, align 8
    #dbg_declare(ptr %align.dbg.spill, !3382, !DIExpression(), !3386)
    #dbg_declare(ptr %align.dbg.spill, !3400, !DIExpression(), !3407)
    #dbg_declare(ptr %align.dbg.spill, !3409, !DIExpression(), !3415)
    #dbg_declare(ptr %align.dbg.spill, !3417, !DIExpression(), !3422)
    #dbg_declare(ptr %align.dbg.spill, !3425, !DIExpression(), !3429)
    #dbg_declare(ptr %align.dbg.spill, !3432, !DIExpression(), !3437)
    #dbg_declare(ptr %align.dbg.spill, !3439, !DIExpression(), !3444)
  store i64 %len, ptr %len.dbg.spill, align 8
    #dbg_declare(ptr %len.dbg.spill, !3383, !DIExpression(), !3386)
    #dbg_declare(ptr %len.dbg.spill, !3393, !DIExpression(), !3446)
    #dbg_declare(ptr %max_len, !3394, !DIExpression(), !3447)
  store ptr @alloc_a28e8c8fd5088943a8b5d44af697ff83, ptr %msg.dbg.spill, align 8, !dbg !3448
  %2 = getelementptr inbounds i8, ptr %msg.dbg.spill, i64 8, !dbg !3448
  store i64 279, ptr %2, align 8, !dbg !3448
    #dbg_declare(ptr %msg.dbg.spill, !3384, !DIExpression(), !3448)
  store i8 0, ptr %is_zst.dbg.spill, align 1, !dbg !3449
    #dbg_declare(ptr %is_zst.dbg.spill, !3406, !DIExpression(), !3449)
  store ptr @alloc_e92e94d0ff530782b571cfd99ec66aef, ptr %pieces.dbg.spill, align 8, !dbg !3450
    #dbg_declare(ptr %pieces.dbg.spill, !3453, !DIExpression(), !3450)
  store ptr %data, ptr %ptr.dbg.spill, align 8, !dbg !3456
    #dbg_declare(ptr %ptr.dbg.spill, !3405, !DIExpression(), !3457)
    #dbg_declare(ptr %ptr.dbg.spill, !3414, !DIExpression(), !3458)
    #dbg_declare(ptr %ptr.dbg.spill, !3421, !DIExpression(), !3422)
    #dbg_declare(ptr %ptr.dbg.spill, !3428, !DIExpression(), !3459)
    #dbg_declare(ptr %ptr.dbg.spill, !3460, !DIExpression(), !3465)
    #dbg_declare(ptr %ptr.dbg.spill, !3467, !DIExpression(), !3473)
    #dbg_declare(ptr %ptr.dbg.spill, !3475, !DIExpression(), !3478)
  %3 = call i64 @llvm.ctpop.i64(i64 %align), !dbg !3480
  %4 = trunc i64 %3 to i32, !dbg !3480
  store i32 %4, ptr %1, align 4, !dbg !3480
  %_18 = load i32, ptr %1, align 4, !dbg !3480
  %5 = icmp eq i32 %_18, 1, !dbg !3481
  br i1 %5, label %bb8, label %bb9, !dbg !3481

bb8:                                              ; preds = %start
  %_16 = ptrtoint ptr %data to i64, !dbg !3482
  %_17 = sub i64 %align, 1, !dbg !3483
  %_15 = and i64 %_16, %_17, !dbg !3484
  %6 = icmp eq i64 %_15, 0, !dbg !3416
  br i1 %6, label %bb6, label %bb7, !dbg !3416

bb9:                                              ; preds = %start
  store ptr @alloc_e92e94d0ff530782b571cfd99ec66aef, ptr %_14, align 8, !dbg !3485
  %7 = getelementptr inbounds i8, ptr %_14, i64 8, !dbg !3485
  store i64 1, ptr %7, align 8, !dbg !3485
  %8 = load ptr, ptr @anon.12ea5d96d0290b8ba80fa83f0d160b84.1, align 8, !dbg !3485
  %9 = load i64, ptr getelementptr inbounds (i8, ptr @anon.12ea5d96d0290b8ba80fa83f0d160b84.1, i64 8), align 8, !dbg !3485
  %10 = getelementptr inbounds i8, ptr %_14, i64 32, !dbg !3485
  store ptr %8, ptr %10, align 8, !dbg !3485
  %11 = getelementptr inbounds i8, ptr %10, i64 8, !dbg !3485
  store i64 %9, ptr %11, align 8, !dbg !3485
  %12 = getelementptr inbounds i8, ptr %_14, i64 16, !dbg !3485
  store ptr inttoptr (i64 8 to ptr), ptr %12, align 8, !dbg !3485
  %13 = getelementptr inbounds i8, ptr %12, i64 8, !dbg !3485
  store i64 0, ptr %13, align 8, !dbg !3485
; invoke core::panicking::panic_fmt
  invoke void @_ZN4core9panicking9panic_fmt17h92c8e5abe71dd8d1E(ptr align 8 %_14, ptr align 8 @alloc_db58294b8d2ce64ae31d5b63c946c529) #15
          to label %unreachable unwind label %terminate, !dbg !3455

bb6:                                              ; preds = %bb8
  %_12 = icmp eq i64 %_16, 0, !dbg !3486
  %_5 = xor i1 %_12, true, !dbg !3492
  br i1 %_5, label %bb1, label %bb4, !dbg !3408

bb7:                                              ; preds = %bb8
  br label %bb4, !dbg !3408

bb4:                                              ; preds = %bb7, %bb6
  br label %bb5, !dbg !3493

bb1:                                              ; preds = %bb6
  %_22 = icmp eq i64 %size, 0, !dbg !3495
  %14 = icmp eq i64 %size, 0, !dbg !3495
  br i1 %14, label %bb11, label %bb12, !dbg !3495

bb11:                                             ; preds = %bb1
  store i64 -1, ptr %max_len, align 8, !dbg !3496
  br label %bb14, !dbg !3497

bb12:                                             ; preds = %bb1
  br i1 %_22, label %panic, label %bb13, !dbg !3498

bb14:                                             ; preds = %bb13, %bb11
  %_23 = load i64, ptr %max_len, align 8, !dbg !3499
  %_7 = icmp ule i64 %len, %_23, !dbg !3500
  br i1 %_7, label %bb2, label %bb3, !dbg !3397

bb13:                                             ; preds = %bb12
  %15 = udiv i64 9223372036854775807, %size, !dbg !3498
  store i64 %15, ptr %max_len, align 8, !dbg !3498
  br label %bb14, !dbg !3497

panic:                                            ; preds = %bb12
; invoke core::panicking::panic_const::panic_const_div_by_zero
  invoke void @_ZN4core9panicking11panic_const23panic_const_div_by_zero17hd4705242238fd5f4E(ptr align 8 @alloc_f43627efe9d9e10b7544d0f2c13bff14) #15
          to label %unreachable unwind label %terminate, !dbg !3498

terminate:                                        ; preds = %bb9, %panic
  %16 = landingpad { ptr, i32 }
          filter [0 x ptr] zeroinitializer
; call core::panicking::panic_cannot_unwind
  call void @_ZN4core9panicking19panic_cannot_unwind17hebe3a4840b691755E() #18, !dbg !3501
  unreachable, !dbg !3501

unreachable:                                      ; preds = %bb9, %panic
  unreachable

bb3:                                              ; preds = %bb14
  br label %bb5, !dbg !3493

bb2:                                              ; preds = %bb14
  ret void, !dbg !3502

bb5:                                              ; preds = %bb4, %bb3
  %17 = getelementptr inbounds nuw { ptr, i64 }, ptr %_11, i64 0, !dbg !3503
  store ptr @alloc_a28e8c8fd5088943a8b5d44af697ff83, ptr %17, align 8, !dbg !3503
  %18 = getelementptr inbounds i8, ptr %17, i64 8, !dbg !3503
  store i64 279, ptr %18, align 8, !dbg !3503
  store ptr %_11, ptr %pieces.dbg.spill1, align 8, !dbg !3504
    #dbg_declare(ptr %pieces.dbg.spill1, !3454, !DIExpression(), !3505)
  store ptr %_11, ptr %_9, align 8, !dbg !3507
  %19 = getelementptr inbounds i8, ptr %_9, i64 8, !dbg !3507
  store i64 1, ptr %19, align 8, !dbg !3507
  %20 = load ptr, ptr @anon.12ea5d96d0290b8ba80fa83f0d160b84.1, align 8, !dbg !3507
  %21 = load i64, ptr getelementptr inbounds (i8, ptr @anon.12ea5d96d0290b8ba80fa83f0d160b84.1, i64 8), align 8, !dbg !3507
  %22 = getelementptr inbounds i8, ptr %_9, i64 32, !dbg !3507
  store ptr %20, ptr %22, align 8, !dbg !3507
  %23 = getelementptr inbounds i8, ptr %22, i64 8, !dbg !3507
  store i64 %21, ptr %23, align 8, !dbg !3507
  %24 = getelementptr inbounds i8, ptr %_9, i64 16, !dbg !3507
  store ptr inttoptr (i64 8 to ptr), ptr %24, align 8, !dbg !3507
  %25 = getelementptr inbounds i8, ptr %24, i64 8, !dbg !3507
  store i64 0, ptr %25, align 8, !dbg !3507
; call core::panicking::panic_nounwind_fmt
  call void @_ZN4core9panicking18panic_nounwind_fmt17h622822847ebd61beE(ptr align 8 %_9, i1 zeroext false, ptr align 8 %0) #16, !dbg !3508
  unreachable, !dbg !3508
}

; core::result::Result<T,E>::expect
; Function Attrs: inlinehint nonlazybind uwtable
define internal i64 @"_ZN4core6result19Result$LT$T$C$E$GT$6expect17h27b08e8cdf89568eE"(i64 %0, ptr %1, ptr align 1 %msg.0, i64 %msg.1, ptr align 8 %2) unnamed_addr #0 personality ptr @rust_eh_personality !dbg !3509 {
start:
  %3 = alloca [16 x i8], align 8
  %t.dbg.spill = alloca [8 x i8], align 8
  %msg.dbg.spill = alloca [16 x i8], align 8
  %e = alloca [8 x i8], align 8
  %self = alloca [16 x i8], align 8
  store i64 %0, ptr %self, align 8
  %4 = getelementptr inbounds i8, ptr %self, i64 8
  store ptr %1, ptr %4, align 8
    #dbg_declare(ptr %self, !3529, !DIExpression(), !3535)
  store ptr %msg.0, ptr %msg.dbg.spill, align 8
  %5 = getelementptr inbounds i8, ptr %msg.dbg.spill, i64 8
  store i64 %msg.1, ptr %5, align 8
    #dbg_declare(ptr %msg.dbg.spill, !3530, !DIExpression(), !3536)
    #dbg_declare(ptr %e, !3533, !DIExpression(), !3537)
  %_3 = load i64, ptr %self, align 8, !dbg !3538
  %6 = getelementptr inbounds i8, ptr %self, i64 8, !dbg !3538
  %7 = load ptr, ptr %6, align 8, !dbg !3538
  %8 = trunc nuw i64 %_3 to i1, !dbg !3539
  br i1 %8, label %bb2, label %bb3, !dbg !3539

bb2:                                              ; preds = %start
  %9 = getelementptr inbounds i8, ptr %self, i64 8, !dbg !3540
  %10 = load ptr, ptr %9, align 8, !dbg !3540
  store ptr %10, ptr %e, align 8, !dbg !3540
; invoke core::result::unwrap_failed
  invoke void @_ZN4core6result13unwrap_failed17h0501379eaec3e720E(ptr align 1 %msg.0, i64 %msg.1, ptr align 1 %e, ptr align 8 @vtable.1, ptr align 8 %2) #15
          to label %unreachable unwind label %cleanup, !dbg !3541

bb3:                                              ; preds = %start
  %11 = getelementptr inbounds i8, ptr %self, i64 8, !dbg !3542
  %t = load i64, ptr %11, align 8, !dbg !3542
  store i64 %t, ptr %t.dbg.spill, align 8, !dbg !3542
    #dbg_declare(ptr %t.dbg.spill, !3531, !DIExpression(), !3543)
  ret i64 %t, !dbg !3544

bb4:                                              ; preds = %cleanup
; invoke core::ptr::drop_in_place<std::io::error::Error>
  invoke void @"_ZN4core3ptr42drop_in_place$LT$std..io..error..Error$GT$17h9e6eeb4571b17a1aE"(ptr align 8 %e) #17
          to label %bb5 unwind label %terminate, !dbg !3545

cleanup:                                          ; preds = %bb2
  %12 = landingpad { ptr, i32 }
          cleanup
  %13 = extractvalue { ptr, i32 } %12, 0
  %14 = extractvalue { ptr, i32 } %12, 1
  store ptr %13, ptr %3, align 8
  %15 = getelementptr inbounds i8, ptr %3, i64 8
  store i32 %14, ptr %15, align 8
  br label %bb4

unreachable:                                      ; preds = %bb2
  unreachable

terminate:                                        ; preds = %bb4
  %16 = landingpad { ptr, i32 }
          filter [0 x ptr] zeroinitializer
; call core::panicking::panic_in_cleanup
  call void @_ZN4core9panicking16panic_in_cleanup17h5eff40bcc4481d72E() #18, !dbg !3546
  unreachable, !dbg !3546

bb5:                                              ; preds = %bb4
  %17 = load ptr, ptr %3, align 8, !dbg !3546
  %18 = getelementptr inbounds i8, ptr %3, i64 8, !dbg !3546
  %19 = load i32, ptr %18, align 8, !dbg !3546
  %20 = insertvalue { ptr, i32 } poison, ptr %17, 0, !dbg !3546
  %21 = insertvalue { ptr, i32 } %20, i32 %19, 1, !dbg !3546
  resume { ptr, i32 } %21, !dbg !3546

bb1:                                              ; No predecessors!
  unreachable, !dbg !3538
}

; core::result::Result<T,E>::expect
; Function Attrs: inlinehint nonlazybind uwtable
define internal i64 @"_ZN4core6result19Result$LT$T$C$E$GT$6expect17h7a61987ee4a9e6dbE"(ptr align 8 %self, ptr align 1 %msg.0, i64 %msg.1, ptr align 8 %0) unnamed_addr #0 personality ptr @rust_eh_personality !dbg !3547 {
start:
  %1 = alloca [16 x i8], align 8
  %t.dbg.spill = alloca [8 x i8], align 8
  %msg.dbg.spill = alloca [16 x i8], align 8
  %e = alloca [1 x i8], align 1
    #dbg_declare(ptr %self, !3552, !DIExpression(), !3558)
  store ptr %msg.0, ptr %msg.dbg.spill, align 8
  %2 = getelementptr inbounds i8, ptr %msg.dbg.spill, i64 8
  store i64 %msg.1, ptr %2, align 8
    #dbg_declare(ptr %msg.dbg.spill, !3553, !DIExpression(), !3559)
    #dbg_declare(ptr %e, !3556, !DIExpression(), !3560)
  %3 = load i8, ptr %self, align 8, !dbg !3561
  %4 = trunc nuw i8 %3 to i1, !dbg !3561
  %_3 = zext i1 %4 to i64, !dbg !3561
  %5 = trunc nuw i64 %_3 to i1, !dbg !3562
  br i1 %5, label %bb2, label %bb3, !dbg !3562

bb2:                                              ; preds = %start
  %6 = getelementptr inbounds i8, ptr %self, i64 1, !dbg !3563
  %7 = load i8, ptr %6, align 1, !dbg !3563
  store i8 %7, ptr %e, align 1, !dbg !3563
; invoke core::result::unwrap_failed
  invoke void @_ZN4core6result13unwrap_failed17h0501379eaec3e720E(ptr align 1 %msg.0, i64 %msg.1, ptr align 1 %e, ptr align 8 @vtable.2, ptr align 8 %0) #15
          to label %unreachable unwind label %cleanup, !dbg !3564

bb3:                                              ; preds = %start
  %8 = getelementptr inbounds i8, ptr %self, i64 8, !dbg !3565
  %t = load i64, ptr %8, align 8, !dbg !3565
  store i64 %t, ptr %t.dbg.spill, align 8, !dbg !3565
    #dbg_declare(ptr %t.dbg.spill, !3554, !DIExpression(), !3566)
  ret i64 %t, !dbg !3567

bb4:                                              ; preds = %cleanup
  %9 = load ptr, ptr %1, align 8, !dbg !3568
  %10 = getelementptr inbounds i8, ptr %1, i64 8, !dbg !3568
  %11 = load i32, ptr %10, align 8, !dbg !3568
  %12 = insertvalue { ptr, i32 } poison, ptr %9, 0, !dbg !3568
  %13 = insertvalue { ptr, i32 } %12, i32 %11, 1, !dbg !3568
  resume { ptr, i32 } %13, !dbg !3568

cleanup:                                          ; preds = %bb2
  %14 = landingpad { ptr, i32 }
          cleanup
  %15 = extractvalue { ptr, i32 } %14, 0
  %16 = extractvalue { ptr, i32 } %14, 1
  store ptr %15, ptr %1, align 8
  %17 = getelementptr inbounds i8, ptr %1, i64 8
  store i32 %16, ptr %17, align 8
  br label %bb4

unreachable:                                      ; preds = %bb2
  unreachable

bb1:                                              ; No predecessors!
  unreachable, !dbg !3561
}

; core::result::Result<T,E>::expect
; Function Attrs: inlinehint nonlazybind uwtable
