; ModuleID = 'oob_dyn.2e4d2325a8a613c-cgu.0'
source_filename = "oob_dyn.2e4d2325a8a613c-cgu.0"
target datalayout = "e-m:e-p270:32:32-p271:32:32-p272:64:64-i64:64-i128:128-f80:128-n8:16:32:64-S128"
target triple = "x86_64-unknown-linux-gnu"

@vtable.0 = private unnamed_addr constant <{ [24 x i8], ptr, ptr, ptr }> <{ [24 x i8] c"\00\00\00\00\00\00\00\00\08\00\00\00\00\00\00\00\08\00\00\00\00\00\00\00", ptr @"_ZN4core3ops8function6FnOnce40call_once$u7b$$u7b$vtable.shim$u7d$$u7d$17h0c4167313151a682E", ptr @"_ZN3std2rt10lang_start28_$u7b$$u7b$closure$u7d$$u7d$17h777c3308bd82c159E", ptr @"_ZN3std2rt10lang_start28_$u7b$$u7b$closure$u7d$$u7d$17h777c3308bd82c159E" }>, align 8
@vtable.1 = private unnamed_addr constant <{ ptr, [16 x i8], ptr }> <{ ptr @"_ZN4core3ptr42drop_in_place$LT$std..io..error..Error$GT$17h9e6eeb4571b17a1aE", [16 x i8] c"\08\00\00\00\00\00\00\00\08\00\00\00\00\00\00\00", ptr @"_ZN58_$LT$std..io..error..Error$u20$as$u20$core..fmt..Debug$GT$3fmt17h62ceb23194058131E" }>, align 8
@vtable.2 = private unnamed_addr constant <{ [24 x i8], ptr }> <{ [24 x i8] c"\00\00\00\00\00\00\00\00\01\00\00\00\00\00\00\00\01\00\00\00\00\00\00\00", ptr @"_ZN68_$LT$core..num..error..ParseIntError$u20$as$u20$core..fmt..Debug$GT$3fmt17ha3a87f33f6dad506E" }>, align 8
@_ZN4core7unicode12unicode_data11white_space14WHITESPACE_MAP17h4cf41e25fd3a5318E = external local_unnamed_addr global [256 x i8]
@alloc_59ba7b9f7211443cd55a366616eef46a = private unnamed_addr constant [5 x i8] c"Empty", align 1
@alloc_00315c78e51d29fe6b3102a4c1ecf6ef = private unnamed_addr constant [12 x i8] c"InvalidDigit", align 1
@alloc_bd3a3f3879e0d5f64554753e977f58d4 = private unnamed_addr constant [11 x i8] c"PosOverflow", align 1
@alloc_0964bb2a4870637395c77a018495bd5c = private unnamed_addr constant [11 x i8] c"NegOverflow", align 1
@alloc_6566120a3a17f930e960a0863fcbd591 = private unnamed_addr constant [4 x i8] c"Zero", align 1
@vtable.3 = private unnamed_addr constant <{ [24 x i8], ptr }> <{ [24 x i8] c"\00\00\00\00\00\00\00\00\08\00\00\00\00\00\00\00\08\00\00\00\00\00\00\00", ptr @"_ZN42_$LT$$RF$T$u20$as$u20$core..fmt..Debug$GT$3fmt17h5ee91848f2e025b7E" }>, align 8
@alloc_f62df14955f7d78bca139b0a7668683d = private unnamed_addr constant [13 x i8] c"ParseIntError", align 1
@alloc_a5d866b1768ad3f826bccdb004a1a8ae = private unnamed_addr constant [4 x i8] c"kind", align 1
@alloc_e785023546a81816a36eac0ebfbda700 = private unnamed_addr constant [11 x i8] c"ELements: \0A", align 1
@alloc_c1cad7bbef4fb0f907e91d0e9913e61f = private unnamed_addr constant <{ ptr, [8 x i8] }> <{ ptr @alloc_e785023546a81816a36eac0ebfbda700, [8 x i8] c"\0B\00\00\00\00\00\00\00" }>, align 8
@alloc_15e02a2fde92d2968a11f3eea6bb66fa = private unnamed_addr constant [18 x i8] c"\0AEnter am index: \0A", align 1
@alloc_0f3eac4cc752b86b79bc7e3011b15c8b = private unnamed_addr constant <{ ptr, [8 x i8] }> <{ ptr @alloc_15e02a2fde92d2968a11f3eea6bb66fa, [8 x i8] c"\12\00\00\00\00\00\00\00" }>, align 8
@alloc_7a9ce3b84f8b0fbcf9e409bbc3418674 = private unnamed_addr constant [11 x i8] c"Failed read", align 1
@alloc_bdb4ad7ae8e4ae4bcdafaf5ebfe2e04c = private unnamed_addr constant [11 x i8] c"oob_dyn.rs\00", align 1
@alloc_2683306d5488a2c41ac6fd3c75e17ef9 = private unnamed_addr constant <{ ptr, [16 x i8] }> <{ ptr @alloc_bdb4ad7ae8e4ae4bcdafaf5ebfe2e04c, [16 x i8] c"\0A\00\00\00\00\00\00\00\0B\00\00\00(\00\00\00" }>, align 8
@alloc_6932f2c6012696891faa9c18d861b9ae = private unnamed_addr constant [14 x i8] c"Invalid number", align 1
@alloc_7a0bf4429fdb2d39f367af9acaaddd97 = private unnamed_addr constant <{ ptr, [16 x i8] }> <{ ptr @alloc_bdb4ad7ae8e4ae4bcdafaf5ebfe2e04c, [16 x i8] c"\0A\00\00\00\00\00\00\00\0C\00\00\00.\00\00\00" }>, align 8
@alloc_e0e822fc87dbd94cb05fd90e79f0313c = private unnamed_addr constant <{ ptr, [16 x i8] }> <{ ptr @alloc_bdb4ad7ae8e4ae4bcdafaf5ebfe2e04c, [16 x i8] c"\0A\00\00\00\00\00\00\00\0D\00\00\00&\00\00\00" }>, align 8
@alloc_e0f054d5a1399f09e5f3cfd4e9a6526c = private unnamed_addr constant [4 x i8] c"arr[", align 1
@alloc_428053e6434889c8e3f16313e3d2a9ba = private unnamed_addr constant [4 x i8] c"] = ", align 1
@alloc_49a1e817e911805af64bbc7efb390101 = private unnamed_addr constant [1 x i8] c"\0A", align 1
@alloc_1479a89dcf50f86a1659658f01ede732 = private unnamed_addr constant <{ ptr, [8 x i8], ptr, [8 x i8], ptr, [8 x i8] }> <{ ptr @alloc_e0f054d5a1399f09e5f3cfd4e9a6526c, [8 x i8] c"\04\00\00\00\00\00\00\00", ptr @alloc_428053e6434889c8e3f16313e3d2a9ba, [8 x i8] c"\04\00\00\00\00\00\00\00", ptr @alloc_49a1e817e911805af64bbc7efb390101, [8 x i8] c"\01\00\00\00\00\00\00\00" }>, align 8
@alloc_e79bf453b6e5f4280a7de25c0af5734e = private unnamed_addr constant [16 x i8] c"Enter a value: \0A", align 1
@alloc_b923adcdaea1fdc04157bd95d272bfb5 = private unnamed_addr constant <{ ptr, [8 x i8] }> <{ ptr @alloc_e79bf453b6e5f4280a7de25c0af5734e, [8 x i8] c"\10\00\00\00\00\00\00\00" }>, align 8
@alloc_c3c5a2b545d8bd77ed927bbb9a38f4e1 = private unnamed_addr constant [19 x i8] c"Failed to read line", align 1
@alloc_4c593484466ca9f0c25234d6dd1e5158 = private unnamed_addr constant <{ ptr, [16 x i8] }> <{ ptr @alloc_bdb4ad7ae8e4ae4bcdafaf5ebfe2e04c, [16 x i8] c"\0A\00\00\00\00\00\00\00\10\00\00\00.\00\00\00" }>, align 8
@alloc_d8a0e97a7e38aa9ea4c9a9ffa3b0f756 = private unnamed_addr constant [14 x i8] c"Number Invalid", align 1
@alloc_0cff07c0d56e1ade5203b09e8c92ca8c = private unnamed_addr constant <{ ptr, [16 x i8] }> <{ ptr @alloc_bdb4ad7ae8e4ae4bcdafaf5ebfe2e04c, [16 x i8] c"\0A\00\00\00\00\00\00\00\11\00\00\002\00\00\00" }>, align 8
@alloc_008b1a91ef4df68b7b6bbfd692740c4d = private unnamed_addr constant [17 x i8] c"Write after, arr[", align 1
@alloc_c9fb644c14465cf8ddcfdc9af7a158c0 = private unnamed_addr constant <{ ptr, [8 x i8], ptr, [8 x i8], ptr, [8 x i8] }> <{ ptr @alloc_008b1a91ef4df68b7b6bbfd692740c4d, [8 x i8] c"\11\00\00\00\00\00\00\00", ptr @alloc_428053e6434889c8e3f16313e3d2a9ba, [8 x i8] c"\04\00\00\00\00\00\00\00", ptr @alloc_49a1e817e911805af64bbc7efb390101, [8 x i8] c"\01\00\00\00\00\00\00\00" }>, align 8
@"switch.table._ZN42_$LT$$RF$T$u20$as$u20$core..fmt..Debug$GT$3fmt17h5ee91848f2e025b7E" = private unnamed_addr constant [5 x i64] [i64 5, i64 12, i64 11, i64 11, i64 4], align 8
@"switch.table._ZN42_$LT$$RF$T$u20$as$u20$core..fmt..Debug$GT$3fmt17h5ee91848f2e025b7E.22.rel" = private unnamed_addr constant [5 x i32] [i32 trunc (i64 sub (i64 ptrtoint (ptr @alloc_59ba7b9f7211443cd55a366616eef46a to i64), i64 ptrtoint (ptr @"switch.table._ZN42_$LT$$RF$T$u20$as$u20$core..fmt..Debug$GT$3fmt17h5ee91848f2e025b7E.22.rel" to i64)) to i32), i32 trunc (i64 sub (i64 ptrtoint (ptr @alloc_00315c78e51d29fe6b3102a4c1ecf6ef to i64), i64 ptrtoint (ptr @"switch.table._ZN42_$LT$$RF$T$u20$as$u20$core..fmt..Debug$GT$3fmt17h5ee91848f2e025b7E.22.rel" to i64)) to i32), i32 trunc (i64 sub (i64 ptrtoint (ptr @alloc_bd3a3f3879e0d5f64554753e977f58d4 to i64), i64 ptrtoint (ptr @"switch.table._ZN42_$LT$$RF$T$u20$as$u20$core..fmt..Debug$GT$3fmt17h5ee91848f2e025b7E.22.rel" to i64)) to i32), i32 trunc (i64 sub (i64 ptrtoint (ptr @alloc_0964bb2a4870637395c77a018495bd5c to i64), i64 ptrtoint (ptr @"switch.table._ZN42_$LT$$RF$T$u20$as$u20$core..fmt..Debug$GT$3fmt17h5ee91848f2e025b7E.22.rel" to i64)) to i32), i32 trunc (i64 sub (i64 ptrtoint (ptr @alloc_6566120a3a17f930e960a0863fcbd591 to i64), i64 ptrtoint (ptr @"switch.table._ZN42_$LT$$RF$T$u20$as$u20$core..fmt..Debug$GT$3fmt17h5ee91848f2e025b7E.22.rel" to i64)) to i32)], align 4

; std::rt::lang_start
; Function Attrs: nonlazybind uwtable
define hidden noundef i64 @_ZN3std2rt10lang_start17hcaabff07a890c72cE(ptr noundef nonnull %main, i64 noundef %argc, ptr noundef %argv, i8 noundef %sigpipe) unnamed_addr #0 {
start:
  %_7 = alloca [8 x i8], align 8
  call void @llvm.lifetime.start.p0(i64 8, ptr nonnull %_7)
  store ptr %main, ptr %_7, align 8
; call std::rt::lang_start_internal
  %_0 = call noundef i64 @_ZN3std2rt19lang_start_internal17h6ba36b077a531782E(ptr noundef nonnull align 1 %_7, ptr noalias noundef readonly align 8 captures(address, read_provenance) dereferenceable(48) @vtable.0, i64 noundef %argc, ptr noundef %argv, i8 noundef %sigpipe)
  call void @llvm.lifetime.end.p0(i64 8, ptr nonnull %_7)
  ret i64 %_0
}

; std::rt::lang_start::{{closure}}
; Function Attrs: inlinehint nonlazybind uwtable
define internal noundef i32 @"_ZN3std2rt10lang_start28_$u7b$$u7b$closure$u7d$$u7d$17h777c3308bd82c159E"(ptr noalias noundef readonly align 8 captures(none) dereferenceable(8) %_1) unnamed_addr #1 {
start:
  %_4 = load ptr, ptr %_1, align 8, !nonnull !4, !noundef !4
; call std::sys::backtrace::__rust_begin_short_backtrace
  tail call fastcc void @_ZN3std3sys9backtrace28__rust_begin_short_backtrace17h9571ec065b0a9078E(ptr noundef nonnull %_4)
  ret i32 0
}

; std::sys::backtrace::__rust_begin_short_backtrace
; Function Attrs: noinline nonlazybind uwtable
define internal fastcc void @_ZN3std3sys9backtrace28__rust_begin_short_backtrace17h9571ec065b0a9078E(ptr noundef nonnull readonly captures(none) %f) unnamed_addr #2 {
start:
  tail call void %f()
  tail call void asm sideeffect "", "~{memory}"() #14, !srcloc !5
  ret void
}

; <&T as core::fmt::Debug>::fmt
; Function Attrs: nonlazybind uwtable
define internal noundef zeroext i1 @"_ZN42_$LT$$RF$T$u20$as$u20$core..fmt..Debug$GT$3fmt17h5ee91848f2e025b7E"(ptr noalias noundef readonly align 8 captures(none) dereferenceable(8) %self, ptr noalias noundef align 8 dereferenceable(24) %f) unnamed_addr #0 {
start:
  %_3 = load ptr, ptr %self, align 8, !nonnull !4, !align !6, !noundef !4
  %_3.val = load i8, ptr %_3, align 1, !range !7, !noundef !4
  %0 = zext nneg i8 %_3.val to i64
  %switch.gep = getelementptr inbounds nuw [5 x i64], ptr @"switch.table._ZN42_$LT$$RF$T$u20$as$u20$core..fmt..Debug$GT$3fmt17h5ee91848f2e025b7E", i64 0, i64 %0
  %switch.load = load i64, ptr %switch.gep, align 8
  %1 = zext nneg i8 %_3.val to i64
  %reltable.shift = shl i64 %1, 2
  %reltable.intrinsic = call ptr @llvm.load.relative.i64(ptr @"switch.table._ZN42_$LT$$RF$T$u20$as$u20$core..fmt..Debug$GT$3fmt17h5ee91848f2e025b7E.22.rel", i64 %reltable.shift)
; call core::fmt::Formatter::write_str
  %_0.i = tail call noundef zeroext i1 @_ZN4core3fmt9Formatter9write_str17haacafd99ed76659fE(ptr noalias noundef nonnull align 8 dereferenceable(24) %f, ptr noalias noundef nonnull readonly align 1 captures(address, read_provenance) %reltable.intrinsic, i64 noundef %switch.load)
  ret i1 %_0.i
}

; core::ops::function::FnOnce::call_once{{vtable.shim}}
; Function Attrs: inlinehint nonlazybind uwtable
define internal noundef i32 @"_ZN4core3ops8function6FnOnce40call_once$u7b$$u7b$vtable.shim$u7d$$u7d$17h0c4167313151a682E"(ptr noundef readonly captures(none) %_1) unnamed_addr #1 personality ptr @rust_eh_personality {
start:
  %0 = load ptr, ptr %_1, align 8, !nonnull !4, !noundef !4
; call std::sys::backtrace::__rust_begin_short_backtrace
  tail call fastcc void @_ZN3std3sys9backtrace28__rust_begin_short_backtrace17h9571ec065b0a9078E(ptr noundef nonnull readonly %0), !noalias !8
  ret i32 0
}

; core::ptr::drop_in_place<std::io::error::Error>
; Function Attrs: nonlazybind uwtable
define internal void @"_ZN4core3ptr42drop_in_place$LT$std..io..error..Error$GT$17h9e6eeb4571b17a1aE"(ptr noalias noundef readonly align 8 captures(none) dereferenceable(8) %_1) unnamed_addr #0 personality ptr @rust_eh_personality {
start:
  %_1.val = load ptr, ptr %_1, align 8, !nonnull !4, !noundef !4
  %0 = ptrtoint ptr %_1.val to i64
  %_5.i.i.i = and i64 %0, 3
  %switch.i.i = icmp eq i64 %_5.i.i.i, 1
  br i1 %switch.i.i, label %bb2.i2.i.i, label %"_ZN4core3ptr57drop_in_place$LT$std..io..error..repr_bitpacked..Repr$GT$17h9bd9a70d9458ed92E.exit", !prof !11

bb2.i2.i.i:                                       ; preds = %start
  %1 = getelementptr i8, ptr %_1.val, i64 -1
  %2 = icmp ne ptr %1, null
  tail call void @llvm.assume(i1 %2)
  %_6.val.i.i.i.i = load ptr, ptr %1, align 8
  %3 = getelementptr i8, ptr %_1.val, i64 7
  %_6.val1.i.i.i.i = load ptr, ptr %3, align 8, !nonnull !4, !align !12, !noundef !4
  %4 = load ptr, ptr %_6.val1.i.i.i.i, align 8, !invariant.load !4
  %.not.i.i.i.i.i.i = icmp eq ptr %4, null
  br i1 %.not.i.i.i.i.i.i, label %bb3.i.i.i.i.i.i, label %is_not_null.i.i.i.i.i.i

is_not_null.i.i.i.i.i.i:                          ; preds = %bb2.i2.i.i
  %5 = icmp ne ptr %_6.val.i.i.i.i, null
  tail call void @llvm.assume(i1 %5)
  invoke void %4(ptr noundef nonnull %_6.val.i.i.i.i)
          to label %bb3.i.i.i.i.i.i unwind label %cleanup.i.i.i.i.i.i

bb3.i.i.i.i.i.i:                                  ; preds = %is_not_null.i.i.i.i.i.i, %bb2.i2.i.i
  %6 = icmp ne ptr %_6.val.i.i.i.i, null
  tail call void @llvm.assume(i1 %6)
  %7 = getelementptr inbounds nuw i8, ptr %_6.val1.i.i.i.i, i64 8
  %8 = load i64, ptr %7, align 8, !range !13, !invariant.load !4
  %9 = getelementptr inbounds nuw i8, ptr %_6.val1.i.i.i.i, i64 16
  %10 = load i64, ptr %9, align 8, !range !14, !invariant.load !4
  %11 = add i64 %10, -1
  %12 = icmp sgt i64 %11, -1
  tail call void @llvm.assume(i1 %12)
  %13 = icmp eq i64 %8, 0
  br i1 %13, label %"_ZN4core3ptr68drop_in_place$LT$alloc..boxed..Box$LT$std..io..error..Custom$GT$$GT$17h777fe117dc6c522cE.exit.i.i.i", label %"_ZN63_$LT$alloc..alloc..Global$u20$as$u20$core..alloc..Allocator$GT$10deallocate17h1e0b43146c957e5eE.exit.i.i.i.i.i.i.i"

"_ZN63_$LT$alloc..alloc..Global$u20$as$u20$core..alloc..Allocator$GT$10deallocate17h1e0b43146c957e5eE.exit.i.i.i.i.i.i.i": ; preds = %bb3.i.i.i.i.i.i
; call __rustc::__rust_dealloc
  tail call void @_RNvCskdKJRKLKjqM_7___rustc14___rust_dealloc(ptr noundef nonnull %_6.val.i.i.i.i, i64 noundef %8, i64 noundef range(i64 1, -9223372036854775807) %10) #14
  br label %"_ZN4core3ptr68drop_in_place$LT$alloc..boxed..Box$LT$std..io..error..Custom$GT$$GT$17h777fe117dc6c522cE.exit.i.i.i"

cleanup.i.i.i.i.i.i:                              ; preds = %is_not_null.i.i.i.i.i.i
  %14 = landingpad { ptr, i32 }
          cleanup
  %15 = getelementptr inbounds nuw i8, ptr %_6.val1.i.i.i.i, i64 8
  %16 = load i64, ptr %15, align 8, !range !13, !invariant.load !4
  %17 = getelementptr inbounds nuw i8, ptr %_6.val1.i.i.i.i, i64 16
  %18 = load i64, ptr %17, align 8, !range !14, !invariant.load !4
  %19 = add i64 %18, -1
  %20 = icmp sgt i64 %19, -1
  tail call void @llvm.assume(i1 %20)
  %21 = icmp eq i64 %16, 0
  br i1 %21, label %bb1.i.i.i.i, label %"_ZN63_$LT$alloc..alloc..Global$u20$as$u20$core..alloc..Allocator$GT$10deallocate17h1e0b43146c957e5eE.exit.i4.i.i.i.i.i.i"

"_ZN63_$LT$alloc..alloc..Global$u20$as$u20$core..alloc..Allocator$GT$10deallocate17h1e0b43146c957e5eE.exit.i4.i.i.i.i.i.i": ; preds = %cleanup.i.i.i.i.i.i
; call __rustc::__rust_dealloc
  tail call void @_RNvCskdKJRKLKjqM_7___rustc14___rust_dealloc(ptr noundef nonnull %_6.val.i.i.i.i, i64 noundef %16, i64 noundef range(i64 1, -9223372036854775807) %18) #14
  br label %bb1.i.i.i.i

bb1.i.i.i.i:                                      ; preds = %"_ZN63_$LT$alloc..alloc..Global$u20$as$u20$core..alloc..Allocator$GT$10deallocate17h1e0b43146c957e5eE.exit.i4.i.i.i.i.i.i", %cleanup.i.i.i.i.i.i
; call __rustc::__rust_dealloc
  tail call void @_RNvCskdKJRKLKjqM_7___rustc14___rust_dealloc(ptr noundef nonnull %1, i64 noundef 24, i64 noundef 8) #14
  resume { ptr, i32 } %14

"_ZN4core3ptr68drop_in_place$LT$alloc..boxed..Box$LT$std..io..error..Custom$GT$$GT$17h777fe117dc6c522cE.exit.i.i.i": ; preds = %"_ZN63_$LT$alloc..alloc..Global$u20$as$u20$core..alloc..Allocator$GT$10deallocate17h1e0b43146c957e5eE.exit.i.i.i.i.i.i.i", %bb3.i.i.i.i.i.i
; call __rustc::__rust_dealloc
  tail call void @_RNvCskdKJRKLKjqM_7___rustc14___rust_dealloc(ptr noundef nonnull %1, i64 noundef 24, i64 noundef 8) #14
  br label %"_ZN4core3ptr57drop_in_place$LT$std..io..error..repr_bitpacked..Repr$GT$17h9bd9a70d9458ed92E.exit"

"_ZN4core3ptr57drop_in_place$LT$std..io..error..repr_bitpacked..Repr$GT$17h9bd9a70d9458ed92E.exit": ; preds = %start, %"_ZN4core3ptr68drop_in_place$LT$alloc..boxed..Box$LT$std..io..error..Custom$GT$$GT$17h777fe117dc6c522cE.exit.i.i.i"
  ret void
}

; core::str::<impl str>::trim_matches
; Function Attrs: nofree norecurse nosync nounwind nonlazybind memory(read, inaccessiblemem: write) uwtable
define internal fastcc { ptr, i64 } @"_ZN4core3str21_$LT$impl$u20$str$GT$12trim_matches17h6e1b573db34337eeE"(ptr noalias noundef nonnull readonly align 1 captures(address, read_provenance) %self.0, i64 noundef %self.1) unnamed_addr #3 personality ptr @rust_eh_personality {
start:
  %_7.i.i.i = getelementptr inbounds nuw i8, ptr %self.0, i64 %self.1
  %_6.i.i.i.i11.i.i = icmp samesign eq i64 %self.1, 0
  br i1 %_6.i.i.i.i11.i.i, label %bb5, label %bb14.i.i.i.i.i

bb14.i.i.i.i.i:                                   ; preds = %start, %bb5.i.i
  %0 = phi i64 [ %7, %bb5.i.i ], [ 0, %start ]
  %_18.i23.i.i.i1012.i.i = phi ptr [ %_25.i.i.i, %bb5.i.i ], [ %self.0, %start ]
  %1 = ptrtoint ptr %_18.i23.i.i.i1012.i.i to i64
  %_18.i.i.i.i.i.i = getelementptr inbounds nuw i8, ptr %_18.i23.i.i.i1012.i.i, i64 1
  %x.i.i.i.i.i = load i8, ptr %_18.i23.i.i.i1012.i.i, align 1, !noalias !15, !noundef !4
  %_6.i.i.i.i.i = icmp sgt i8 %x.i.i.i.i.i, -1
  br i1 %_6.i.i.i.i.i, label %bb3.i.i.i.i.i, label %bb4.i.i.i.i.i

bb4.i.i.i.i.i:                                    ; preds = %bb14.i.i.i.i.i
  %_31.i.i.i.i.i = and i8 %x.i.i.i.i.i, 31
  %init.i.i.i.i.i = zext nneg i8 %_31.i.i.i.i.i to i32
  %_6.i9.i.i.i.i.i = icmp ne ptr %_18.i.i.i.i.i.i, %_7.i.i.i
  tail call void @llvm.assume(i1 %_6.i9.i.i.i.i.i)
  %_18.i11.i.i.i.i.i = getelementptr inbounds nuw i8, ptr %_18.i23.i.i.i1012.i.i, i64 2
  %y.i.i.i.i.i = load i8, ptr %_18.i.i.i.i.i.i, align 1, !noalias !15, !noundef !4
  %_35.i.i.i.i.i = shl nuw nsw i32 %init.i.i.i.i.i, 6
  %_37.i.i.i.i.i = and i8 %y.i.i.i.i.i, 63
  %_36.i.i.i.i.i = zext nneg i8 %_37.i.i.i.i.i to i32
  %2 = or disjoint i32 %_35.i.i.i.i.i, %_36.i.i.i.i.i
  %_13.i.i.i.i.i = icmp samesign ugt i8 %x.i.i.i.i.i, -33
  br i1 %_13.i.i.i.i.i, label %bb6.i.i.i.i.i, label %bb2.i.i.i

bb3.i.i.i.i.i:                                    ; preds = %bb14.i.i.i.i.i
  %_7.i.i.i.i.i = zext nneg i8 %x.i.i.i.i.i to i32
  br label %bb2.i.i.i

bb6.i.i.i.i.i:                                    ; preds = %bb4.i.i.i.i.i
  %_6.i15.i.i.i.i.i = icmp ne ptr %_18.i11.i.i.i.i.i, %_7.i.i.i
  tail call void @llvm.assume(i1 %_6.i15.i.i.i.i.i)
  %_18.i17.i.i.i.i.i = getelementptr inbounds nuw i8, ptr %_18.i23.i.i.i1012.i.i, i64 3
  %z.i.i.i.i.i = load i8, ptr %_18.i11.i.i.i.i.i, align 1, !noalias !15, !noundef !4
  %_41.i.i.i.i.i = shl nuw nsw i32 %_36.i.i.i.i.i, 6
  %_43.i.i.i.i.i = and i8 %z.i.i.i.i.i, 63
  %_42.i.i.i.i.i = zext nneg i8 %_43.i.i.i.i.i to i32
  %y_z.i.i.i.i.i = or disjoint i32 %_41.i.i.i.i.i, %_42.i.i.i.i.i
  %_20.i.i.i.i.i = shl nuw nsw i32 %init.i.i.i.i.i, 12
  %3 = or disjoint i32 %y_z.i.i.i.i.i, %_20.i.i.i.i.i
  %_21.i.i.i.i.i = icmp samesign ugt i8 %x.i.i.i.i.i, -17
  br i1 %_21.i.i.i.i.i, label %bb8.i.i.i.i.i, label %bb2.i.i.i

bb8.i.i.i.i.i:                                    ; preds = %bb6.i.i.i.i.i
  %_6.i21.i.i.i.i.i = icmp ne ptr %_18.i17.i.i.i.i.i, %_7.i.i.i
  tail call void @llvm.assume(i1 %_6.i21.i.i.i.i.i)
  %_18.i23.i.i.i.i.i = getelementptr inbounds nuw i8, ptr %_18.i23.i.i.i1012.i.i, i64 4
  %w.i.i.i.i.i = load i8, ptr %_18.i17.i.i.i.i.i, align 1, !noalias !15, !noundef !4
  %_26.i.i.i.i.i = shl nuw nsw i32 %init.i.i.i.i.i, 18
  %_25.i.i.i.i.i = and i32 %_26.i.i.i.i.i, 1835008
  %_47.i.i.i.i.i = shl nuw nsw i32 %y_z.i.i.i.i.i, 6
  %_49.i.i.i.i.i = and i8 %w.i.i.i.i.i, 63
  %_48.i.i.i.i.i = zext nneg i8 %_49.i.i.i.i.i to i32
  %_27.i.i.i.i.i = or disjoint i32 %_47.i.i.i.i.i, %_48.i.i.i.i.i
  %4 = or disjoint i32 %_27.i.i.i.i.i, %_25.i.i.i.i.i
  br label %bb2.i.i.i

bb2.i.i.i:                                        ; preds = %bb8.i.i.i.i.i, %bb6.i.i.i.i.i, %bb3.i.i.i.i.i, %bb4.i.i.i.i.i
  %_25.i.i.i = phi ptr [ %_18.i11.i.i.i.i.i, %bb4.i.i.i.i.i ], [ %_18.i17.i.i.i.i.i, %bb6.i.i.i.i.i ], [ %_18.i23.i.i.i.i.i, %bb8.i.i.i.i.i ], [ %_18.i.i.i.i.i.i, %bb3.i.i.i.i.i ]
  %_0.sroa.4.0.i.ph.i.i.i.i = phi i32 [ %2, %bb4.i.i.i.i.i ], [ %3, %bb6.i.i.i.i.i ], [ %4, %bb8.i.i.i.i.i ], [ %_7.i.i.i.i.i, %bb3.i.i.i.i.i ]
  %5 = icmp samesign ult i32 %_0.sroa.4.0.i.ph.i.i.i.i, 1114112
  tail call void @llvm.assume(i1 %5)
  %6 = ptrtoint ptr %_25.i.i.i to i64
  %_10.i.i.i.i = sub i64 %6, %1
  %7 = add i64 %_10.i.i.i.i, %0
  switch i32 %_0.sroa.4.0.i.ph.i.i.i.i, label %bb1.i.i.i.i.i.i [
    i32 32, label %bb5.i.i
    i32 13, label %bb5.i.i
    i32 12, label %bb5.i.i
    i32 11, label %bb5.i.i
    i32 10, label %bb5.i.i
    i32 9, label %bb5.i.i
  ]

bb1.i.i.i.i.i.i:                                  ; preds = %bb2.i.i.i
  %_4.i.i.i.i.i.i = icmp samesign ugt i32 %_0.sroa.4.0.i.ph.i.i.i.i, 127
  br i1 %_4.i.i.i.i.i.i, label %bb5.i.i.i.i.i.i, label %bb5

bb5.i.i.i.i.i.i:                                  ; preds = %bb1.i.i.i.i.i.i
  %_3.i.i.i.i.i.i.i = lshr i32 %_0.sroa.4.0.i.ph.i.i.i.i, 8
  switch i32 %_3.i.i.i.i.i.i.i, label %bb5 [
    i32 0, label %bb6.i.i.i.i.i.i.i
    i32 22, label %bb4.i.i.i.i.i.i.i
    i32 32, label %bb7.i.i.i.i.i.i.i
    i32 48, label %bb2.i.i.i.i.i.i.i
  ]

bb4.i.i.i.i.i.i.i:                                ; preds = %bb5.i.i.i.i.i.i
  %8 = icmp eq i32 %_0.sroa.4.0.i.ph.i.i.i.i, 5760
  %9 = zext i1 %8 to i8
  br label %"_ZN53_$LT$F$u20$as$u20$core..str..pattern..MultiCharEq$GT$7matches17h510c9ae1c9dcd321E.exit.i.i.i"

bb2.i.i.i.i.i.i.i:                                ; preds = %bb5.i.i.i.i.i.i
  %10 = icmp eq i32 %_0.sroa.4.0.i.ph.i.i.i.i, 12288
  %11 = zext i1 %10 to i8
  br label %"_ZN53_$LT$F$u20$as$u20$core..str..pattern..MultiCharEq$GT$7matches17h510c9ae1c9dcd321E.exit.i.i.i"

bb6.i.i.i.i.i.i.i:                                ; preds = %bb5.i.i.i.i.i.i
  %12 = and i32 %_0.sroa.4.0.i.ph.i.i.i.i, 255
  %_8.i.i.i.i.i.i.i = zext nneg i32 %12 to i64
  %13 = getelementptr inbounds nuw i8, ptr @_ZN4core7unicode12unicode_data11white_space14WHITESPACE_MAP17h4cf41e25fd3a5318E, i64 %_8.i.i.i.i.i.i.i
  %_6.i.i.i.i.i.i.i = load i8, ptr %13, align 1, !noalias !29, !noundef !4
  br label %"_ZN53_$LT$F$u20$as$u20$core..str..pattern..MultiCharEq$GT$7matches17h510c9ae1c9dcd321E.exit.i.i.i"

bb7.i.i.i.i.i.i.i:                                ; preds = %bb5.i.i.i.i.i.i
  %14 = and i32 %_0.sroa.4.0.i.ph.i.i.i.i, 255
  %_14.i.i.i.i.i.i.i = zext nneg i32 %14 to i64
  %15 = getelementptr inbounds nuw i8, ptr @_ZN4core7unicode12unicode_data11white_space14WHITESPACE_MAP17h4cf41e25fd3a5318E, i64 %_14.i.i.i.i.i.i.i
  %_12.i.i.i.i.i.i.i = load i8, ptr %15, align 1, !noalias !29, !noundef !4
  %_11.i.i.i.i.i.i.i = lshr i8 %_12.i.i.i.i.i.i.i, 1
  br label %"_ZN53_$LT$F$u20$as$u20$core..str..pattern..MultiCharEq$GT$7matches17h510c9ae1c9dcd321E.exit.i.i.i"

"_ZN53_$LT$F$u20$as$u20$core..str..pattern..MultiCharEq$GT$7matches17h510c9ae1c9dcd321E.exit.i.i.i": ; preds = %bb7.i.i.i.i.i.i.i, %bb6.i.i.i.i.i.i.i, %bb2.i.i.i.i.i.i.i, %bb4.i.i.i.i.i.i.i
  %_0.sroa.0.0.i.i.i.i.i.i.i = phi i8 [ %_6.i.i.i.i.i.i.i, %bb6.i.i.i.i.i.i.i ], [ %9, %bb4.i.i.i.i.i.i.i ], [ %_11.i.i.i.i.i.i.i, %bb7.i.i.i.i.i.i.i ], [ %11, %bb2.i.i.i.i.i.i.i ]
  %16 = trunc i8 %_0.sroa.0.0.i.i.i.i.i.i.i to i1
  br i1 %16, label %bb5.i.i, label %bb5

bb5.i.i:                                          ; preds = %"_ZN53_$LT$F$u20$as$u20$core..str..pattern..MultiCharEq$GT$7matches17h510c9ae1c9dcd321E.exit.i.i.i", %bb2.i.i.i, %bb2.i.i.i, %bb2.i.i.i, %bb2.i.i.i, %bb2.i.i.i, %bb2.i.i.i
  %_6.i.i.i.i.i.i = icmp eq ptr %_25.i.i.i, %_7.i.i.i
  br i1 %_6.i.i.i.i.i.i, label %bb9, label %bb14.i.i.i.i.i

bb5:                                              ; preds = %bb1.i.i.i.i.i.i, %bb5.i.i.i.i.i.i, %"_ZN53_$LT$F$u20$as$u20$core..str..pattern..MultiCharEq$GT$7matches17h510c9ae1c9dcd321E.exit.i.i.i", %start
  %matcher.sroa.4.051 = phi ptr [ %self.0, %start ], [ %_25.i.i.i, %"_ZN53_$LT$F$u20$as$u20$core..str..pattern..MultiCharEq$GT$7matches17h510c9ae1c9dcd321E.exit.i.i.i" ], [ %_25.i.i.i, %bb5.i.i.i.i.i.i ], [ %_25.i.i.i, %bb1.i.i.i.i.i.i ]
  %matcher.sroa.14.049 = phi i64 [ 0, %start ], [ %7, %"_ZN53_$LT$F$u20$as$u20$core..str..pattern..MultiCharEq$GT$7matches17h510c9ae1c9dcd321E.exit.i.i.i" ], [ %7, %bb5.i.i.i.i.i.i ], [ %7, %bb1.i.i.i.i.i.i ]
  %i.sroa.0.0 = phi i64 [ 0, %start ], [ %0, %"_ZN53_$LT$F$u20$as$u20$core..str..pattern..MultiCharEq$GT$7matches17h510c9ae1c9dcd321E.exit.i.i.i" ], [ %0, %bb5.i.i.i.i.i.i ], [ %0, %bb1.i.i.i.i.i.i ]
  %17 = icmp eq ptr %matcher.sroa.4.051, %_7.i.i.i
  br i1 %17, label %bb9, label %bb17.i.i.i.i.i

bb17.i.i.i.i.i:                                   ; preds = %bb5, %bb5.i.i13
  %_25.i28.i.i.i1213.i.i = phi ptr [ %_24.i.i.i, %bb5.i.i13 ], [ %_7.i.i.i, %bb5 ]
  %_25.i.i.i.i.i.i = getelementptr inbounds i8, ptr %_25.i28.i.i.i1213.i.i, i64 -1
  %w.i.i.i.i.i6 = load i8, ptr %_25.i.i.i.i.i.i, align 1, !noalias !30, !noundef !4
  %_6.i.i.i.i.i7 = icmp sgt i8 %w.i.i.i.i.i6, -1
  br i1 %_6.i.i.i.i.i7, label %bb3.i.i.i.i.i41, label %bb4.i.i.i.i.i8

bb4.i.i.i.i.i8:                                   ; preds = %bb17.i.i.i.i.i
  %18 = icmp ne ptr %matcher.sroa.4.051, %_25.i.i.i.i.i.i
  tail call void @llvm.assume(i1 %18)
  %_25.i16.i.i.i.i.i = getelementptr inbounds i8, ptr %_25.i28.i.i.i1213.i.i, i64 -2
  %z.i.i.i.i.i9 = load i8, ptr %_25.i16.i.i.i.i.i, align 1, !noalias !30, !noundef !4
  %_36.i.i.i.i.i10 = and i8 %z.i.i.i.i.i9, 31
  %_13.i.i.i.i.i11 = zext nneg i8 %_36.i.i.i.i.i10 to i32
  %_14.i.i.i.i.i = icmp slt i8 %z.i.i.i.i.i9, -64
  br i1 %_14.i.i.i.i.i, label %bb6.i.i.i.i.i32, label %bb13.i.i.i.i.i

bb3.i.i.i.i.i41:                                  ; preds = %bb17.i.i.i.i.i
  %_8.i.i.i.i.i = zext nneg i8 %w.i.i.i.i.i6 to i32
  br label %bb2.i.i.i12

bb6.i.i.i.i.i32:                                  ; preds = %bb4.i.i.i.i.i8
  %19 = icmp ne ptr %matcher.sroa.4.051, %_25.i16.i.i.i.i.i
  tail call void @llvm.assume(i1 %19)
  %_25.i22.i.i.i.i.i = getelementptr inbounds i8, ptr %_25.i28.i.i.i1213.i.i, i64 -3
  %y.i.i.i.i.i33 = load i8, ptr %_25.i22.i.i.i.i.i, align 1, !noalias !30, !noundef !4
  %_41.i.i.i.i.i34 = and i8 %y.i.i.i.i.i33, 15
  %_18.i.i.i.i.i = zext nneg i8 %_41.i.i.i.i.i34 to i32
  %_19.i.i.i.i.i = icmp slt i8 %y.i.i.i.i.i33, -64
  br i1 %_19.i.i.i.i.i, label %bb8.i.i.i.i.i36, label %bb11.i.i.i.i.i

bb13.i.i.i.i.i:                                   ; preds = %bb11.i.i.i.i.i, %bb4.i.i.i.i.i8
  %_2216.i.i.i.i = phi ptr [ %_2217.i.i.i.i, %bb11.i.i.i.i.i ], [ %_25.i16.i.i.i.i.i, %bb4.i.i.i.i.i8 ]
  %ch.sroa.0.0.i.i.i.i.i = phi i32 [ %_26.i.i.i.i.i35, %bb11.i.i.i.i.i ], [ %_13.i.i.i.i.i11, %bb4.i.i.i.i.i8 ]
  %_53.i.i.i.i.i = shl nuw nsw i32 %ch.sroa.0.0.i.i.i.i.i, 6
  %_55.i.i.i.i.i = and i8 %w.i.i.i.i.i6, 63
  %_54.i.i.i.i.i = zext nneg i8 %_55.i.i.i.i.i to i32
  %_28.i.i.i.i.i = or disjoint i32 %_53.i.i.i.i.i, %_54.i.i.i.i.i
  br label %bb2.i.i.i12

bb8.i.i.i.i.i36:                                  ; preds = %bb6.i.i.i.i.i32
  %20 = icmp ne ptr %matcher.sroa.4.051, %_25.i22.i.i.i.i.i
  tail call void @llvm.assume(i1 %20)
  %_25.i28.i.i.i.i.i = getelementptr inbounds i8, ptr %_25.i28.i.i.i1213.i.i, i64 -4
  %x.i.i.i.i.i37 = load i8, ptr %_25.i28.i.i.i.i.i, align 1, !noalias !30, !noundef !4
  %_46.i.i.i.i.i = and i8 %x.i.i.i.i.i37, 7
  %_23.i.i.i.i.i = zext nneg i8 %_46.i.i.i.i.i to i32
  %_47.i.i.i.i.i38 = shl nuw nsw i32 %_23.i.i.i.i.i, 6
  %_49.i.i.i.i.i39 = and i8 %y.i.i.i.i.i33, 63
  %_48.i.i.i.i.i40 = zext nneg i8 %_49.i.i.i.i.i39 to i32
  %_24.i.i.i.i.i = or disjoint i32 %_47.i.i.i.i.i38, %_48.i.i.i.i.i40
  br label %bb11.i.i.i.i.i

bb11.i.i.i.i.i:                                   ; preds = %bb8.i.i.i.i.i36, %bb6.i.i.i.i.i32
  %_2217.i.i.i.i = phi ptr [ %_25.i28.i.i.i.i.i, %bb8.i.i.i.i.i36 ], [ %_25.i22.i.i.i.i.i, %bb6.i.i.i.i.i32 ]
  %ch.sroa.0.1.i.i.i.i.i = phi i32 [ %_24.i.i.i.i.i, %bb8.i.i.i.i.i36 ], [ %_18.i.i.i.i.i, %bb6.i.i.i.i.i32 ]
  %_50.i.i.i.i.i = shl nuw nsw i32 %ch.sroa.0.1.i.i.i.i.i, 6
  %_52.i.i.i.i.i = and i8 %z.i.i.i.i.i9, 63
  %_51.i.i.i.i.i = zext nneg i8 %_52.i.i.i.i.i to i32
  %_26.i.i.i.i.i35 = or disjoint i32 %_50.i.i.i.i.i, %_51.i.i.i.i.i
  br label %bb13.i.i.i.i.i

bb2.i.i.i12:                                      ; preds = %bb13.i.i.i.i.i, %bb3.i.i.i.i.i41
  %_24.i.i.i = phi ptr [ %_25.i.i.i.i.i.i, %bb3.i.i.i.i.i41 ], [ %_2216.i.i.i.i, %bb13.i.i.i.i.i ]
  %_0.sroa.4.1.i.ph.i.i.i.i = phi i32 [ %_8.i.i.i.i.i, %bb3.i.i.i.i.i41 ], [ %_28.i.i.i.i.i, %bb13.i.i.i.i.i ]
  %21 = icmp samesign ult i32 %_0.sroa.4.1.i.ph.i.i.i.i, 1114112
  tail call void @llvm.assume(i1 %21)
  switch i32 %_0.sroa.4.1.i.ph.i.i.i.i, label %bb1.i.i.i.i.i.i16 [
    i32 32, label %bb5.i.i13
    i32 13, label %bb5.i.i13
    i32 12, label %bb5.i.i13
    i32 11, label %bb5.i.i13
    i32 10, label %bb5.i.i13
    i32 9, label %bb5.i.i13
  ]

bb1.i.i.i.i.i.i16:                                ; preds = %bb2.i.i.i12
  %_4.i.i.i.i.i.i17 = icmp samesign ugt i32 %_0.sroa.4.1.i.ph.i.i.i.i, 127
  br i1 %_4.i.i.i.i.i.i17, label %bb5.i.i.i.i.i.i19, label %bb7

bb5.i.i.i.i.i.i19:                                ; preds = %bb1.i.i.i.i.i.i16
  %_3.i.i.i.i.i.i.i20 = lshr i32 %_0.sroa.4.1.i.ph.i.i.i.i, 8
  switch i32 %_3.i.i.i.i.i.i.i20, label %bb7 [
    i32 0, label %bb6.i.i.i.i.i.i.i29
    i32 22, label %bb4.i.i.i.i.i.i.i28
    i32 32, label %bb7.i.i.i.i.i.i.i24
    i32 48, label %bb2.i.i.i.i.i.i.i21
  ]

bb4.i.i.i.i.i.i.i28:                              ; preds = %bb5.i.i.i.i.i.i19
  %22 = icmp eq i32 %_0.sroa.4.1.i.ph.i.i.i.i, 5760
  %23 = zext i1 %22 to i8
  br label %"_ZN53_$LT$F$u20$as$u20$core..str..pattern..MultiCharEq$GT$7matches17h510c9ae1c9dcd321E.exit.i.i.i22"

bb2.i.i.i.i.i.i.i21:                              ; preds = %bb5.i.i.i.i.i.i19
  %24 = icmp eq i32 %_0.sroa.4.1.i.ph.i.i.i.i, 12288
  %25 = zext i1 %24 to i8
  br label %"_ZN53_$LT$F$u20$as$u20$core..str..pattern..MultiCharEq$GT$7matches17h510c9ae1c9dcd321E.exit.i.i.i22"

bb6.i.i.i.i.i.i.i29:                              ; preds = %bb5.i.i.i.i.i.i19
  %26 = and i32 %_0.sroa.4.1.i.ph.i.i.i.i, 255
  %_8.i.i.i.i.i.i.i30 = zext nneg i32 %26 to i64
  %27 = getelementptr inbounds nuw i8, ptr @_ZN4core7unicode12unicode_data11white_space14WHITESPACE_MAP17h4cf41e25fd3a5318E, i64 %_8.i.i.i.i.i.i.i30
  %_6.i.i.i.i.i.i.i31 = load i8, ptr %27, align 1, !noalias !44, !noundef !4
  br label %"_ZN53_$LT$F$u20$as$u20$core..str..pattern..MultiCharEq$GT$7matches17h510c9ae1c9dcd321E.exit.i.i.i22"

bb7.i.i.i.i.i.i.i24:                              ; preds = %bb5.i.i.i.i.i.i19
  %28 = and i32 %_0.sroa.4.1.i.ph.i.i.i.i, 255
  %_14.i.i.i.i.i.i.i25 = zext nneg i32 %28 to i64
  %29 = getelementptr inbounds nuw i8, ptr @_ZN4core7unicode12unicode_data11white_space14WHITESPACE_MAP17h4cf41e25fd3a5318E, i64 %_14.i.i.i.i.i.i.i25
  %_12.i.i.i.i.i.i.i26 = load i8, ptr %29, align 1, !noalias !44, !noundef !4
  %_11.i.i.i.i.i.i.i27 = lshr i8 %_12.i.i.i.i.i.i.i26, 1
  br label %"_ZN53_$LT$F$u20$as$u20$core..str..pattern..MultiCharEq$GT$7matches17h510c9ae1c9dcd321E.exit.i.i.i22"

"_ZN53_$LT$F$u20$as$u20$core..str..pattern..MultiCharEq$GT$7matches17h510c9ae1c9dcd321E.exit.i.i.i22": ; preds = %bb7.i.i.i.i.i.i.i24, %bb6.i.i.i.i.i.i.i29, %bb2.i.i.i.i.i.i.i21, %bb4.i.i.i.i.i.i.i28
  %_0.sroa.0.0.i.i.i.i.i.i.i23 = phi i8 [ %_6.i.i.i.i.i.i.i31, %bb6.i.i.i.i.i.i.i29 ], [ %23, %bb4.i.i.i.i.i.i.i28 ], [ %_11.i.i.i.i.i.i.i27, %bb7.i.i.i.i.i.i.i24 ], [ %25, %bb2.i.i.i.i.i.i.i21 ]
  %30 = trunc i8 %_0.sroa.0.0.i.i.i.i.i.i.i23 to i1
  br i1 %30, label %bb5.i.i13, label %bb7

bb5.i.i13:                                        ; preds = %"_ZN53_$LT$F$u20$as$u20$core..str..pattern..MultiCharEq$GT$7matches17h510c9ae1c9dcd321E.exit.i.i.i22", %bb2.i.i.i12, %bb2.i.i.i12, %bb2.i.i.i12, %bb2.i.i.i12, %bb2.i.i.i12, %bb2.i.i.i12
  %31 = icmp eq ptr %matcher.sroa.4.051, %_24.i.i.i
  br i1 %31, label %bb9, label %bb17.i.i.i.i.i

bb7:                                              ; preds = %"_ZN53_$LT$F$u20$as$u20$core..str..pattern..MultiCharEq$GT$7matches17h510c9ae1c9dcd321E.exit.i.i.i22", %bb5.i.i.i.i.i.i19, %bb1.i.i.i.i.i.i16
  %32 = ptrtoint ptr %_25.i28.i.i.i1213.i.i to i64
  %33 = ptrtoint ptr %matcher.sroa.4.051 to i64
  %34 = sub i64 %matcher.sroa.14.049, %33
  %_15.i6.i.i = add i64 %34, %32
  br label %bb9

bb9:                                              ; preds = %bb5.i.i, %bb5.i.i13, %bb5, %bb7
  %i.sroa.0.062 = phi i64 [ %i.sroa.0.0, %bb7 ], [ %i.sroa.0.0, %bb5 ], [ %i.sroa.0.0, %bb5.i.i13 ], [ 0, %bb5.i.i ]
  %j.sroa.0.1 = phi i64 [ %_15.i6.i.i, %bb7 ], [ %matcher.sroa.14.049, %bb5 ], [ %matcher.sroa.14.049, %bb5.i.i13 ], [ 0, %bb5.i.i ]
  %new_len = sub nuw i64 %j.sroa.0.1, %i.sroa.0.062
  %data = getelementptr inbounds nuw i8, ptr %self.0, i64 %i.sroa.0.062
  %35 = insertvalue { ptr, i64 } poison, ptr %data, 0
  %36 = insertvalue { ptr, i64 } %35, i64 %new_len, 1
  ret { ptr, i64 } %36
}

; <core::num::error::ParseIntError as core::fmt::Debug>::fmt
; Function Attrs: inlinehint nonlazybind uwtable
define internal noundef zeroext i1 @"_ZN68_$LT$core..num..error..ParseIntError$u20$as$u20$core..fmt..Debug$GT$3fmt17ha3a87f33f6dad506E"(ptr noalias noundef readonly align 1 captures(address, read_provenance) dereferenceable(1) %self, ptr noalias noundef align 8 dereferenceable(24) %f) unnamed_addr #1 {
start:
  %_5 = alloca [8 x i8], align 8
  call void @llvm.lifetime.start.p0(i64 8, ptr nonnull %_5)
  store ptr %self, ptr %_5, align 8
; call core::fmt::Formatter::debug_struct_field1_finish
  %_0 = call noundef zeroext i1 @_ZN4core3fmt9Formatter26debug_struct_field1_finish17h8a12e96a3fe33b10E(ptr noalias noundef nonnull align 8 dereferenceable(24) %f, ptr noalias noundef nonnull readonly align 1 captures(address, read_provenance) @alloc_f62df14955f7d78bca139b0a7668683d, i64 noundef 13, ptr noalias noundef nonnull readonly align 1 captures(address, read_provenance) @alloc_a5d866b1768ad3f826bccdb004a1a8ae, i64 noundef 4, ptr noundef nonnull align 1 %_5, ptr noalias noundef readonly align 8 captures(address, read_provenance) dereferenceable(32) @vtable.3)
  call void @llvm.lifetime.end.p0(i64 8, ptr nonnull %_5)
  ret i1 %_0
}

; oob_dyn::main
; Function Attrs: nonlazybind uwtable
define hidden void @_ZN7oob_dyn4main17h45d2a1058fd22384E() unnamed_addr #0 personality ptr @rust_eh_personality {
start:
  %e.i58 = alloca [1 x i8], align 1
  %e.i30 = alloca [8 x i8], align 8
  %e.i26 = alloca [1 x i8], align 1
  %e.i = alloca [8 x i8], align 8
  %args2 = alloca [32 x i8], align 8
  %_49 = alloca [48 x i8], align 8
  %_42 = alloca [8 x i8], align 8
  %value_input = alloca [24 x i8], align 8
  %_37 = alloca [48 x i8], align 8
  %args1 = alloca [32 x i8], align 8
  %_28 = alloca [48 x i8], align 8
  %index = alloca [8 x i8], align 8
  %_21 = alloca [8 x i8], align 8
  %input = alloca [24 x i8], align 8
  %_16 = alloca [48 x i8], align 8
  %args = alloca [32 x i8], align 8
  %_7 = alloca [48 x i8], align 8
  %i = alloca [8 x i8], align 8
  %_3 = alloca [48 x i8], align 8
  %arr = alloca [20 x i8], align 16
  call void @llvm.lifetime.start.p0(i64 20, ptr nonnull %arr)
  %0 = getelementptr inbounds nuw i8, ptr %arr, i64 4
  %1 = getelementptr inbounds nuw i8, ptr %arr, i64 8
  %2 = getelementptr inbounds nuw i8, ptr %arr, i64 12
  store <4 x i32> <i32 10, i32 20, i32 30, i32 40>, ptr %arr, align 16
  %3 = getelementptr inbounds nuw i8, ptr %arr, i64 16
  store i32 50, ptr %3, align 16
  call void @llvm.lifetime.start.p0(i64 48, ptr nonnull %_3)
  store ptr @alloc_c1cad7bbef4fb0f907e91d0e9913e61f, ptr %_3, align 8
  %4 = getelementptr inbounds nuw i8, ptr %_3, i64 8
  store i64 1, ptr %4, align 8
  %5 = getelementptr inbounds nuw i8, ptr %_3, i64 32
  store ptr null, ptr %5, align 8
  %6 = getelementptr inbounds nuw i8, ptr %_3, i64 16
  store ptr inttoptr (i64 8 to ptr), ptr %6, align 8
  %7 = getelementptr inbounds nuw i8, ptr %_3, i64 24
  store i64 0, ptr %7, align 8
; call std::io::stdio::_print
  call void @_ZN3std2io5stdio6_print17h361a6d98ea723aceE(ptr noalias noundef nonnull align 8 captures(address) dereferenceable(48) %_3)
  call void @llvm.lifetime.end.p0(i64 48, ptr nonnull %_3)
  %_12.sroa.4.0..sroa_idx = getelementptr inbounds nuw i8, ptr %args, i64 8
  %8 = getelementptr inbounds nuw i8, ptr %args, i64 16
  %_13.sroa.4.0..sroa_idx = getelementptr inbounds nuw i8, ptr %args, i64 24
  %9 = getelementptr inbounds nuw i8, ptr %_7, i64 8
  %10 = getelementptr inbounds nuw i8, ptr %_7, i64 32
  %11 = getelementptr inbounds nuw i8, ptr %_7, i64 16
  %12 = getelementptr inbounds nuw i8, ptr %_7, i64 24
  store i64 0, ptr %i, align 8
  call void @llvm.lifetime.start.p0(i64 48, ptr nonnull %_7)
  call void @llvm.lifetime.start.p0(i64 32, ptr nonnull %args)
  store ptr %i, ptr %args, align 8
  store ptr @"_ZN4core3fmt3num3imp54_$LT$impl$u20$core..fmt..Display$u20$for$u20$usize$GT$3fmt17h47414302a1568dceE", ptr %_12.sroa.4.0..sroa_idx, align 8
  store ptr %arr, ptr %8, align 8
  store ptr @"_ZN4core3fmt3num3imp52_$LT$impl$u20$core..fmt..Display$u20$for$u20$i32$GT$3fmt17h1d34aa19ad65fef9E", ptr %_13.sroa.4.0..sroa_idx, align 8
  store ptr @alloc_1479a89dcf50f86a1659658f01ede732, ptr %_7, align 8
  store i64 3, ptr %9, align 8
  store ptr null, ptr %10, align 8
  store ptr %args, ptr %11, align 8
  store i64 2, ptr %12, align 8
; call std::io::stdio::_print
  call void @_ZN3std2io5stdio6_print17h361a6d98ea723aceE(ptr noalias noundef nonnull align 8 captures(address) dereferenceable(48) %_7)
  call void @llvm.lifetime.end.p0(i64 48, ptr nonnull %_7)
  call void @llvm.lifetime.end.p0(i64 32, ptr nonnull %args)
  store i64 1, ptr %i, align 8
  call void @llvm.lifetime.start.p0(i64 48, ptr nonnull %_7)
  call void @llvm.lifetime.start.p0(i64 32, ptr nonnull %args)
  store ptr %i, ptr %args, align 8
  store ptr @"_ZN4core3fmt3num3imp54_$LT$impl$u20$core..fmt..Display$u20$for$u20$usize$GT$3fmt17h47414302a1568dceE", ptr %_12.sroa.4.0..sroa_idx, align 8
  store ptr %0, ptr %8, align 8
  store ptr @"_ZN4core3fmt3num3imp52_$LT$impl$u20$core..fmt..Display$u20$for$u20$i32$GT$3fmt17h1d34aa19ad65fef9E", ptr %_13.sroa.4.0..sroa_idx, align 8
  store ptr @alloc_1479a89dcf50f86a1659658f01ede732, ptr %_7, align 8
  store i64 3, ptr %9, align 8
  store ptr null, ptr %10, align 8
  store ptr %args, ptr %11, align 8
  store i64 2, ptr %12, align 8
; call std::io::stdio::_print
  call void @_ZN3std2io5stdio6_print17h361a6d98ea723aceE(ptr noalias noundef nonnull align 8 captures(address) dereferenceable(48) %_7)
  call void @llvm.lifetime.end.p0(i64 48, ptr nonnull %_7)
  call void @llvm.lifetime.end.p0(i64 32, ptr nonnull %args)
  store i64 2, ptr %i, align 8
  call void @llvm.lifetime.start.p0(i64 48, ptr nonnull %_7)
  call void @llvm.lifetime.start.p0(i64 32, ptr nonnull %args)
  store ptr %i, ptr %args, align 8
  store ptr @"_ZN4core3fmt3num3imp54_$LT$impl$u20$core..fmt..Display$u20$for$u20$usize$GT$3fmt17h47414302a1568dceE", ptr %_12.sroa.4.0..sroa_idx, align 8
  store ptr %1, ptr %8, align 8
  store ptr @"_ZN4core3fmt3num3imp52_$LT$impl$u20$core..fmt..Display$u20$for$u20$i32$GT$3fmt17h1d34aa19ad65fef9E", ptr %_13.sroa.4.0..sroa_idx, align 8
  store ptr @alloc_1479a89dcf50f86a1659658f01ede732, ptr %_7, align 8
  store i64 3, ptr %9, align 8
  store ptr null, ptr %10, align 8
  store ptr %args, ptr %11, align 8
  store i64 2, ptr %12, align 8
; call std::io::stdio::_print
  call void @_ZN3std2io5stdio6_print17h361a6d98ea723aceE(ptr noalias noundef nonnull align 8 captures(address) dereferenceable(48) %_7)
  call void @llvm.lifetime.end.p0(i64 48, ptr nonnull %_7)
  call void @llvm.lifetime.end.p0(i64 32, ptr nonnull %args)
  store i64 3, ptr %i, align 8
  call void @llvm.lifetime.start.p0(i64 48, ptr nonnull %_7)
  call void @llvm.lifetime.start.p0(i64 32, ptr nonnull %args)
  store ptr %i, ptr %args, align 8
  store ptr @"_ZN4core3fmt3num3imp54_$LT$impl$u20$core..fmt..Display$u20$for$u20$usize$GT$3fmt17h47414302a1568dceE", ptr %_12.sroa.4.0..sroa_idx, align 8
  store ptr %2, ptr %8, align 8
  store ptr @"_ZN4core3fmt3num3imp52_$LT$impl$u20$core..fmt..Display$u20$for$u20$i32$GT$3fmt17h1d34aa19ad65fef9E", ptr %_13.sroa.4.0..sroa_idx, align 8
  store ptr @alloc_1479a89dcf50f86a1659658f01ede732, ptr %_7, align 8
  store i64 3, ptr %9, align 8
  store ptr null, ptr %10, align 8
  store ptr %args, ptr %11, align 8
  store i64 2, ptr %12, align 8
; call std::io::stdio::_print
  call void @_ZN3std2io5stdio6_print17h361a6d98ea723aceE(ptr noalias noundef nonnull align 8 captures(address) dereferenceable(48) %_7)
  call void @llvm.lifetime.end.p0(i64 48, ptr nonnull %_7)
  call void @llvm.lifetime.end.p0(i64 32, ptr nonnull %args)
  store i64 4, ptr %i, align 8
  call void @llvm.lifetime.start.p0(i64 48, ptr nonnull %_7)
  call void @llvm.lifetime.start.p0(i64 32, ptr nonnull %args)
  store ptr %i, ptr %args, align 8
  store ptr @"_ZN4core3fmt3num3imp54_$LT$impl$u20$core..fmt..Display$u20$for$u20$usize$GT$3fmt17h47414302a1568dceE", ptr %_12.sroa.4.0..sroa_idx, align 8
  store ptr %3, ptr %8, align 8
  store ptr @"_ZN4core3fmt3num3imp52_$LT$impl$u20$core..fmt..Display$u20$for$u20$i32$GT$3fmt17h1d34aa19ad65fef9E", ptr %_13.sroa.4.0..sroa_idx, align 8
  store ptr @alloc_1479a89dcf50f86a1659658f01ede732, ptr %_7, align 8
  store i64 3, ptr %9, align 8
  store ptr null, ptr %10, align 8
  store ptr %args, ptr %11, align 8
  store i64 2, ptr %12, align 8
; call std::io::stdio::_print
  call void @_ZN3std2io5stdio6_print17h361a6d98ea723aceE(ptr noalias noundef nonnull align 8 captures(address) dereferenceable(48) %_7)
  call void @llvm.lifetime.end.p0(i64 48, ptr nonnull %_7)
  call void @llvm.lifetime.end.p0(i64 32, ptr nonnull %args)
  call void @llvm.lifetime.start.p0(i64 48, ptr nonnull %_16)
  store ptr @alloc_0f3eac4cc752b86b79bc7e3011b15c8b, ptr %_16, align 8
  %13 = getelementptr inbounds nuw i8, ptr %_16, i64 8
  store i64 1, ptr %13, align 8
  %14 = getelementptr inbounds nuw i8, ptr %_16, i64 32
  store ptr null, ptr %14, align 8
  %15 = getelementptr inbounds nuw i8, ptr %_16, i64 16
  store ptr inttoptr (i64 8 to ptr), ptr %15, align 8
  %16 = getelementptr inbounds nuw i8, ptr %_16, i64 24
  store i64 0, ptr %16, align 8
; call std::io::stdio::_print
  call void @_ZN3std2io5stdio6_print17h361a6d98ea723aceE(ptr noalias noundef nonnull align 8 captures(address) dereferenceable(48) %_16)
  call void @llvm.lifetime.end.p0(i64 48, ptr nonnull %_16)
  call void @llvm.lifetime.start.p0(i64 24, ptr nonnull %input)
  store i64 0, ptr %input, align 8
  %_78.sroa.3.0.input.sroa_idx = getelementptr inbounds nuw i8, ptr %input, i64 8
  store ptr inttoptr (i64 1 to ptr), ptr %_78.sroa.3.0.input.sroa_idx, align 8
  %_78.sroa.4.0.input.sroa_idx = getelementptr inbounds nuw i8, ptr %input, i64 16
  store i64 0, ptr %_78.sroa.4.0.input.sroa_idx, align 8
  call void @llvm.lifetime.start.p0(i64 8, ptr nonnull %_21)
; invoke std::io::stdio::stdin
  %17 = invoke noundef nonnull align 8 ptr @_ZN3std2io5stdio5stdin17h098929a647404888E()
          to label %bb6 unwind label %cleanup

bb23:                                             ; preds = %"_ZN63_$LT$alloc..alloc..Global$u20$as$u20$core..alloc..Allocator$GT$10deallocate17h1e0b43146c957e5eE.exit.i.i.i4.i.i28", %cleanup4.body, %cleanup.i, %cleanup
  %.pn = phi { ptr, i32 } [ %19, %cleanup ], [ %22, %cleanup.i ], [ %eh.lpad-body36, %cleanup4.body ], [ %eh.lpad-body36, %"_ZN63_$LT$alloc..alloc..Global$u20$as$u20$core..alloc..Allocator$GT$10deallocate17h1e0b43146c957e5eE.exit.i.i.i4.i.i28" ]
  %input.val = load i64, ptr %input, align 8
  %18 = icmp eq i64 %input.val, 0
  br i1 %18, label %bb24, label %"_ZN63_$LT$alloc..alloc..Global$u20$as$u20$core..alloc..Allocator$GT$10deallocate17h1e0b43146c957e5eE.exit.i.i.i4.i.i"

"_ZN63_$LT$alloc..alloc..Global$u20$as$u20$core..alloc..Allocator$GT$10deallocate17h1e0b43146c957e5eE.exit.i.i.i4.i.i": ; preds = %bb23
  %input.val20 = load ptr, ptr %_78.sroa.3.0.input.sroa_idx, align 8, !nonnull !4, !noundef !4
; call __rustc::__rust_dealloc
  call void @_RNvCskdKJRKLKjqM_7___rustc14___rust_dealloc(ptr noundef nonnull %input.val20, i64 noundef %input.val, i64 noundef range(i64 1, -9223372036854775807) 1) #14
  br label %bb24

cleanup:                                          ; preds = %bb2.i27, %bb11, %bb10, %panic, %bb6, %start
  %19 = landingpad { ptr, i32 }
          cleanup
  br label %bb23

bb6:                                              ; preds = %start
  store ptr %17, ptr %_21, align 8
; invoke std::io::stdio::Stdin::read_line
  %20 = invoke { i64, ptr } @_ZN3std2io5stdio5Stdin9read_line17h904ff10c15f35ae9E(ptr noalias noundef nonnull readonly align 8 captures(address, read_provenance) dereferenceable(8) %_21, ptr noalias noundef nonnull align 8 dereferenceable(24) %input)
          to label %bb7 unwind label %cleanup

bb7:                                              ; preds = %bb6
  %_19.0 = extractvalue { i64, ptr } %20, 0
  %21 = trunc nuw i64 %_19.0 to i1
  br i1 %21, label %bb2.i, label %bb8, !prof !45

bb2.i:                                            ; preds = %bb7
  %_19.1 = extractvalue { i64, ptr } %20, 1
  call void @llvm.lifetime.start.p0(i64 8, ptr nonnull %e.i), !noalias !46
  store ptr %_19.1, ptr %e.i, align 8, !noalias !46
; invoke core::result::unwrap_failed
  invoke void @_ZN4core6result13unwrap_failed17h0501379eaec3e720E(ptr noalias noundef nonnull readonly align 1 captures(address, read_provenance) @alloc_7a9ce3b84f8b0fbcf9e409bbc3418674, i64 noundef 11, ptr noundef nonnull align 1 %e.i, ptr noalias noundef readonly align 8 captures(address, read_provenance) dereferenceable(32) @vtable.1, ptr noalias noundef nonnull readonly align 8 captures(address, read_provenance) dereferenceable(24) @alloc_2683306d5488a2c41ac6fd3c75e17ef9) #15
          to label %unreachable.i unwind label %cleanup.i

cleanup.i:                                        ; preds = %bb2.i
  %22 = landingpad { ptr, i32 }
          cleanup
; invoke core::ptr::drop_in_place<std::io::error::Error>
  invoke void @"_ZN4core3ptr42drop_in_place$LT$std..io..error..Error$GT$17h9e6eeb4571b17a1aE"(ptr noalias noundef nonnull align 8 dereferenceable(8) %e.i) #16
          to label %bb23 unwind label %terminate.i

unreachable.i:                                    ; preds = %bb2.i
  unreachable

terminate.i:                                      ; preds = %cleanup.i
  %23 = landingpad { ptr, i32 }
          filter [0 x ptr] zeroinitializer
; call core::panicking::panic_in_cleanup
  call void @_ZN4core9panicking16panic_in_cleanup17h5eff40bcc4481d72E() #17
  unreachable

bb8:                                              ; preds = %bb7
  call void @llvm.lifetime.end.p0(i64 8, ptr nonnull %_21)
  %_82 = load ptr, ptr %_78.sroa.3.0.input.sroa_idx, align 8, !nonnull !4, !noundef !4
  %_81 = load i64, ptr %_78.sroa.4.0.input.sroa_idx, align 8, !noundef !4
; call core::str::<impl str>::trim_matches
  %24 = call fastcc { ptr, i64 } @"_ZN4core3str21_$LT$impl$u20$str$GT$12trim_matches17h6e1b573db34337eeE"(ptr noalias noundef nonnull readonly align 1 captures(address, read_provenance) %_82, i64 noundef %_81)
  %_25.0 = extractvalue { ptr, i64 } %24, 0
  %_25.1 = extractvalue { ptr, i64 } %24, 1
  switch i64 %_25.1, label %bb9.i [
    i64 0, label %bb2.i27
    i64 1, label %bb7.i
  ]

bb7.i:                                            ; preds = %bb8
  %25 = load i8, ptr %_25.0, align 1, !alias.scope !50, !noalias !53, !noundef !4
  switch i8 %25, label %bb14.i.preheader [
    i8 43, label %bb2.i27
    i8 45, label %bb2.i27
  ]

bb14.i.preheader:                                 ; preds = %bb11.i, %bb40.i, %bb7.i
  %digits.sroa.0.152.i.ph = phi ptr [ %rest.0.i, %bb11.i ], [ %_25.0, %bb7.i ], [ %_25.0, %bb40.i ]
  %digits.sroa.16.151.i.ph = phi i64 [ %rest.1.i, %bb11.i ], [ 1, %bb7.i ], [ %_25.1, %bb40.i ]
  br label %bb14.i

bb9.i:                                            ; preds = %bb8
  %.pr.i = load i8, ptr %_25.0, align 1, !alias.scope !50, !noalias !53
  %cond.i = icmp eq i8 %.pr.i, 43
  br i1 %cond.i, label %bb11.i, label %bb40.i

bb11.i:                                           ; preds = %bb9.i
  %rest.0.i = getelementptr inbounds nuw i8, ptr %_25.0, i64 1
  %rest.1.i = add i64 %_25.1, -1
  %26 = icmp ult i64 %_25.1, 18
  br i1 %26, label %bb14.i.preheader, label %bb19.i.preheader

bb19.i.preheader:                                 ; preds = %bb40.i, %bb11.i
  %digits.sroa.16.0.i.ph = phi i64 [ %rest.1.i, %bb11.i ], [ %_25.1, %bb40.i ]
  %digits.sroa.0.0.i.ph = phi ptr [ %rest.0.i, %bb11.i ], [ %_25.0, %bb40.i ]
  br label %bb19.i

bb19.i:                                           ; preds = %bb19.i.preheader, %bb23.i
  %result.sroa.0.0.i = phi i64 [ %_76.0.i, %bb23.i ], [ 0, %bb19.i.preheader ]
  %digits.sroa.16.0.i = phi i64 [ %rest.14.i, %bb23.i ], [ %digits.sroa.16.0.i.ph, %bb19.i.preheader ]
  %digits.sroa.0.0.i = phi ptr [ %rest.03.i, %bb23.i ], [ %digits.sroa.0.0.i.ph, %bb19.i.preheader ]
  %_35.not.i = icmp eq i64 %digits.sroa.16.0.i, 0
  br i1 %_35.not.i, label %bb9, label %bb20.i

bb40.i:                                           ; preds = %bb9.i
  %27 = icmp ult i64 %_25.1, 17
  br i1 %27, label %bb14.i.preheader, label %bb19.i.preheader

bb20.i:                                           ; preds = %bb19.i
  %_44.i = load i8, ptr %digits.sroa.0.0.i, align 1, !alias.scope !50, !noalias !53, !noundef !4
  %_43.i = zext i8 %_44.i to i32
  %28 = add nsw i32 %_43.i, -48
  %_14.i.i = icmp ult i32 %28, 10
  br i1 %_14.i.i, label %bb23.i, label %bb2.i27

bb23.i:                                           ; preds = %bb20.i
  %29 = call { i64, i1 } @llvm.umul.with.overflow.i64(i64 %result.sroa.0.0.i, i64 10)
  %_70.0.i = extractvalue { i64, i1 } %29, 0
  %rest.14.i = add i64 %digits.sroa.16.0.i, -1
  %rest.03.i = getelementptr inbounds nuw i8, ptr %digits.sroa.0.0.i, i64 1
  %_70.1.i = extractvalue { i64, i1 } %29, 1
  %x.i = zext nneg i32 %28 to i64
  %_76.0.i = add i64 %_70.0.i, %x.i
  %_76.1.not.i = icmp ult i64 %_76.0.i, %_70.0.i
  %or.cond = select i1 %_70.1.i, i1 true, i1 %_76.1.not.i
  br i1 %or.cond, label %bb2.i27, label %bb19.i

bb14.i:                                           ; preds = %bb14.i.preheader, %bb18.i
  %digits.sroa.0.152.i = phi ptr [ %rest.09.i, %bb18.i ], [ %digits.sroa.0.152.i.ph, %bb14.i.preheader ]
  %digits.sroa.16.151.i = phi i64 [ %rest.110.i, %bb18.i ], [ %digits.sroa.16.151.i.ph, %bb14.i.preheader ]
  %result.sroa.0.150.i = phi i64 [ %32, %bb18.i ], [ 0, %bb14.i.preheader ]
  %_25.i = load i8, ptr %digits.sroa.0.152.i, align 1, !alias.scope !50, !noalias !53, !noundef !4
  %_24.i = zext i8 %_25.i to i32
  %30 = add nsw i32 %_24.i, -48
  %_14.i42.i = icmp ult i32 %30, 10
  br i1 %_14.i42.i, label %bb18.i, label %bb2.i27

bb18.i:                                           ; preds = %bb14.i
  %31 = mul i64 %result.sroa.0.150.i, 10
  %rest.110.i = add nsw i64 %digits.sroa.16.151.i, -1
  %rest.09.i = getelementptr inbounds nuw i8, ptr %digits.sroa.0.152.i, i64 1
  %_29.i = zext nneg i32 %30 to i64
  %32 = add i64 %31, %_29.i
  %_18.not.i = icmp eq i64 %rest.110.i, 0
  br i1 %_18.not.i, label %bb9, label %bb14.i

bb2.i27:                                          ; preds = %bb20.i, %bb23.i, %bb14.i, %bb8, %bb7.i, %bb7.i
  %_24.sroa.4.0.ph = phi i8 [ 1, %bb7.i ], [ 1, %bb7.i ], [ 0, %bb8 ], [ 1, %bb14.i ], [ 1, %bb20.i ], [ 2, %bb23.i ]
  call void @llvm.lifetime.start.p0(i64 1, ptr nonnull %e.i26), !noalias !55
  store i8 %_24.sroa.4.0.ph, ptr %e.i26, align 1, !noalias !55
; invoke core::result::unwrap_failed
  invoke void @_ZN4core6result13unwrap_failed17h0501379eaec3e720E(ptr noalias noundef nonnull readonly align 1 captures(address, read_provenance) @alloc_6932f2c6012696891faa9c18d861b9ae, i64 noundef 14, ptr noundef nonnull align 1 %e.i26, ptr noalias noundef readonly align 8 captures(address, read_provenance) dereferenceable(32) @vtable.2, ptr noalias noundef readonly align 8 captures(address, read_provenance) dereferenceable(24) @alloc_7a0bf4429fdb2d39f367af9acaaddd97) #15
          to label %.noexc unwind label %cleanup

.noexc:                                           ; preds = %bb2.i27
  unreachable

bb9:                                              ; preds = %bb19.i, %bb18.i
  %_24.sroa.1165.0 = phi i64 [ %32, %bb18.i ], [ %result.sroa.0.0.i, %bb19.i ]
  store i64 %_24.sroa.1165.0, ptr %index, align 8
  call void @llvm.lifetime.start.p0(i64 48, ptr nonnull %_28)
  %_31 = icmp ult i64 %_24.sroa.1165.0, 5
  br i1 %_31, label %bb10, label %panic

bb10:                                             ; preds = %bb9
  %args3 = getelementptr inbounds nuw i32, ptr %arr, i64 %_24.sroa.1165.0
  call void @llvm.lifetime.start.p0(i64 32, ptr nonnull %args1)
  store ptr %index, ptr %args1, align 8
  %_33.sroa.4.0..sroa_idx = getelementptr inbounds nuw i8, ptr %args1, i64 8
  store ptr @"_ZN4core3fmt3num3imp54_$LT$impl$u20$core..fmt..Display$u20$for$u20$usize$GT$3fmt17h47414302a1568dceE", ptr %_33.sroa.4.0..sroa_idx, align 8
  %33 = getelementptr inbounds nuw i8, ptr %args1, i64 16
  store ptr %args3, ptr %33, align 8
  %_34.sroa.4.0..sroa_idx = getelementptr inbounds nuw i8, ptr %args1, i64 24
  store ptr @"_ZN4core3fmt3num3imp52_$LT$impl$u20$core..fmt..Display$u20$for$u20$i32$GT$3fmt17h1d34aa19ad65fef9E", ptr %_34.sroa.4.0..sroa_idx, align 8
  store ptr @alloc_1479a89dcf50f86a1659658f01ede732, ptr %_28, align 8
  %34 = getelementptr inbounds nuw i8, ptr %_28, i64 8
  store i64 3, ptr %34, align 8
  %35 = getelementptr inbounds nuw i8, ptr %_28, i64 32
  store ptr null, ptr %35, align 8
  %36 = getelementptr inbounds nuw i8, ptr %_28, i64 16
  store ptr %args1, ptr %36, align 8
  %37 = getelementptr inbounds nuw i8, ptr %_28, i64 24
  store i64 2, ptr %37, align 8
; invoke std::io::stdio::_print
  invoke void @_ZN3std2io5stdio6_print17h361a6d98ea723aceE(ptr noalias noundef nonnull align 8 captures(address) dereferenceable(48) %_28)
          to label %bb11 unwind label %cleanup

panic:                                            ; preds = %bb9
; invoke core::panicking::panic_bounds_check
  invoke void @_ZN4core9panicking18panic_bounds_check17hbc09f5d79f1a5789E(i64 noundef %_24.sroa.1165.0, i64 noundef 5, ptr noalias noundef readonly align 8 captures(address, read_provenance) dereferenceable(24) @alloc_e0e822fc87dbd94cb05fd90e79f0313c) #15
          to label %unreachable unwind label %cleanup

unreachable:                                      ; preds = %panic
  unreachable

bb11:                                             ; preds = %bb10
  call void @llvm.lifetime.end.p0(i64 48, ptr nonnull %_28)
  call void @llvm.lifetime.end.p0(i64 32, ptr nonnull %args1)
  call void @llvm.lifetime.start.p0(i64 48, ptr nonnull %_37)
  store ptr @alloc_b923adcdaea1fdc04157bd95d272bfb5, ptr %_37, align 8
  %38 = getelementptr inbounds nuw i8, ptr %_37, i64 8
  store i64 1, ptr %38, align 8
  %39 = getelementptr inbounds nuw i8, ptr %_37, i64 32
  store ptr null, ptr %39, align 8
  %40 = getelementptr inbounds nuw i8, ptr %_37, i64 16
  store ptr inttoptr (i64 8 to ptr), ptr %40, align 8
  %41 = getelementptr inbounds nuw i8, ptr %_37, i64 24
  store i64 0, ptr %41, align 8
; invoke std::io::stdio::_print
  invoke void @_ZN3std2io5stdio6_print17h361a6d98ea723aceE(ptr noalias noundef nonnull align 8 captures(address) dereferenceable(48) %_37)
          to label %bb12 unwind label %cleanup

bb12:                                             ; preds = %bb11
  call void @llvm.lifetime.end.p0(i64 48, ptr nonnull %_37)
  call void @llvm.lifetime.start.p0(i64 24, ptr nonnull %value_input)
  store i64 0, ptr %value_input, align 8
  %_78.sroa.3.0.value_input.sroa_idx = getelementptr inbounds nuw i8, ptr %value_input, i64 8
  store ptr inttoptr (i64 1 to ptr), ptr %_78.sroa.3.0.value_input.sroa_idx, align 8
  %_78.sroa.4.0.value_input.sroa_idx = getelementptr inbounds nuw i8, ptr %value_input, i64 16
  store i64 0, ptr %_78.sroa.4.0.value_input.sroa_idx, align 8
  call void @llvm.lifetime.start.p0(i64 8, ptr nonnull %_42)
; invoke std::io::stdio::stdin
  %42 = invoke noundef nonnull align 8 ptr @_ZN3std2io5stdio5stdin17h098929a647404888E()
          to label %bb13 unwind label %cleanup4

cleanup4:                                         ; preds = %bb2.i59, %bb17, %bb13, %bb12
  %43 = landingpad { ptr, i32 }
          cleanup
  br label %cleanup4.body

cleanup4.body:                                    ; preds = %cleanup.i32, %cleanup4
  %eh.lpad-body36 = phi { ptr, i32 } [ %43, %cleanup4 ], [ %47, %cleanup.i32 ]
  %value_input.val = load i64, ptr %value_input, align 8
  %44 = icmp eq i64 %value_input.val, 0
  br i1 %44, label %bb23, label %"_ZN63_$LT$alloc..alloc..Global$u20$as$u20$core..alloc..Allocator$GT$10deallocate17h1e0b43146c957e5eE.exit.i.i.i4.i.i28"

"_ZN63_$LT$alloc..alloc..Global$u20$as$u20$core..alloc..Allocator$GT$10deallocate17h1e0b43146c957e5eE.exit.i.i.i4.i.i28": ; preds = %cleanup4.body
  %value_input.val21 = load ptr, ptr %_78.sroa.3.0.value_input.sroa_idx, align 8, !nonnull !4, !noundef !4
; call __rustc::__rust_dealloc
  call void @_RNvCskdKJRKLKjqM_7___rustc14___rust_dealloc(ptr noundef nonnull %value_input.val21, i64 noundef %value_input.val, i64 noundef range(i64 1, -9223372036854775807) 1) #14
  br label %bb23

bb13:                                             ; preds = %bb12
  store ptr %42, ptr %_42, align 8
; invoke std::io::stdio::Stdin::read_line
  %45 = invoke { i64, ptr } @_ZN3std2io5stdio5Stdin9read_line17h904ff10c15f35ae9E(ptr noalias noundef nonnull readonly align 8 captures(address, read_provenance) dereferenceable(8) %_42, ptr noalias noundef nonnull align 8 dereferenceable(24) %value_input)
          to label %bb14 unwind label %cleanup4

bb14:                                             ; preds = %bb13
  %_40.0 = extractvalue { i64, ptr } %45, 0
  %46 = trunc nuw i64 %_40.0 to i1
  br i1 %46, label %bb2.i31, label %bb15, !prof !45

bb2.i31:                                          ; preds = %bb14
  %_40.1 = extractvalue { i64, ptr } %45, 1
  call void @llvm.lifetime.start.p0(i64 8, ptr nonnull %e.i30), !noalias !58
  store ptr %_40.1, ptr %e.i30, align 8, !noalias !58
; invoke core::result::unwrap_failed
  invoke void @_ZN4core6result13unwrap_failed17h0501379eaec3e720E(ptr noalias noundef nonnull readonly align 1 captures(address, read_provenance) @alloc_c3c5a2b545d8bd77ed927bbb9a38f4e1, i64 noundef 19, ptr noundef nonnull align 1 %e.i30, ptr noalias noundef readonly align 8 captures(address, read_provenance) dereferenceable(32) @vtable.1, ptr noalias noundef nonnull readonly align 8 captures(address, read_provenance) dereferenceable(24) @alloc_4c593484466ca9f0c25234d6dd1e5158) #15
          to label %unreachable.i35 unwind label %cleanup.i32

cleanup.i32:                                      ; preds = %bb2.i31
  %47 = landingpad { ptr, i32 }
          cleanup
; invoke core::ptr::drop_in_place<std::io::error::Error>
  invoke void @"_ZN4core3ptr42drop_in_place$LT$std..io..error..Error$GT$17h9e6eeb4571b17a1aE"(ptr noalias noundef nonnull align 8 dereferenceable(8) %e.i30) #16
          to label %cleanup4.body unwind label %terminate.i33

unreachable.i35:                                  ; preds = %bb2.i31
  unreachable

terminate.i33:                                    ; preds = %cleanup.i32
  %48 = landingpad { ptr, i32 }
          filter [0 x ptr] zeroinitializer
; call core::panicking::panic_in_cleanup
  call void @_ZN4core9panicking16panic_in_cleanup17h5eff40bcc4481d72E() #17
  unreachable

bb15:                                             ; preds = %bb14
  call void @llvm.lifetime.end.p0(i64 8, ptr nonnull %_42)
  %_104 = load ptr, ptr %_78.sroa.3.0.value_input.sroa_idx, align 8, !nonnull !4, !noundef !4
  %_103 = load i64, ptr %_78.sroa.4.0.value_input.sroa_idx, align 8, !noundef !4
; call core::str::<impl str>::trim_matches
  %49 = call fastcc { ptr, i64 } @"_ZN4core3str21_$LT$impl$u20$str$GT$12trim_matches17h6e1b573db34337eeE"(ptr noalias noundef nonnull readonly align 1 captures(address, read_provenance) %_104, i64 noundef %_103)
  %_46.0 = extractvalue { ptr, i64 } %49, 0
  %_46.1 = extractvalue { ptr, i64 } %49, 1
  switch i64 %_46.1, label %bb9thread-pre-split.i [
    i64 0, label %bb2.i59
    i64 1, label %bb7.i38
  ]

bb47.loopexit95.split.loop.exit.i:                ; preds = %bb26.i51
  %.mux87.le.i = select i1 %_14.i90.i, i8 1, i8 2
  br label %bb2.i59

bb47.loopexit99.split.loop.exit.i:                ; preds = %bb35.i
  %.mux.le.i = select i1 %_14.i.i41, i8 1, i8 3
  br label %bb2.i59

bb7.i38:                                          ; preds = %bb15
  %50 = load i8, ptr %_46.0, align 1, !alias.scope !62, !noundef !4
  switch i8 %50, label %bb9.i39 [
    i8 43, label %bb2.i59
    i8 45, label %bb2.i59
  ]

bb9thread-pre-split.i:                            ; preds = %bb15
  %.pr.i57 = load i8, ptr %_46.0, align 1, !alias.scope !62
  br label %bb9.i39

bb9.i39:                                          ; preds = %bb9thread-pre-split.i, %bb7.i38
  %51 = phi i8 [ %.pr.i57, %bb9thread-pre-split.i ], [ %50, %bb7.i38 ]
  switch i8 %51, label %bb66.i [
    i8 43, label %bb11.i44
    i8 45, label %bb10.i
  ]

bb11.i44:                                         ; preds = %bb9.i39
  %rest.0.i45 = getelementptr inbounds nuw i8, ptr %_46.0, i64 1
  %rest.1.i46 = add i64 %_46.1, -1
  %52 = icmp ult i64 %_46.1, 9
  br i1 %52, label %bb14.preheader.i52, label %bb25.i48.preheader

bb25.i48.preheader:                               ; preds = %bb66.i, %bb11.i44
  %digits.sroa.27.0.i.ph = phi i64 [ %rest.1.i46, %bb11.i44 ], [ %_46.1, %bb66.i ]
  %digits.sroa.0.0.i50.ph = phi ptr [ %rest.0.i45, %bb11.i44 ], [ %_46.0, %bb66.i ]
  br label %bb25.i48

bb10.i:                                           ; preds = %bb9.i39
  %53 = getelementptr inbounds nuw i8, ptr %_46.0, i64 1
  %54 = add i64 %_46.1, -1
  %55 = icmp ult i64 %_46.1, 9
  br i1 %55, label %bb20.preheader.i, label %bb34.i

bb20.preheader.i:                                 ; preds = %bb10.i
  %_31.not107.i = icmp eq i64 %54, 0
  br i1 %_31.not107.i, label %bb17, label %bb21.i

bb25.i48:                                         ; preds = %bb25.i48.preheader, %bb31.i
  %result.sroa.0.0.i49 = phi i32 [ %_91.0.i, %bb31.i ], [ 0, %bb25.i48.preheader ]
  %digits.sroa.27.0.i = phi i64 [ %rest.114.i, %bb31.i ], [ %digits.sroa.27.0.i.ph, %bb25.i48.preheader ]
  %digits.sroa.0.0.i50 = phi ptr [ %rest.013.i, %bb31.i ], [ %digits.sroa.0.0.i50.ph, %bb25.i48.preheader ]
  %_44.not.i = icmp eq i64 %digits.sroa.27.0.i, 0
  br i1 %_44.not.i, label %bb17, label %bb26.i51

bb34.i:                                           ; preds = %bb10.i, %bb40.i42
  %result.sroa.0.2.i40 = phi i32 [ %_99.0.i, %bb40.i42 ], [ 0, %bb10.i ]
  %digits.sroa.27.2.i = phi i64 [ %rest.15.i, %bb40.i42 ], [ %54, %bb10.i ]
  %digits.sroa.0.2.i = phi ptr [ %rest.04.i, %bb40.i42 ], [ %53, %bb10.i ]
  %_63.not.i = icmp eq i64 %digits.sroa.27.2.i, 0
  br i1 %_63.not.i, label %bb17, label %bb35.i

bb35.i:                                           ; preds = %bb34.i
  %56 = call { i32, i1 } @llvm.smul.with.overflow.i32(i32 %result.sroa.0.2.i40, i32 10)
  %_95.1.i = extractvalue { i32, i1 } %56, 1
  %_72.i = load i8, ptr %digits.sroa.0.2.i, align 1, !alias.scope !62, !noundef !4
  %_71.i = zext i8 %_72.i to i32
  %57 = add nsw i32 %_71.i, -48
  %_14.i.i41 = icmp ugt i32 %57, 9
  %brmerge.i = select i1 %_14.i.i41, i1 true, i1 %_95.1.i
  br i1 %brmerge.i, label %bb47.loopexit99.split.loop.exit.i, label %bb40.i42

bb40.i42:                                         ; preds = %bb35.i
  %_95.0.i = extractvalue { i32, i1 } %56, 0
  %rest.15.i = add i64 %digits.sroa.27.2.i, -1
  %rest.04.i = getelementptr inbounds nuw i8, ptr %digits.sroa.0.2.i, i64 1
  %58 = call { i32, i1 } @llvm.ssub.with.overflow.i32(i32 %_95.0.i, i32 %57)
  %_99.1.i = extractvalue { i32, i1 } %58, 1
  %_99.0.i = extractvalue { i32, i1 } %58, 0
  br i1 %_99.1.i, label %bb2.i59, label %bb34.i

bb21.i:                                           ; preds = %bb20.preheader.i, %bb24.i43
  %digits.sroa.0.3110.i = phi ptr [ %rest.010.i, %bb24.i43 ], [ %53, %bb20.preheader.i ]
  %digits.sroa.27.3109.i = phi i64 [ %rest.111.i, %bb24.i43 ], [ %54, %bb20.preheader.i ]
  %result.sroa.0.4108.i = phi i32 [ %61, %bb24.i43 ], [ 0, %bb20.preheader.i ]
  %_38.i = load i8, ptr %digits.sroa.0.3110.i, align 1, !alias.scope !62, !noundef !4
  %_37.i = zext i8 %_38.i to i32
  %59 = add nsw i32 %_37.i, -48
  %_14.i88.i = icmp ult i32 %59, 10
  br i1 %_14.i88.i, label %bb24.i43, label %bb2.i59

bb24.i43:                                         ; preds = %bb21.i
  %60 = mul i32 %result.sroa.0.4108.i, 10
  %rest.111.i = add nsw i64 %digits.sroa.27.3109.i, -1
  %rest.010.i = getelementptr inbounds nuw i8, ptr %digits.sroa.0.3110.i, i64 1
  %61 = sub i32 %60, %59
  %_31.not.i = icmp eq i64 %rest.111.i, 0
  br i1 %_31.not.i, label %bb17, label %bb21.i

bb66.i:                                           ; preds = %bb9.i39
  %62 = icmp ult i64 %_46.1, 8
  br i1 %62, label %bb15.i.preheader, label %bb25.i48.preheader

bb15.i.preheader:                                 ; preds = %bb14.preheader.i52, %bb66.i
  %digits.sroa.0.1116.i.ph = phi ptr [ %_46.0, %bb66.i ], [ %rest.0.i45, %bb14.preheader.i52 ]
  %digits.sroa.27.1115.i.ph = phi i64 [ %_46.1, %bb66.i ], [ %rest.1.i46, %bb14.preheader.i52 ]
  br label %bb15.i

bb14.preheader.i52:                               ; preds = %bb11.i44
  %_18.not113.i = icmp eq i64 %rest.1.i46, 0
  br i1 %_18.not113.i, label %bb17, label %bb15.i.preheader

bb26.i51:                                         ; preds = %bb25.i48
  %63 = call { i32, i1 } @llvm.smul.with.overflow.i32(i32 %result.sroa.0.0.i49, i32 10)
  %_87.1.i = extractvalue { i32, i1 } %63, 1
  %_53.i = load i8, ptr %digits.sroa.0.0.i50, align 1, !alias.scope !62, !noundef !4
  %_52.i = zext i8 %_53.i to i32
  %64 = add nsw i32 %_52.i, -48
  %_14.i90.i = icmp ugt i32 %64, 9
  %brmerge86.i = select i1 %_14.i90.i, i1 true, i1 %_87.1.i
  br i1 %brmerge86.i, label %bb47.loopexit95.split.loop.exit.i, label %bb31.i

bb31.i:                                           ; preds = %bb26.i51
  %_87.0.i = extractvalue { i32, i1 } %63, 0
  %rest.114.i = add i64 %digits.sroa.27.0.i, -1
  %rest.013.i = getelementptr inbounds nuw i8, ptr %digits.sroa.0.0.i50, i64 1
  %65 = call { i32, i1 } @llvm.sadd.with.overflow.i32(i32 %_87.0.i, i32 %64)
  %_91.1.i = extractvalue { i32, i1 } %65, 1
  %_91.0.i = extractvalue { i32, i1 } %65, 0
  br i1 %_91.1.i, label %bb2.i59, label %bb25.i48

bb15.i:                                           ; preds = %bb15.i.preheader, %bb19.i55
  %digits.sroa.0.1116.i = phi ptr [ %rest.021.i, %bb19.i55 ], [ %digits.sroa.0.1116.i.ph, %bb15.i.preheader ]
  %digits.sroa.27.1115.i = phi i64 [ %rest.122.i, %bb19.i55 ], [ %digits.sroa.27.1115.i.ph, %bb15.i.preheader ]
  %result.sroa.0.1114.i = phi i32 [ %68, %bb19.i55 ], [ 0, %bb15.i.preheader ]
  %_25.i53 = load i8, ptr %digits.sroa.0.1116.i, align 1, !alias.scope !62, !noundef !4
  %_24.i54 = zext i8 %_25.i53 to i32
  %66 = add nsw i32 %_24.i54, -48
  %_14.i92.i = icmp ult i32 %66, 10
  br i1 %_14.i92.i, label %bb19.i55, label %bb2.i59

bb19.i55:                                         ; preds = %bb15.i
  %67 = mul i32 %result.sroa.0.1114.i, 10
  %rest.122.i = add nsw i64 %digits.sroa.27.1115.i, -1
  %rest.021.i = getelementptr inbounds nuw i8, ptr %digits.sroa.0.1116.i, i64 1
  %68 = add i32 %66, %67
  %_18.not.i56 = icmp eq i64 %rest.122.i, 0
  br i1 %_18.not.i56, label %bb17, label %bb15.i

bb2.i59:                                          ; preds = %bb40.i42, %bb21.i, %bb31.i, %bb15.i, %bb15, %bb7.i38, %bb7.i38, %bb47.loopexit95.split.loop.exit.i, %bb47.loopexit99.split.loop.exit.i
  %_0.sroa.12.0.insert.insert.i.ph = phi i8 [ %.mux.le.i, %bb47.loopexit99.split.loop.exit.i ], [ %.mux87.le.i, %bb47.loopexit95.split.loop.exit.i ], [ 1, %bb7.i38 ], [ 1, %bb7.i38 ], [ 0, %bb15 ], [ 1, %bb15.i ], [ 2, %bb31.i ], [ 1, %bb21.i ], [ 3, %bb40.i42 ]
  call void @llvm.lifetime.start.p0(i64 1, ptr nonnull %e.i58)
  store i8 %_0.sroa.12.0.insert.insert.i.ph, ptr %e.i58, align 1
; invoke core::result::unwrap_failed
  invoke void @_ZN4core6result13unwrap_failed17h0501379eaec3e720E(ptr noalias noundef nonnull readonly align 1 captures(address, read_provenance) @alloc_d8a0e97a7e38aa9ea4c9a9ffa3b0f756, i64 noundef 14, ptr noundef nonnull align 1 %e.i58, ptr noalias noundef readonly align 8 captures(address, read_provenance) dereferenceable(32) @vtable.2, ptr noalias noundef readonly align 8 captures(address, read_provenance) dereferenceable(24) @alloc_0cff07c0d56e1ade5203b09e8c92ca8c) #15
          to label %.noexc60 unwind label %cleanup4

.noexc60:                                         ; preds = %bb2.i59
  unreachable

bb17:                                             ; preds = %bb34.i, %bb24.i43, %bb25.i48, %bb19.i55, %bb14.preheader.i52, %bb20.preheader.i
  %result.sroa.0.3.i = phi i32 [ 0, %bb14.preheader.i52 ], [ 0, %bb20.preheader.i ], [ %68, %bb19.i55 ], [ %result.sroa.0.0.i49, %bb25.i48 ], [ %61, %bb24.i43 ], [ %result.sroa.0.2.i40, %bb34.i ]
  %69 = load i64, ptr %index, align 8, !noundef !4
  %70 = getelementptr inbounds nuw i32, ptr %arr, i64 %69
  store i32 %result.sroa.0.3.i, ptr %70, align 4
  call void @llvm.lifetime.start.p0(i64 48, ptr nonnull %_49)
  call void @llvm.lifetime.start.p0(i64 32, ptr nonnull %args2)
  store ptr %index, ptr %args2, align 8
  %_53.sroa.4.0..sroa_idx = getelementptr inbounds nuw i8, ptr %args2, i64 8
  store ptr @"_ZN4core3fmt3num3imp54_$LT$impl$u20$core..fmt..Display$u20$for$u20$usize$GT$3fmt17h47414302a1568dceE", ptr %_53.sroa.4.0..sroa_idx, align 8
  %71 = getelementptr inbounds nuw i8, ptr %args2, i64 16
  store ptr %70, ptr %71, align 8
  %_54.sroa.4.0..sroa_idx = getelementptr inbounds nuw i8, ptr %args2, i64 24
  store ptr @"_ZN4core3fmt3num3imp52_$LT$impl$u20$core..fmt..Display$u20$for$u20$i32$GT$3fmt17h1d34aa19ad65fef9E", ptr %_54.sroa.4.0..sroa_idx, align 8
  store ptr @alloc_c9fb644c14465cf8ddcfdc9af7a158c0, ptr %_49, align 8
  %72 = getelementptr inbounds nuw i8, ptr %_49, i64 8
  store i64 3, ptr %72, align 8
  %73 = getelementptr inbounds nuw i8, ptr %_49, i64 32
  store ptr null, ptr %73, align 8
  %74 = getelementptr inbounds nuw i8, ptr %_49, i64 16
  store ptr %args2, ptr %74, align 8
  %75 = getelementptr inbounds nuw i8, ptr %_49, i64 24
  store i64 2, ptr %75, align 8
; invoke std::io::stdio::_print
  invoke void @_ZN3std2io5stdio6_print17h361a6d98ea723aceE(ptr noalias noundef nonnull align 8 captures(address) dereferenceable(48) %_49)
          to label %bb19 unwind label %cleanup4

bb19:                                             ; preds = %bb17
  call void @llvm.lifetime.end.p0(i64 48, ptr nonnull %_49)
  call void @llvm.lifetime.end.p0(i64 32, ptr nonnull %args2)
  %value_input.val24 = load i64, ptr %value_input, align 8
  %76 = icmp eq i64 %value_input.val24, 0
  br i1 %76, label %bb20, label %"_ZN63_$LT$alloc..alloc..Global$u20$as$u20$core..alloc..Allocator$GT$10deallocate17h1e0b43146c957e5eE.exit.i.i.i4.i.i61"

"_ZN63_$LT$alloc..alloc..Global$u20$as$u20$core..alloc..Allocator$GT$10deallocate17h1e0b43146c957e5eE.exit.i.i.i4.i.i61": ; preds = %bb19
  %value_input.val25 = load ptr, ptr %_78.sroa.3.0.value_input.sroa_idx, align 8, !nonnull !4, !noundef !4
; call __rustc::__rust_dealloc
  call void @_RNvCskdKJRKLKjqM_7___rustc14___rust_dealloc(ptr noundef nonnull %value_input.val25, i64 noundef %value_input.val24, i64 noundef range(i64 1, -9223372036854775807) 1) #14
  br label %bb20

bb20:                                             ; preds = %"_ZN63_$LT$alloc..alloc..Global$u20$as$u20$core..alloc..Allocator$GT$10deallocate17h1e0b43146c957e5eE.exit.i.i.i4.i.i61", %bb19
  call void @llvm.lifetime.end.p0(i64 24, ptr nonnull %value_input)
  %input.val22 = load i64, ptr %input, align 8
  %77 = icmp eq i64 %input.val22, 0
  br i1 %77, label %"_ZN4core3ptr42drop_in_place$LT$alloc..string..String$GT$17h7b8b1de5d5c43b78E.exit64", label %"_ZN63_$LT$alloc..alloc..Global$u20$as$u20$core..alloc..Allocator$GT$10deallocate17h1e0b43146c957e5eE.exit.i.i.i4.i.i63"

"_ZN63_$LT$alloc..alloc..Global$u20$as$u20$core..alloc..Allocator$GT$10deallocate17h1e0b43146c957e5eE.exit.i.i.i4.i.i63": ; preds = %bb20
  %input.val23 = load ptr, ptr %_78.sroa.3.0.input.sroa_idx, align 8, !nonnull !4, !noundef !4
; call __rustc::__rust_dealloc
  call void @_RNvCskdKJRKLKjqM_7___rustc14___rust_dealloc(ptr noundef nonnull %input.val23, i64 noundef %input.val22, i64 noundef range(i64 1, -9223372036854775807) 1) #14
  br label %"_ZN4core3ptr42drop_in_place$LT$alloc..string..String$GT$17h7b8b1de5d5c43b78E.exit64"

"_ZN4core3ptr42drop_in_place$LT$alloc..string..String$GT$17h7b8b1de5d5c43b78E.exit64": ; preds = %bb20, %"_ZN63_$LT$alloc..alloc..Global$u20$as$u20$core..alloc..Allocator$GT$10deallocate17h1e0b43146c957e5eE.exit.i.i.i4.i.i63"
  call void @llvm.lifetime.end.p0(i64 24, ptr nonnull %input)
  call void @llvm.lifetime.end.p0(i64 20, ptr nonnull %arr)
  ret void

bb24:                                             ; preds = %"_ZN63_$LT$alloc..alloc..Global$u20$as$u20$core..alloc..Allocator$GT$10deallocate17h1e0b43146c957e5eE.exit.i.i.i4.i.i", %bb23
  resume { ptr, i32 } %.pn
}

; Function Attrs: mustprogress nocallback nofree nosync nounwind willreturn memory(argmem: readwrite)
declare void @llvm.lifetime.start.p0(i64 immarg, ptr captures(none)) #4

; Function Attrs: mustprogress nocallback nofree nosync nounwind willreturn memory(argmem: readwrite)
declare void @llvm.lifetime.end.p0(i64 immarg, ptr captures(none)) #4

; Function Attrs: mustprogress nocallback nofree nosync nounwind willreturn memory(inaccessiblemem: write)
declare void @llvm.assume(i1 noundef) #5

; Function Attrs: nounwind nonlazybind uwtable
declare noundef range(i32 0, 10) i32 @rust_eh_personality(i32 noundef, i32 noundef, i64 noundef, ptr noundef, ptr noundef) unnamed_addr #6

; std::rt::lang_start_internal
; Function Attrs: nonlazybind uwtable
declare noundef i64 @_ZN3std2rt19lang_start_internal17h6ba36b077a531782E(ptr noundef nonnull align 1, ptr noalias noundef readonly align 8 captures(address, read_provenance) dereferenceable(48), i64 noundef, ptr noundef, i8 noundef) unnamed_addr #0

; Function Attrs: mustprogress nocallback nofree nosync nounwind speculatable willreturn memory(none)
declare { i32, i1 } @llvm.smul.with.overflow.i32(i32, i32) #7

; Function Attrs: mustprogress nocallback nofree nosync nounwind speculatable willreturn memory(none)
declare { i32, i1 } @llvm.ssub.with.overflow.i32(i32, i32) #7

; Function Attrs: mustprogress nocallback nofree nosync nounwind speculatable willreturn memory(none)
declare { i32, i1 } @llvm.sadd.with.overflow.i32(i32, i32) #7

; Function Attrs: mustprogress nocallback nofree nosync nounwind speculatable willreturn memory(none)
declare { i64, i1 } @llvm.umul.with.overflow.i64(i64, i64) #7

; core::panicking::panic_in_cleanup
; Function Attrs: cold minsize noinline noreturn nounwind nonlazybind optsize uwtable
declare void @_ZN4core9panicking16panic_in_cleanup17h5eff40bcc4481d72E() unnamed_addr #8

; <std::io::error::Error as core::fmt::Debug>::fmt
; Function Attrs: nonlazybind uwtable
declare noundef zeroext i1 @"_ZN58_$LT$std..io..error..Error$u20$as$u20$core..fmt..Debug$GT$3fmt17h62ceb23194058131E"(ptr noalias noundef readonly align 8 captures(address, read_provenance) dereferenceable(8), ptr noalias noundef align 8 dereferenceable(24)) unnamed_addr #0

; core::result::unwrap_failed
; Function Attrs: cold noinline noreturn nonlazybind uwtable
declare void @_ZN4core6result13unwrap_failed17h0501379eaec3e720E(ptr noalias noundef nonnull readonly align 1 captures(address, read_provenance), i64 noundef, ptr noundef nonnull align 1, ptr noalias noundef readonly align 8 captures(address, read_provenance) dereferenceable(32), ptr noalias noundef readonly align 8 captures(address, read_provenance) dereferenceable(24)) unnamed_addr #9

; core::panicking::panic_bounds_check
; Function Attrs: cold minsize noinline noreturn nonlazybind optsize uwtable
declare void @_ZN4core9panicking18panic_bounds_check17hbc09f5d79f1a5789E(i64 noundef, i64 noundef, ptr noalias noundef readonly align 8 captures(address, read_provenance) dereferenceable(24)) unnamed_addr #10

; __rustc::__rust_dealloc
; Function Attrs: nounwind nonlazybind allockind("free") uwtable
declare void @_RNvCskdKJRKLKjqM_7___rustc14___rust_dealloc(ptr allocptr noundef, i64 noundef, i64 noundef) unnamed_addr #11

; core::fmt::Formatter::write_str
; Function Attrs: nonlazybind uwtable
declare noundef zeroext i1 @_ZN4core3fmt9Formatter9write_str17haacafd99ed76659fE(ptr noalias noundef align 8 dereferenceable(24), ptr noalias noundef nonnull readonly align 1 captures(address, read_provenance), i64 noundef) unnamed_addr #0

; core::fmt::Formatter::debug_struct_field1_finish
; Function Attrs: nonlazybind uwtable
declare noundef zeroext i1 @_ZN4core3fmt9Formatter26debug_struct_field1_finish17h8a12e96a3fe33b10E(ptr noalias noundef align 8 dereferenceable(24), ptr noalias noundef nonnull readonly align 1 captures(address, read_provenance), i64 noundef, ptr noalias noundef nonnull readonly align 1 captures(address, read_provenance), i64 noundef, ptr noundef nonnull align 1, ptr noalias noundef readonly align 8 captures(address, read_provenance) dereferenceable(32)) unnamed_addr #0

; std::io::stdio::_print
; Function Attrs: nonlazybind uwtable
declare void @_ZN3std2io5stdio6_print17h361a6d98ea723aceE(ptr dead_on_return noalias noundef align 8 captures(address) dereferenceable(48)) unnamed_addr #0

; std::io::stdio::stdin
; Function Attrs: nonlazybind uwtable
declare noundef nonnull align 8 ptr @_ZN3std2io5stdio5stdin17h098929a647404888E() unnamed_addr #0

; std::io::stdio::Stdin::read_line
; Function Attrs: nonlazybind uwtable
declare { i64, ptr } @_ZN3std2io5stdio5Stdin9read_line17h904ff10c15f35ae9E(ptr noalias noundef readonly align 8 captures(address, read_provenance) dereferenceable(8), ptr noalias noundef align 8 dereferenceable(24)) unnamed_addr #0

; core::fmt::num::imp::<impl core::fmt::Display for usize>::fmt
; Function Attrs: nonlazybind uwtable
declare noundef zeroext i1 @"_ZN4core3fmt3num3imp54_$LT$impl$u20$core..fmt..Display$u20$for$u20$usize$GT$3fmt17h47414302a1568dceE"(ptr noalias noundef readonly align 8 captures(address, read_provenance) dereferenceable(8), ptr noalias noundef align 8 dereferenceable(24)) unnamed_addr #0

; core::fmt::num::imp::<impl core::fmt::Display for i32>::fmt
; Function Attrs: nonlazybind uwtable
declare noundef zeroext i1 @"_ZN4core3fmt3num3imp52_$LT$impl$u20$core..fmt..Display$u20$for$u20$i32$GT$3fmt17h1d34aa19ad65fef9E"(ptr noalias noundef readonly align 4 captures(address, read_provenance) dereferenceable(4), ptr noalias noundef align 8 dereferenceable(24)) unnamed_addr #0

; Function Attrs: nonlazybind
define noundef i32 @main(i32 %0, ptr %1) unnamed_addr #12 {
top:
  %_7.i = alloca [8 x i8], align 8
  %2 = sext i32 %0 to i64
  call void @llvm.lifetime.start.p0(i64 8, ptr nonnull %_7.i)
  store ptr @_ZN7oob_dyn4main17h45d2a1058fd22384E, ptr %_7.i, align 8
; call std::rt::lang_start_internal
  %_0.i = call noundef i64 @_ZN3std2rt19lang_start_internal17h6ba36b077a531782E(ptr noundef nonnull align 1 %_7.i, ptr noalias noundef readonly align 8 captures(address, read_provenance) dereferenceable(48) @vtable.0, i64 noundef %2, ptr noundef %1, i8 noundef 0)
  call void @llvm.lifetime.end.p0(i64 8, ptr nonnull %_7.i)
  %3 = trunc i64 %_0.i to i32
  ret i32 %3
}

; Function Attrs: nocallback nofree nosync nounwind willreturn memory(argmem: read)
declare ptr @llvm.load.relative.i64(ptr, i64) #13

attributes #0 = { nonlazybind uwtable "probe-stack"="inline-asm" "target-cpu"="x86-64" }
attributes #1 = { inlinehint nonlazybind uwtable "probe-stack"="inline-asm" "target-cpu"="x86-64" }
attributes #2 = { noinline nonlazybind uwtable "probe-stack"="inline-asm" "target-cpu"="x86-64" }
attributes #3 = { nofree norecurse nosync nounwind nonlazybind memory(read, inaccessiblemem: write) uwtable "probe-stack"="inline-asm" "target-cpu"="x86-64" }
attributes #4 = { mustprogress nocallback nofree nosync nounwind willreturn memory(argmem: readwrite) }
attributes #5 = { mustprogress nocallback nofree nosync nounwind willreturn memory(inaccessiblemem: write) }
attributes #6 = { nounwind nonlazybind uwtable "probe-stack"="inline-asm" "target-cpu"="x86-64" }
attributes #7 = { mustprogress nocallback nofree nosync nounwind speculatable willreturn memory(none) }
attributes #8 = { cold minsize noinline noreturn nounwind nonlazybind optsize uwtable "probe-stack"="inline-asm" "target-cpu"="x86-64" }
attributes #9 = { cold noinline noreturn nonlazybind uwtable "probe-stack"="inline-asm" "target-cpu"="x86-64" }
attributes #10 = { cold minsize noinline noreturn nonlazybind optsize uwtable "probe-stack"="inline-asm" "target-cpu"="x86-64" }
attributes #11 = { nounwind nonlazybind allockind("free") uwtable "alloc-family"="__rust_alloc" "probe-stack"="inline-asm" "target-cpu"="x86-64" }
attributes #12 = { nonlazybind "probe-stack"="inline-asm" "target-cpu"="x86-64" }
attributes #13 = { nocallback nofree nosync nounwind willreturn memory(argmem: read) }
attributes #14 = { nounwind }
attributes #15 = { noreturn }
attributes #16 = { cold }
attributes #17 = { cold noreturn nounwind }

!llvm.module.flags = !{!0, !1, !2}
!llvm.ident = !{!3}

!0 = !{i32 8, !"PIC Level", i32 2}
!1 = !{i32 7, !"PIE Level", i32 2}
!2 = !{i32 2, !"RtLibUseGOT", i32 1}
!3 = !{!"rustc version 1.91.1 (ed61e7d7e 2025-11-07)"}
!4 = !{}
!5 = !{i64 16021795680873370}
!6 = !{i64 1}
!7 = !{i8 0, i8 5}
!8 = !{!9}
!9 = distinct !{!9, !10, !"_ZN3std2rt10lang_start28_$u7b$$u7b$closure$u7d$$u7d$17h777c3308bd82c159E: %_1"}
!10 = distinct !{!10, !"_ZN3std2rt10lang_start28_$u7b$$u7b$closure$u7d$$u7d$17h777c3308bd82c159E"}
!11 = !{!"branch_weights", i32 2000, i32 6001}
!12 = !{i64 8}
!13 = !{i64 0, i64 -9223372036854775808}
!14 = !{i64 1, i64 0}
!15 = !{!16, !18, !20, !22, !23, !25, !26, !28}
!16 = distinct !{!16, !17, !"_ZN4core3str11validations15next_code_point17h3af2560e5bc12f71E: %bytes"}
!17 = distinct !{!17, !"_ZN4core3str11validations15next_code_point17h3af2560e5bc12f71E"}
!18 = distinct !{!18, !19, !"_ZN87_$LT$core..str..iter..CharIndices$u20$as$u20$core..iter..traits..iterator..Iterator$GT$4next17h48457e68ea1e620eE: %self"}
!19 = distinct !{!19, !"_ZN87_$LT$core..str..iter..CharIndices$u20$as$u20$core..iter..traits..iterator..Iterator$GT$4next17h48457e68ea1e620eE"}
!20 = distinct !{!20, !21, !"_ZN97_$LT$core..str..pattern..MultiCharEqSearcher$LT$C$GT$$u20$as$u20$core..str..pattern..Searcher$GT$4next17h092521ef620b7d1dE: %_0"}
!21 = distinct !{!21, !"_ZN97_$LT$core..str..pattern..MultiCharEqSearcher$LT$C$GT$$u20$as$u20$core..str..pattern..Searcher$GT$4next17h092521ef620b7d1dE"}
!22 = distinct !{!22, !21, !"_ZN97_$LT$core..str..pattern..MultiCharEqSearcher$LT$C$GT$$u20$as$u20$core..str..pattern..Searcher$GT$4next17h092521ef620b7d1dE: %self"}
!23 = distinct !{!23, !24, !"_ZN4core3str7pattern8Searcher11next_reject17h2dd085ea928128b9E: %_0"}
!24 = distinct !{!24, !"_ZN4core3str7pattern8Searcher11next_reject17h2dd085ea928128b9E"}
!25 = distinct !{!25, !24, !"_ZN4core3str7pattern8Searcher11next_reject17h2dd085ea928128b9E: %self"}
!26 = distinct !{!26, !27, !"_ZN99_$LT$core..str..pattern..CharPredicateSearcher$LT$F$GT$$u20$as$u20$core..str..pattern..Searcher$GT$11next_reject17he6b91cd90db4aa14E: %_0"}
!27 = distinct !{!27, !"_ZN99_$LT$core..str..pattern..CharPredicateSearcher$LT$F$GT$$u20$as$u20$core..str..pattern..Searcher$GT$11next_reject17he6b91cd90db4aa14E"}
!28 = distinct !{!28, !27, !"_ZN99_$LT$core..str..pattern..CharPredicateSearcher$LT$F$GT$$u20$as$u20$core..str..pattern..Searcher$GT$11next_reject17he6b91cd90db4aa14E: %self"}
!29 = !{!20, !22, !23, !25, !26, !28}
!30 = !{!31, !33, !35, !37, !38, !40, !41, !43}
!31 = distinct !{!31, !32, !"_ZN4core3str11validations23next_code_point_reverse17h4a6990dea14afee7E: %bytes"}
!32 = distinct !{!32, !"_ZN4core3str11validations23next_code_point_reverse17h4a6990dea14afee7E"}
!33 = distinct !{!33, !34, !"_ZN102_$LT$core..str..iter..CharIndices$u20$as$u20$core..iter..traits..double_ended..DoubleEndedIterator$GT$9next_back17h76e3bd467a52c44bE: %self"}
!34 = distinct !{!34, !"_ZN102_$LT$core..str..iter..CharIndices$u20$as$u20$core..iter..traits..double_ended..DoubleEndedIterator$GT$9next_back17h76e3bd467a52c44bE"}
!35 = distinct !{!35, !36, !"_ZN104_$LT$core..str..pattern..MultiCharEqSearcher$LT$C$GT$$u20$as$u20$core..str..pattern..ReverseSearcher$GT$9next_back17h7927da32cff711b9E: %_0"}
!36 = distinct !{!36, !"_ZN104_$LT$core..str..pattern..MultiCharEqSearcher$LT$C$GT$$u20$as$u20$core..str..pattern..ReverseSearcher$GT$9next_back17h7927da32cff711b9E"}
!37 = distinct !{!37, !36, !"_ZN104_$LT$core..str..pattern..MultiCharEqSearcher$LT$C$GT$$u20$as$u20$core..str..pattern..ReverseSearcher$GT$9next_back17h7927da32cff711b9E: %self"}
!38 = distinct !{!38, !39, !"_ZN4core3str7pattern15ReverseSearcher16next_reject_back17h8f97ca7c08bdb7d3E: %_0"}
!39 = distinct !{!39, !"_ZN4core3str7pattern15ReverseSearcher16next_reject_back17h8f97ca7c08bdb7d3E"}
!40 = distinct !{!40, !39, !"_ZN4core3str7pattern15ReverseSearcher16next_reject_back17h8f97ca7c08bdb7d3E: %self"}
!41 = distinct !{!41, !42, !"_ZN106_$LT$core..str..pattern..CharPredicateSearcher$LT$F$GT$$u20$as$u20$core..str..pattern..ReverseSearcher$GT$16next_reject_back17h31cf4454c08338e2E: %_0"}
!42 = distinct !{!42, !"_ZN106_$LT$core..str..pattern..CharPredicateSearcher$LT$F$GT$$u20$as$u20$core..str..pattern..ReverseSearcher$GT$16next_reject_back17h31cf4454c08338e2E"}
!43 = distinct !{!43, !42, !"_ZN106_$LT$core..str..pattern..CharPredicateSearcher$LT$F$GT$$u20$as$u20$core..str..pattern..ReverseSearcher$GT$16next_reject_back17h31cf4454c08338e2E: %self"}
!44 = !{!35, !37, !38, !40, !41, !43}
!45 = !{!"branch_weights", !"expected", i32 1, i32 2000}
!46 = !{!47, !49}
!47 = distinct !{!47, !48, !"_ZN4core6result19Result$LT$T$C$E$GT$6expect17h27b08e8cdf89568eE: %msg.0"}
!48 = distinct !{!48, !"_ZN4core6result19Result$LT$T$C$E$GT$6expect17h27b08e8cdf89568eE"}
!49 = distinct !{!49, !48, !"_ZN4core6result19Result$LT$T$C$E$GT$6expect17h27b08e8cdf89568eE: argument 1"}
!50 = !{!51}
!51 = distinct !{!51, !52, !"_ZN4core3num23_$LT$impl$u20$usize$GT$16from_ascii_radix17h7279a7f1accd3813E: %src.0"}
!52 = distinct !{!52, !"_ZN4core3num23_$LT$impl$u20$usize$GT$16from_ascii_radix17h7279a7f1accd3813E"}
!53 = !{!54}
!54 = distinct !{!54, !52, !"_ZN4core3num23_$LT$impl$u20$usize$GT$16from_ascii_radix17h7279a7f1accd3813E: %_0"}
!55 = !{!56}
!56 = distinct !{!56, !57, !"_ZN4core6result19Result$LT$T$C$E$GT$6expect17h7a61987ee4a9e6dbE: %self"}
!57 = distinct !{!57, !"_ZN4core6result19Result$LT$T$C$E$GT$6expect17h7a61987ee4a9e6dbE"}
!58 = !{!59, !61}
!59 = distinct !{!59, !60, !"_ZN4core6result19Result$LT$T$C$E$GT$6expect17h27b08e8cdf89568eE: %msg.0"}
!60 = distinct !{!60, !"_ZN4core6result19Result$LT$T$C$E$GT$6expect17h27b08e8cdf89568eE"}
!61 = distinct !{!61, !60, !"_ZN4core6result19Result$LT$T$C$E$GT$6expect17h27b08e8cdf89568eE: argument 1"}
!62 = !{!63}
!63 = distinct !{!63, !64, !"_ZN4core3num21_$LT$impl$u20$i32$GT$16from_ascii_radix17hcbc7a36f56bd7621E: %src.0"}
!64 = distinct !{!64, !"_ZN4core3num21_$LT$impl$u20$i32$GT$16from_ascii_radix17hcbc7a36f56bd7621E"}
