; ModuleID = 'overf.369d27429ce70747-cgu.0'
source_filename = "overf.369d27429ce70747-cgu.0"
target datalayout = "e-m:o-p270:32:32-p271:32:32-p272:64:64-i64:64-i128:128-n32:64-S128-Fn32"
target triple = "arm64-apple-macosx11.0.0"

%"core::fmt::rt::Argument<'_>" = type { %"core::fmt::rt::ArgumentType<'_>" }
%"core::fmt::rt::ArgumentType<'_>" = type { ptr, [1 x i64] }

@anon.53f16eec224c883228c428cfded7c828.0 = private unnamed_addr constant <{ [8 x i8], [4 x i8], [4 x i8] }> <{ [8 x i8] undef, [4 x i8] c"\00\00\11\00", [4 x i8] undef }>, align 8
@alloc_4b7679c6452f3aa6e3bc736c1bc904a1 = private unnamed_addr constant [81 x i8] c"/rustc/1159e78c4747b02ef996e55082b704c09b970588/library/core/src/char/methods.rs\00", align 1
@alloc_1a66b4c24260c53aa7ec954e29b224e5 = private unnamed_addr constant <{ ptr, [16 x i8] }> <{ ptr @alloc_4b7679c6452f3aa6e3bc736c1bc904a1, [16 x i8] c"P\00\00\00\00\00\00\00\EF\00\00\00\12\00\00\00" }>, align 8
@alloc_52d95b50b454bcb389e2cb9db2f24cf0 = private unnamed_addr constant [81 x i8] c"/rustc/1159e78c4747b02ef996e55082b704c09b970588/library/core/src/ptr/non_null.rs\00", align 1
@alloc_82752a3172deb249799de5ad8c69ad07 = private unnamed_addr constant <{ ptr, [16 x i8] }> <{ ptr @alloc_52d95b50b454bcb389e2cb9db2f24cf0, [16 x i8] c"P\00\00\00\00\00\00\00\DC\02\00\003\00\00\00" }>, align 8
@alloc_8e54110602787579b7212144add8a3d0 = private unnamed_addr constant [91 x i8] c"/rustc/1159e78c4747b02ef996e55082b704c09b970588/library/std/src/io/error/repr_bitpacked.rs\00", align 1
@alloc_e06be43faf83db6fef3e1b19bf48d11e = private unnamed_addr constant <{ ptr, [16 x i8] }> <{ ptr @alloc_8e54110602787579b7212144add8a3d0, [16 x i8] c"Z\00\00\00\00\00\00\00\11\01\00\00\1A\00\00\00" }>, align 8
@alloc_a500d906b91607583596fa15e63c2ada = private unnamed_addr constant [40 x i8] c"internal error: entered unreachable code", align 1
@alloc_ea620bb87618a7b73eea9955062c98f8 = private unnamed_addr constant <{ ptr, [16 x i8] }> <{ ptr @alloc_8e54110602787579b7212144add8a3d0, [16 x i8] c"Z\00\00\00\00\00\00\00\22\01\00\00\0D\00\00\00" }>, align 8
@vtable.0 = private constant <{ [24 x i8], ptr, ptr, ptr }> <{ [24 x i8] c"\00\00\00\00\00\00\00\00\08\00\00\00\00\00\00\00\08\00\00\00\00\00\00\00", ptr @"_ZN4core3ops8function6FnOnce40call_once$u7b$$u7b$vtable.shim$u7d$$u7d$17hf99265ca0b39d788E", ptr @"_ZN3std2rt10lang_start28_$u7b$$u7b$closure$u7d$$u7d$17h13baac3a064ccaa7E", ptr @"_ZN3std2rt10lang_start28_$u7b$$u7b$closure$u7d$$u7d$17h13baac3a064ccaa7E" }>, align 8, !dbg !0
@anon.53f16eec224c883228c428cfded7c828.1 = private unnamed_addr constant <{ [8 x i8], [8 x i8] }> <{ [8 x i8] zeroinitializer, [8 x i8] undef }>, align 8
@anon.53f16eec224c883228c428cfded7c828.2 = private unnamed_addr constant <{ [1 x i8], [1 x i8] }> <{ [1 x i8] zeroinitializer, [1 x i8] undef }>, align 1
@alloc_a3d2b5d5ca5ae6cb8e15f957d2e3fcf3 = private unnamed_addr constant [76 x i8] c"/rustc/1159e78c4747b02ef996e55082b704c09b970588/library/core/src/num/mod.rs\00", align 1
@alloc_f6d3000e77513d8cc04002e35a8a45a2 = private unnamed_addr constant <{ ptr, [16 x i8] }> <{ ptr @alloc_a3d2b5d5ca5ae6cb8e15f957d2e3fcf3, [16 x i8] c"K\00\00\00\00\00\00\00^\06\00\00\01\00\00\00" }>, align 8
@alloc_dbcce5cb8873847766db4f16f930a00e = private unnamed_addr constant [186 x i8] c"unsafe precondition(s) violated: isize::unchecked_neg cannot overflow\0A\0AThis indicates a bug in the program. This Undefined Behavior check is optional, and cannot be relied on for safety.", align 1
@alloc_560a59ed819b9d9a5841f6e731c4c8e5 = private unnamed_addr constant [210 x i8] c"unsafe precondition(s) violated: NonNull::new_unchecked requires that the pointer is non-null\0A\0AThis indicates a bug in the program. This Undefined Behavior check is optional, and cannot be relied on for safety.", align 1
@alloc_c59c5181e468637bc22167c4fb380cc9 = private unnamed_addr constant <{ ptr, [16 x i8] }> <{ ptr @alloc_52d95b50b454bcb389e2cb9db2f24cf0, [16 x i8] c"P\00\00\00\00\00\00\00\B2\03\00\00 \00\00\00" }>, align 8
@alloc_ec595fc0e82ef92fc59bd74f68296eae = private unnamed_addr constant [73 x i8] c"assertion failed: 0 < pointee_size && pointee_size <= isize::MAX as usize", align 1
@alloc_de4e626d456b04760e72bc785ed7e52a = private unnamed_addr constant [201 x i8] c"unsafe precondition(s) violated: ptr::offset_from_unsigned requires `self >= origin`\0A\0AThis indicates a bug in the program. This Undefined Behavior check is optional, and cannot be relied on for safety.", align 1
@anon.53f16eec224c883228c428cfded7c828.3 = private unnamed_addr constant <{ [4 x i8], [4 x i8] }> <{ [4 x i8] zeroinitializer, [4 x i8] undef }>, align 4
@alloc_0cdf66d2597cba930acbff7e4e29fec9 = private unnamed_addr constant [84 x i8] c"/rustc/1159e78c4747b02ef996e55082b704c09b970588/library/core/src/str/validations.rs\00", align 1
@alloc_071cf42067010c03bf9dae9c56bca36a = private unnamed_addr constant <{ ptr, [16 x i8] }> <{ ptr @alloc_0cdf66d2597cba930acbff7e4e29fec9, [16 x i8] c"S\00\00\00\00\00\00\000\00\00\00$\00\00\00" }>, align 8
@alloc_24952474b46921ac47de533a0657191c = private unnamed_addr constant <{ ptr, [16 x i8] }> <{ ptr @alloc_0cdf66d2597cba930acbff7e4e29fec9, [16 x i8] c"S\00\00\00\00\00\00\007\00\00\00(\00\00\00" }>, align 8
@alloc_8a59a6c75f09b95ae0375bdc01dfa3e9 = private unnamed_addr constant <{ ptr, [16 x i8] }> <{ ptr @alloc_0cdf66d2597cba930acbff7e4e29fec9, [16 x i8] c"S\00\00\00\00\00\00\00?\00\00\00,\00\00\00" }>, align 8
@alloc_5133ba5ad5e393eb9bbc2d80fdab30c9 = private unnamed_addr constant <{ ptr, [16 x i8] }> <{ ptr @alloc_0cdf66d2597cba930acbff7e4e29fec9, [16 x i8] c"S\00\00\00\00\00\00\00]\00\00\00)\00\00\00" }>, align 8
@alloc_5444b36b66589b4d5df4d762b2f723e6 = private unnamed_addr constant <{ ptr, [16 x i8] }> <{ ptr @alloc_0cdf66d2597cba930acbff7e4e29fec9, [16 x i8] c"S\00\00\00\00\00\00\00b\00\00\00-\00\00\00" }>, align 8
@alloc_afa76ab528796a72d77ef72a0bf590ed = private unnamed_addr constant <{ ptr, [16 x i8] }> <{ ptr @alloc_0cdf66d2597cba930acbff7e4e29fec9, [16 x i8] c"S\00\00\00\00\00\00\00g\00\00\001\00\00\00" }>, align 8
@alloc_8940ea93ada4ffbf4d22b1c08be72c5c = private unnamed_addr constant [76 x i8] c"/rustc/1159e78c4747b02ef996e55082b704c09b970588/library/core/src/str/mod.rs\00", align 1
@alloc_e8570cecfb86fbbd456e5d57dc897452 = private unnamed_addr constant <{ ptr, [16 x i8] }> <{ ptr @alloc_8940ea93ada4ffbf4d22b1c08be72c5c, [16 x i8] c"K\00\00\00\00\00\00\00\A3\02\00\00\16\00\00\00" }>, align 8
@alloc_91f2a00ff2cd9cdc4bb205a66832e2bb = private unnamed_addr constant [219 x i8] c"unsafe precondition(s) violated: str::get_unchecked requires that the range is within the string slice\0A\0AThis indicates a bug in the program. This Undefined Behavior check is optional, and cannot be relied on for safety.", align 1
@alloc_4dc07e69e5d34e9d1484dfbbef0bb9b1 = private unnamed_addr constant [174 x i8] c"unsafe precondition(s) violated: invalid value for `char`\0A\0AThis indicates a bug in the program. This Undefined Behavior check is optional, and cannot be relied on for safety.", align 1
@alloc_78b6a49e36fe808e0ef950c2feb9fafc = private unnamed_addr constant [71 x i8] c"to_digit: invalid radix -- radix must be in the range 2 to 36 inclusive", align 1
@alloc_708eb9f2492b697e0d761b647be5d46c = private unnamed_addr constant <{ ptr, [8 x i8] }> <{ ptr @alloc_78b6a49e36fe808e0ef950c2feb9fafc, [8 x i8] c"G\00\00\00\00\00\00\00" }>, align 8
@alloc_2b5d5bf234d2a0bc8869f694d29cb0be = private unnamed_addr constant <{ ptr, [16 x i8] }> <{ ptr @alloc_4b7679c6452f3aa6e3bc736c1bc904a1, [16 x i8] c"P\00\00\00\00\00\00\00\93\01\00\00\09\00\00\00" }>, align 8
@alloc_75fb06c2453febd814e73f5f2e72ae38 = private unnamed_addr constant [199 x i8] c"unsafe precondition(s) violated: hint::unreachable_unchecked must never be reached\0A\0AThis indicates a bug in the program. This Undefined Behavior check is optional, and cannot be relied on for safety.", align 1
@alloc_1be5ea12ba708d9a11b6e93a7d387a75 = private unnamed_addr constant [281 x i8] c"unsafe precondition(s) violated: Layout::from_size_align_unchecked requires that align is a power of 2 and the rounded-up allocation size does not exceed isize::MAX\0A\0AThis indicates a bug in the program. This Undefined Behavior check is optional, and cannot be relied on for safety.", align 1
@alloc_a28e8c8fd5088943a8b5d44af697ff83 = private unnamed_addr constant [279 x i8] c"unsafe precondition(s) violated: slice::from_raw_parts requires the pointer to be aligned and non-null, and the total size of the slice not to exceed `isize::MAX`\0A\0AThis indicates a bug in the program. This Undefined Behavior check is optional, and cannot be relied on for safety.", align 1
@alloc_fad0cd83b7d1858a846a172eb260e593 = private unnamed_addr constant [42 x i8] c"is_aligned_to: align is not a power-of-two", align 1
@alloc_e92e94d0ff530782b571cfd99ec66aef = private unnamed_addr constant <{ ptr, [8 x i8] }> <{ ptr @alloc_fad0cd83b7d1858a846a172eb260e593, [8 x i8] c"*\00\00\00\00\00\00\00" }>, align 8
@alloc_f7192d85903faa6e3e7a0ae26b7c40f8 = private unnamed_addr constant [78 x i8] c"/rustc/1159e78c4747b02ef996e55082b704c09b970588/library/core/src/ub_checks.rs\00", align 1
@alloc_c546c23a9ba92cfed6659b88891d1475 = private unnamed_addr constant <{ ptr, [16 x i8] }> <{ ptr @alloc_f7192d85903faa6e3e7a0ae26b7c40f8, [16 x i8] c"M\00\00\00\00\00\00\00\94\00\00\006\00\00\00" }>, align 8
@alloc_e3122ba88327f96970ccc11fb79a6996 = private unnamed_addr constant [82 x i8] c"/rustc/1159e78c4747b02ef996e55082b704c09b970588/library/core/src/ptr/const_ptr.rs\00", align 1
@alloc_863114602ff53edf107e51a9c9035fa2 = private unnamed_addr constant <{ ptr, [16 x i8] }> <{ ptr @alloc_e3122ba88327f96970ccc11fb79a6996, [16 x i8] c"Q\00\00\00\00\00\00\00\92\05\00\00\0D\00\00\00" }>, align 8
@vtable.1 = private constant <{ ptr, [16 x i8], ptr }> <{ ptr @"_ZN4core3ptr42drop_in_place$LT$std..io..error..Error$GT$17h633266d8559608f2E", [16 x i8] c"\08\00\00\00\00\00\00\00\08\00\00\00\00\00\00\00", ptr @"_ZN58_$LT$std..io..error..Error$u20$as$u20$core..fmt..Debug$GT$3fmt17h89e941cecddc6846E" }>, align 8, !dbg !24
@_ZN4core7unicode12unicode_data11white_space14WHITESPACE_MAP17h43e66ed630d2090cE = external global [256 x i8]
@alloc_539c3e9bbe8dff9772149eb98cda2fc1 = private unnamed_addr constant [89 x i8] c"/rustc/1159e78c4747b02ef996e55082b704c09b970588/library/core/src/unicode/unicode_data.rs\00", align 1
@alloc_22ebefee4fc041da99009613d5bd0d3e = private unnamed_addr constant <{ ptr, [16 x i8] }> <{ ptr @alloc_539c3e9bbe8dff9772149eb98cda2fc1, [16 x i8] c"X\00\00\00\00\00\00\00\D8\02\00\00\12\00\00\00" }>, align 8
@alloc_edf41c7cec8c6693bbe35c0ff2ce4689 = private unnamed_addr constant <{ ptr, [16 x i8] }> <{ ptr @alloc_539c3e9bbe8dff9772149eb98cda2fc1, [16 x i8] c"X\00\00\00\00\00\00\00\DA\02\00\00\13\00\00\00" }>, align 8
@alloc_1ed849c6ee52a8526306210aa0274020 = private unnamed_addr constant [77 x i8] c"/rustc/1159e78c4747b02ef996e55082b704c09b970588/library/alloc/src/vec/mod.rs\00", align 1
@alloc_40c560344f81f2dece7a8bb81f255148 = private unnamed_addr constant <{ ptr, [16 x i8] }> <{ ptr @alloc_1ed849c6ee52a8526306210aa0274020, [16 x i8] c"L\00\00\00\00\00\00\00j\06\00\00\12\00\00\00" }>, align 8
@alloc_fcfc72ba160b068cd397c5f3b5c50193 = private unnamed_addr constant [81 x i8] c"/rustc/1159e78c4747b02ef996e55082b704c09b970588/library/core/src/alloc/layout.rs\00", align 1
@alloc_094e93743ac0ceab7dadd432fb3bc99a = private unnamed_addr constant <{ ptr, [16 x i8] }> <{ ptr @alloc_fcfc72ba160b068cd397c5f3b5c50193, [16 x i8] c"P\00\00\00\00\00\00\00\E0\00\00\00\12\00\00\00" }>, align 8
@alloc_6063ead69d50f7a7c922c644d29332a1 = private unnamed_addr constant [79 x i8] c"/rustc/1159e78c4747b02ef996e55082b704c09b970588/library/core/src/ptr/unique.rs\00", align 1
@alloc_bc704b58ff50e4ee5adaad05a93e255b = private unnamed_addr constant <{ ptr, [16 x i8] }> <{ ptr @alloc_6063ead69d50f7a7c922c644d29332a1, [16 x i8] c"N\00\00\00\00\00\00\00X\00\00\00$\00\00\00" }>, align 8
@alloc_deda3a43dc8774a08f586b94ce66eea0 = private unnamed_addr constant [19 x i8] c"Starter Values: u8=", align 1
@alloc_fc7191956095f87d364b3de7ff284bc8 = private unnamed_addr constant [5 x i8] c", i8=", align 1
@alloc_3f62f09340ec4217b72fe8840b861b6c = private unnamed_addr constant [2 x i8] c"\0A\0A", align 1
@alloc_718ca85eed9b7ce40a1527936054866c = private unnamed_addr constant <{ ptr, [8 x i8], ptr, [8 x i8], ptr, [8 x i8] }> <{ ptr @alloc_deda3a43dc8774a08f586b94ce66eea0, [8 x i8] c"\13\00\00\00\00\00\00\00", ptr @alloc_fc7191956095f87d364b3de7ff284bc8, [8 x i8] c"\05\00\00\00\00\00\00\00", ptr @alloc_3f62f09340ec4217b72fe8840b861b6c, [8 x i8] c"\02\00\00\00\00\00\00\00" }>, align 8
@alloc_5d5118844914a2b7f5c327d123981283 = private unnamed_addr constant [27 x i8] c"Enter an i8 value to add: \0A", align 1
@alloc_3b8d5d1f3c8dec963a84ab7230119efc = private unnamed_addr constant <{ ptr, [8 x i8] }> <{ ptr @alloc_5d5118844914a2b7f5c327d123981283, [8 x i8] c"\1B\00\00\00\00\00\00\00" }>, align 8
@alloc_84f7740b394ef58f056f59e2830a621f = private unnamed_addr constant [19 x i8] c"failed to read line", align 1
@alloc_a2a4662e2d67b00d8053534c4ca548ac = private unnamed_addr constant [9 x i8] c"overf.rs\00", align 1
@alloc_efd208b10c0923972abb4ee7bae1ca93 = private unnamed_addr constant <{ ptr, [16 x i8] }> <{ ptr @alloc_a2a4662e2d67b00d8053534c4ca548ac, [16 x i8] c"\08\00\00\00\00\00\00\00\0B\00\00\00+\00\00\00" }>, align 8
@alloc_5ae9aaaf0ffa0ef45f2f215984219c20 = private unnamed_addr constant <{ ptr, [16 x i8] }> <{ ptr @alloc_a2a4662e2d67b00d8053534c4ca548ac, [16 x i8] c"\08\00\00\00\00\00\00\00\16\00\00\00\14\00\00\00" }>, align 8
@alloc_5e53edab089a4489cb9825f5e8eb0aec = private unnamed_addr constant <{ ptr, [16 x i8] }> <{ ptr @alloc_a2a4662e2d67b00d8053534c4ca548ac, [16 x i8] c"\08\00\00\00\00\00\00\00\17\00\00\00\14\00\00\00" }>, align 8
@alloc_91c1ff474ee4a1dc6890b410c7ad1c55 = private unnamed_addr constant [7 x i8] c"input: ", align 1
@alloc_49a1e817e911805af64bbc7efb390101 = private unnamed_addr constant [1 x i8] c"\0A", align 1
@alloc_054ab77b913365c4cac5d4ca5fd06e81 = private unnamed_addr constant <{ ptr, [8 x i8], ptr, [8 x i8] }> <{ ptr @alloc_91c1ff474ee4a1dc6890b410c7ad1c55, [8 x i8] c"\07\00\00\00\00\00\00\00", ptr @alloc_49a1e817e911805af64bbc7efb390101, [8 x i8] c"\01\00\00\00\00\00\00\00" }>, align 8
@alloc_a51226e7f70612c5557dc05e05833f9f = private unnamed_addr constant [15 x i8] c"New values: u8=", align 1
@alloc_78b20293d8617db34e3e6589f40e5a74 = private unnamed_addr constant <{ ptr, [8 x i8], ptr, [8 x i8], ptr, [8 x i8] }> <{ ptr @alloc_a51226e7f70612c5557dc05e05833f9f, [8 x i8] c"\0F\00\00\00\00\00\00\00", ptr @alloc_fc7191956095f87d364b3de7ff284bc8, [8 x i8] c"\05\00\00\00\00\00\00\00", ptr @alloc_3f62f09340ec4217b72fe8840b861b6c, [8 x i8] c"\02\00\00\00\00\00\00\00" }>, align 8
@alloc_168a449fc9b03f0e4d2dfd1a1e9b7387 = private unnamed_addr constant [14 x i8] c"Invalid input\0A", align 1
@alloc_1311cb46a8d9a3201ebb9a13613abb87 = private unnamed_addr constant <{ ptr, [8 x i8] }> <{ ptr @alloc_168a449fc9b03f0e4d2dfd1a1e9b7387, [8 x i8] c"\0E\00\00\00\00\00\00\00" }>, align 8

; <core::str::iter::CharIndices as core::iter::traits::double_ended::DoubleEndedIterator>::next_back
; Function Attrs: inlinehint uwtable
define internal { i64, i32 } @"_ZN102_$LT$core..str..iter..CharIndices$u20$as$u20$core..iter..traits..double_ended..DoubleEndedIterator$GT$9next_back17hbba8cac5683693bcE"(ptr align 8 %self) unnamed_addr #0 !dbg !234 {
start:
  %index.dbg.spill = alloca [8 x i8], align 8
  %end.dbg.spill = alloca [8 x i8], align 8
  %self.dbg.spill8 = alloca [8 x i8], align 8
  %_25.dbg.spill = alloca [8 x i8], align 8
  %_24.dbg.spill = alloca [8 x i8], align 8
  %x.dbg.spill6 = alloca [4 x i8], align 4
  %x.dbg.spill = alloca [4 x i8], align 4
  %self.dbg.spill4 = alloca [8 x i8], align 8
  %f.dbg.spill = alloca [0 x i8], align 1
  %self.dbg.spill = alloca [8 x i8], align 8
  %f3 = alloca [8 x i8], align 8
  %f = alloca [8 x i8], align 8
  %self2 = alloca [8 x i8], align 4
  %_5 = alloca [8 x i8], align 8
  %_4 = alloca [8 x i8], align 8
  %self1 = alloca [4 x i8], align 4
  %_0 = alloca [16 x i8], align 8
  store ptr %self, ptr %self.dbg.spill, align 8
    #dbg_declare(ptr %self.dbg.spill, !287, !DIExpression(), !288)
    #dbg_declare(ptr %self1, !289, !DIExpression(), !322)
    #dbg_declare(ptr %self2, !324, !DIExpression(), !352)
    #dbg_declare(ptr %f, !319, !DIExpression(DW_OP_LLVM_fragment, 0, 64), !361)
    #dbg_declare(ptr %f3, !319, !DIExpression(DW_OP_LLVM_fragment, 64, 64), !361)
    #dbg_declare(ptr %f.dbg.spill, !349, !DIExpression(), !362)
  store ptr %self, ptr %self.dbg.spill4, align 8, !dbg !363
    #dbg_declare(ptr %self.dbg.spill4, !359, !DIExpression(), !364)
; call core::str::validations::next_code_point_reverse
  %0 = call { i32, i32 } @_ZN4core3str11validations23next_code_point_reverse17hbb2f1eea7ed669c4E(ptr align 8 %self), !dbg !365
  %1 = extractvalue { i32, i32 } %0, 0, !dbg !365
  %2 = extractvalue { i32, i32 } %0, 1, !dbg !365
  store i32 %1, ptr %self2, align 4, !dbg !365
  %3 = getelementptr inbounds i8, ptr %self2, i64 4, !dbg !365
  store i32 %2, ptr %3, align 4, !dbg !365
  %4 = load i32, ptr %self2, align 4, !dbg !366
  %5 = getelementptr inbounds i8, ptr %self2, i64 4, !dbg !366
  %6 = load i32, ptr %5, align 4, !dbg !366
  %_8 = zext i32 %4 to i64, !dbg !366
  %7 = trunc nuw i64 %_8 to i1, !dbg !367
  br i1 %7, label %bb4, label %bb3, !dbg !367

bb4:                                              ; preds = %start
  %8 = getelementptr inbounds i8, ptr %self2, i64 4, !dbg !368
  %x = load i32, ptr %8, align 4, !dbg !368
  store i32 %x, ptr %x.dbg.spill, align 4, !dbg !368
    #dbg_declare(ptr %x.dbg.spill, !350, !DIExpression(), !369)
    #dbg_declare(ptr %x.dbg.spill, !370, !DIExpression(), !375)
    #dbg_declare(ptr %x.dbg.spill, !377, !DIExpression(), !386)
    #dbg_declare(ptr %x.dbg.spill, !388, !DIExpression(), !414)
  br label %bb5, !dbg !416

bb3:                                              ; preds = %start
  store i32 1114112, ptr %self1, align 4, !dbg !419
  %9 = getelementptr inbounds i8, ptr %self, i64 16, !dbg !420
  store ptr %9, ptr %_4, align 8, !dbg !420
  store ptr %self, ptr %_5, align 8, !dbg !420
  %10 = load ptr, ptr %_4, align 8, !dbg !420
  store ptr %10, ptr %f, align 8, !dbg !420
  %11 = load ptr, ptr %_5, align 8, !dbg !420
  store ptr %11, ptr %f3, align 8, !dbg !420
  %12 = load i64, ptr @anon.53f16eec224c883228c428cfded7c828.0, align 8, !dbg !421
  %13 = load i32, ptr getelementptr inbounds (i8, ptr @anon.53f16eec224c883228c428cfded7c828.0, i64 8), align 8, !dbg !421
  store i64 %12, ptr %_0, align 8, !dbg !421
  %14 = getelementptr inbounds i8, ptr %_0, i64 8, !dbg !421
  store i32 %13, ptr %14, align 8, !dbg !421
  br label %bb7, !dbg !422

bb7:                                              ; preds = %bb6, %bb3
  %15 = load i64, ptr %_0, align 8, !dbg !423
  %16 = getelementptr inbounds i8, ptr %_0, i64 8, !dbg !423
  %17 = load i32, ptr %16, align 8, !dbg !423
  %18 = insertvalue { i64, i32 } poison, i64 %15, 0, !dbg !423
  %19 = insertvalue { i64, i32 } %18, i32 %17, 1, !dbg !423
  ret { i64, i32 } %19, !dbg !423

bb5:                                              ; preds = %bb4
; call core::char::convert::from_u32_unchecked::precondition_check
  call void @_ZN4core4char7convert18from_u32_unchecked18precondition_check17h9ff169789a399f00E(i32 %x, ptr align 8 @alloc_1a66b4c24260c53aa7ec954e29b224e5) #14, !dbg !424
  br label %bb6, !dbg !424

bb6:                                              ; preds = %bb5
  store i32 %x, ptr %self1, align 4, !dbg !425
  %20 = getelementptr inbounds i8, ptr %self, i64 16, !dbg !420
  store ptr %20, ptr %_4, align 8, !dbg !420
  store ptr %self, ptr %_5, align 8, !dbg !420
  %21 = load ptr, ptr %_4, align 8, !dbg !420
  store ptr %21, ptr %f, align 8, !dbg !420
  %22 = load ptr, ptr %_5, align 8, !dbg !420
  store ptr %22, ptr %f3, align 8, !dbg !420
  %x5 = load i32, ptr %self1, align 4, !dbg !426
  store i32 %x5, ptr %x.dbg.spill6, align 4, !dbg !426
    #dbg_declare(ptr %x.dbg.spill6, !320, !DIExpression(), !427)
    #dbg_declare(ptr %x.dbg.spill6, !428, !DIExpression(), !437)
  %_24 = load ptr, ptr %_4, align 8, !dbg !440
  store ptr %_24, ptr %_24.dbg.spill, align 8, !dbg !440
    #dbg_declare(ptr %_24.dbg.spill, !433, !DIExpression(DW_OP_deref), !441)
  %_25 = load ptr, ptr %_5, align 8, !dbg !440
  store ptr %_25, ptr %_25.dbg.spill, align 8, !dbg !440
    #dbg_declare(ptr %_25.dbg.spill, !434, !DIExpression(DW_OP_deref), !441)
  %23 = load ptr, ptr %_4, align 8, !dbg !442
  %_16 = load i64, ptr %23, align 8, !dbg !442
  %self7 = load ptr, ptr %_5, align 8, !dbg !443
  store ptr %self7, ptr %self.dbg.spill8, align 8, !dbg !443
    #dbg_declare(ptr %self.dbg.spill8, !444, !DIExpression(), !455)
  %24 = load ptr, ptr %_5, align 8, !dbg !457
  %25 = getelementptr inbounds i8, ptr %24, i64 8, !dbg !457
  %_22 = load ptr, ptr %25, align 8, !dbg !457
  store ptr %_22, ptr %end.dbg.spill, align 8, !dbg !458
    #dbg_declare(ptr %end.dbg.spill, !453, !DIExpression(), !459)
  %26 = load ptr, ptr %_5, align 8, !dbg !460
  %_23 = load ptr, ptr %26, align 8, !dbg !460
; call core::ptr::non_null::NonNull<T>::offset_from_unsigned
  %_17 = call i64 @"_ZN4core3ptr8non_null16NonNull$LT$T$GT$20offset_from_unsigned17h75b4dbd3e4f7c47bE"(ptr %_22, ptr %_23), !dbg !461
  %index = add i64 %_16, %_17, !dbg !442
  store i64 %index, ptr %index.dbg.spill, align 8, !dbg !442
    #dbg_declare(ptr %index.dbg.spill, !435, !DIExpression(), !462)
  store i64 %index, ptr %_0, align 8, !dbg !463
  %27 = getelementptr inbounds i8, ptr %_0, i64 8, !dbg !463
  store i32 %x5, ptr %27, align 8, !dbg !463
  br label %bb7, !dbg !464

bb2:                                              ; No predecessors!
  unreachable, !dbg !465
}

; <core::str::pattern::MultiCharEqSearcher<C> as core::str::pattern::ReverseSearcher>::next_back
; Function Attrs: inlinehint uwtable
define internal void @"_ZN104_$LT$core..str..pattern..MultiCharEqSearcher$LT$C$GT$$u20$as$u20$core..str..pattern..ReverseSearcher$GT$9next_back17hda08b978e75038c3E"(ptr sret([24 x i8]) align 8 %_0, ptr align 8 %self) unnamed_addr #0 !dbg !468 {
start:
  %char_len.dbg.spill = alloca [8 x i8], align 8
  %len.dbg.spill = alloca [8 x i8], align 8
  %end.dbg.spill3 = alloca [8 x i8], align 8
  %self.dbg.spill2 = alloca [8 x i8], align 8
  %c.dbg.spill = alloca [4 x i8], align 4
  %i.dbg.spill = alloca [8 x i8], align 8
  %pre_len.dbg.spill = alloca [8 x i8], align 8
  %end.dbg.spill = alloca [8 x i8], align 8
  %self.dbg.spill1 = alloca [8 x i8], align 8
  %s.dbg.spill = alloca [8 x i8], align 8
  %self.dbg.spill = alloca [8 x i8], align 8
  %_5 = alloca [16 x i8], align 8
  store ptr %self, ptr %self.dbg.spill, align 8
    #dbg_declare(ptr %self.dbg.spill, !504, !DIExpression(), !516)
  %s = getelementptr inbounds i8, ptr %self, i64 16, !dbg !517
  store ptr %s, ptr %s.dbg.spill, align 8, !dbg !517
    #dbg_declare(ptr %s.dbg.spill, !505, !DIExpression(), !518)
  store ptr %s, ptr %self.dbg.spill1, align 8, !dbg !519
    #dbg_declare(ptr %self.dbg.spill1, !520, !DIExpression(), !531)
  %0 = getelementptr inbounds i8, ptr %s, i64 8, !dbg !533
  %_19 = load ptr, ptr %0, align 8, !dbg !533
  store ptr %_19, ptr %end.dbg.spill, align 8, !dbg !534
    #dbg_declare(ptr %end.dbg.spill, !525, !DIExpression(), !535)
  %_20 = load ptr, ptr %s, align 8, !dbg !536
; call core::ptr::non_null::NonNull<T>::offset_from_unsigned
  %pre_len = call i64 @"_ZN4core3ptr8non_null16NonNull$LT$T$GT$20offset_from_unsigned17h75b4dbd3e4f7c47bE"(ptr %_19, ptr %_20), !dbg !537
  store i64 %pre_len, ptr %pre_len.dbg.spill, align 8, !dbg !537
    #dbg_declare(ptr %pre_len.dbg.spill, !507, !DIExpression(), !538)
; call <core::str::iter::CharIndices as core::iter::traits::double_ended::DoubleEndedIterator>::next_back
  %1 = call { i64, i32 } @"_ZN102_$LT$core..str..iter..CharIndices$u20$as$u20$core..iter..traits..double_ended..DoubleEndedIterator$GT$9next_back17hbba8cac5683693bcE"(ptr align 8 %s), !dbg !539
  %2 = extractvalue { i64, i32 } %1, 0, !dbg !539
  %3 = extractvalue { i64, i32 } %1, 1, !dbg !539
  store i64 %2, ptr %_5, align 8, !dbg !539
  %4 = getelementptr inbounds i8, ptr %_5, i64 8, !dbg !539
  store i32 %3, ptr %4, align 8, !dbg !539
  %5 = load i64, ptr %_5, align 8, !dbg !540
  %6 = getelementptr inbounds i8, ptr %_5, i64 8, !dbg !540
  %7 = load i32, ptr %6, align 8, !dbg !540
  %8 = icmp eq i32 %7, 1114112, !dbg !540
  %_6 = select i1 %8, i64 0, i64 1, !dbg !540
  %9 = trunc nuw i64 %_6 to i1, !dbg !541
  br i1 %9, label %bb2, label %bb6, !dbg !541

bb2:                                              ; preds = %start
  %i = load i64, ptr %_5, align 8, !dbg !542
  store i64 %i, ptr %i.dbg.spill, align 8, !dbg !542
    #dbg_declare(ptr %i.dbg.spill, !509, !DIExpression(), !542)
  %10 = getelementptr inbounds i8, ptr %_5, i64 8, !dbg !543
  %c = load i32, ptr %10, align 8, !dbg !543
  store i32 %c, ptr %c.dbg.spill, align 4, !dbg !543
    #dbg_declare(ptr %c.dbg.spill, !511, !DIExpression(), !543)
  store ptr %s, ptr %self.dbg.spill2, align 8, !dbg !544
    #dbg_declare(ptr %self.dbg.spill2, !520, !DIExpression(), !545)
  %11 = getelementptr inbounds i8, ptr %s, i64 8, !dbg !547
  %_24 = load ptr, ptr %11, align 8, !dbg !547
  store ptr %_24, ptr %end.dbg.spill3, align 8, !dbg !548
    #dbg_declare(ptr %end.dbg.spill3, !529, !DIExpression(), !549)
  %_25 = load ptr, ptr %s, align 8, !dbg !550
; call core::ptr::non_null::NonNull<T>::offset_from_unsigned
  %len = call i64 @"_ZN4core3ptr8non_null16NonNull$LT$T$GT$20offset_from_unsigned17h75b4dbd3e4f7c47bE"(ptr %_24, ptr %_25), !dbg !551
  store i64 %len, ptr %len.dbg.spill, align 8, !dbg !551
    #dbg_declare(ptr %len.dbg.spill, !512, !DIExpression(), !552)
  %char_len = sub i64 %pre_len, %len, !dbg !553
  store i64 %char_len, ptr %char_len.dbg.spill, align 8, !dbg !553
    #dbg_declare(ptr %char_len.dbg.spill, !514, !DIExpression(), !554)
  %_13 = getelementptr inbounds i8, ptr %self, i64 40, !dbg !555
; call <F as core::str::pattern::MultiCharEq>::matches
  %_12 = call zeroext i1 @"_ZN53_$LT$F$u20$as$u20$core..str..pattern..MultiCharEq$GT$7matches17hab4a2eac2cd6a4b1E"(ptr align 1 %_13, i32 %c), !dbg !556
  br i1 %_12, label %bb4, label %bb5, !dbg !555

bb6:                                              ; preds = %start
  store i64 2, ptr %_0, align 8, !dbg !557
  br label %bb8, !dbg !558

bb5:                                              ; preds = %bb2
  %_15 = add i64 %i, %char_len, !dbg !559
  %12 = getelementptr inbounds i8, ptr %_0, i64 8, !dbg !560
  store i64 %i, ptr %12, align 8, !dbg !560
  %13 = getelementptr inbounds i8, ptr %_0, i64 16, !dbg !560
  store i64 %_15, ptr %13, align 8, !dbg !560
  store i64 1, ptr %_0, align 8, !dbg !560
  br label %bb7, !dbg !561

bb4:                                              ; preds = %bb2
  %_14 = add i64 %i, %char_len, !dbg !562
  %14 = getelementptr inbounds i8, ptr %_0, i64 8, !dbg !563
  store i64 %i, ptr %14, align 8, !dbg !563
  %15 = getelementptr inbounds i8, ptr %_0, i64 16, !dbg !563
  store i64 %_14, ptr %15, align 8, !dbg !563
  store i64 0, ptr %_0, align 8, !dbg !563
  br label %bb7, !dbg !564

bb7:                                              ; preds = %bb4, %bb5
  br label %bb8, !dbg !558

bb8:                                              ; preds = %bb6, %bb7
  ret void, !dbg !558

bb11:                                             ; No predecessors!
  unreachable, !dbg !565
}

; <core::slice::iter::Iter<T> as core::iter::traits::double_ended::DoubleEndedIterator>::next_back
; Function Attrs: inlinehint uwtable
define internal align 1 ptr @"_ZN106_$LT$core..slice..iter..Iter$LT$T$GT$$u20$as$u20$core..iter..traits..double_ended..DoubleEndedIterator$GT$9next_back17h1f73d45037b9477bE"(ptr align 8 %self) unnamed_addr #0 !dbg !566 {
start:
  %self.dbg.spill8 = alloca [8 x i8], align 8
  %self.dbg.spill7 = alloca [8 x i8], align 8
  %end.dbg.spill = alloca [8 x i8], align 8
  %self.dbg.spill5 = alloca [8 x i8], align 8
  %other.dbg.spill = alloca [8 x i8], align 8
  %self.dbg.spill3 = alloca [8 x i8], align 8
  %count.dbg.spill2 = alloca [8 x i8], align 8
  %self.dbg.spill1 = alloca [8 x i8], align 8
  %count.dbg.spill = alloca [8 x i8], align 8
  %offset.dbg.spill = alloca [8 x i8], align 8
  %self.dbg.spill = alloca [8 x i8], align 8
  %_21 = alloca [8 x i8], align 8
  %_14 = alloca [8 x i8], align 8
  %end = alloca [8 x i8], align 8
  %_2 = alloca [1 x i8], align 1
  %_0 = alloca [8 x i8], align 8
  store ptr %self, ptr %self.dbg.spill, align 8
    #dbg_declare(ptr %self.dbg.spill, !583, !DIExpression(), !588)
    #dbg_declare(ptr %self.dbg.spill, !589, !DIExpression(), !595)
    #dbg_declare(ptr %self.dbg.spill, !597, !DIExpression(), !610)
    #dbg_declare(ptr %end, !586, !DIExpression(), !612)
  store i64 1, ptr %offset.dbg.spill, align 8, !dbg !613
    #dbg_declare(ptr %offset.dbg.spill, !603, !DIExpression(), !613)
  store i64 1, ptr %count.dbg.spill, align 8, !dbg !614
    #dbg_declare(ptr %count.dbg.spill, !622, !DIExpression(), !614)
  store i64 1, ptr %self.dbg.spill1, align 8, !dbg !624
    #dbg_declare(ptr %self.dbg.spill1, !632, !DIExpression(), !624)
  store i64 -1, ptr %count.dbg.spill2, align 8, !dbg !634
    #dbg_declare(ptr %count.dbg.spill2, !641, !DIExpression(), !634)
  br label %bb2, !dbg !643

bb2:                                              ; preds = %start
  %0 = getelementptr inbounds i8, ptr %self, i64 8, !dbg !644
  %_6 = load ptr, ptr %0, align 8, !dbg !644
  store ptr %_6, ptr %end, align 8, !dbg !645
  store ptr %self, ptr %self.dbg.spill3, align 8, !dbg !646
    #dbg_declare(ptr %self.dbg.spill3, !647, !DIExpression(), !655)
  store ptr %end, ptr %other.dbg.spill, align 8, !dbg !656
    #dbg_declare(ptr %other.dbg.spill, !654, !DIExpression(), !657)
  %_11 = load ptr, ptr %self, align 8, !dbg !658
  %_12 = load ptr, ptr %end, align 8, !dbg !659
  %1 = icmp eq ptr %_11, %_12, !dbg !658
  %2 = zext i1 %1 to i8, !dbg !658
  store i8 %2, ptr %_2, align 1, !dbg !658
  br label %bb3, !dbg !666

bb3:                                              ; preds = %bb2
  %3 = load i8, ptr %_2, align 1, !dbg !667
  %4 = trunc nuw i8 %3 to i1, !dbg !667
  br i1 %4, label %bb4, label %bb5, !dbg !667

bb5:                                              ; preds = %bb3
  br label %bb9, !dbg !668

bb4:                                              ; preds = %bb3
  store ptr null, ptr %_0, align 8, !dbg !669
  br label %bb6, !dbg !670

bb9:                                              ; preds = %bb5
  %self4 = getelementptr inbounds i8, ptr %self, i64 8, !dbg !671
  store ptr %self4, ptr %self.dbg.spill5, align 8, !dbg !671
    #dbg_declare(ptr %self.dbg.spill5, !672, !DIExpression(), !684)
  store ptr %self4, ptr %end.dbg.spill, align 8, !dbg !686
    #dbg_declare(ptr %end.dbg.spill, !607, !DIExpression(), !687)
  %self6 = load ptr, ptr %self4, align 8, !dbg !688
  store ptr %self6, ptr %self.dbg.spill7, align 8, !dbg !688
    #dbg_declare(ptr %self.dbg.spill7, !621, !DIExpression(), !689)
    #dbg_declare(ptr %self.dbg.spill7, !640, !DIExpression(), !690)
  br label %bb12, !dbg !691

bb12:                                             ; preds = %bb9
  br label %bb13, !dbg !692

bb13:                                             ; preds = %bb12
; call core::num::<impl isize>::unchecked_neg::precondition_check
  call void @"_ZN4core3num23_$LT$impl$u20$isize$GT$13unchecked_neg18precondition_check17h19dfcab389ad03c4E"(i64 1, ptr align 8 @alloc_82752a3172deb249799de5ad8c69ad07) #14, !dbg !694
  br label %bb14, !dbg !694

bb14:                                             ; preds = %bb13
  %_25 = getelementptr inbounds i8, ptr %self6, i64 -1, !dbg !695
  store ptr %_25, ptr %_21, align 8, !dbg !696
  br label %bb10, !dbg !697

bb10:                                             ; preds = %bb14
  %5 = load ptr, ptr %_21, align 8, !dbg !698
  store ptr %5, ptr %self4, align 8, !dbg !698
  %6 = load ptr, ptr %self4, align 8, !dbg !699
  store ptr %6, ptr %_14, align 8, !dbg !699
  br label %bb7, !dbg !700

bb7:                                              ; preds = %bb10
  store ptr %_14, ptr %self.dbg.spill8, align 8, !dbg !701
    #dbg_declare(ptr %self.dbg.spill8, !702, !DIExpression(), !708)
  %_28 = load ptr, ptr %_14, align 8, !dbg !710
  store ptr %_28, ptr %_0, align 8, !dbg !711
  br label %bb6, !dbg !670

bb6:                                              ; preds = %bb4, %bb7
  %7 = load ptr, ptr %_0, align 8, !dbg !712
  ret ptr %7, !dbg !712

bb1:                                              ; No predecessors!
  unreachable

bb8:                                              ; No predecessors!
  unreachable

bb11:                                             ; No predecessors!
  unreachable
}

; <core::str::pattern::CharPredicateSearcher<F> as core::str::pattern::ReverseSearcher>::next_reject_back
; Function Attrs: inlinehint uwtable
define internal void @"_ZN106_$LT$core..str..pattern..CharPredicateSearcher$LT$F$GT$$u20$as$u20$core..str..pattern..ReverseSearcher$GT$16next_reject_back17h03a97a719e7b2e6eE"(ptr sret([24 x i8]) align 8 %_0, ptr align 8 %self) unnamed_addr #0 !dbg !713 {
start:
  %self.dbg.spill = alloca [8 x i8], align 8
  store ptr %self, ptr %self.dbg.spill, align 8
    #dbg_declare(ptr %self.dbg.spill, !741, !DIExpression(), !742)
; call core::str::pattern::ReverseSearcher::next_reject_back
  call void @_ZN4core3str7pattern15ReverseSearcher16next_reject_back17ha9eea31c29d51556E(ptr sret([24 x i8]) align 8 %_0, ptr align 8 %self), !dbg !743
  ret void, !dbg !744
}

; std::io::error::repr_bitpacked::decode_repr
; Function Attrs: inlinehint uwtable
define internal void @_ZN3std2io5error14repr_bitpacked11decode_repr17h2ee2e66c0c611753E(ptr sret([16 x i8]) align 8 %_0, ptr %ptr) unnamed_addr #0 personality ptr @rust_eh_personality !dbg !745 {
start:
  %custom.dbg.spill = alloca [8 x i8], align 8
  %self.dbg.spill7 = alloca [8 x i8], align 8
  %meta.dbg.spill = alloca [8 x i8], align 8
  %self.dbg.spill6 = alloca [8 x i8], align 8
  %0 = alloca [8 x i8], align 8
  %self.dbg.spill5 = alloca [8 x i8], align 8
  %self.dbg.spill4 = alloca [8 x i8], align 8
  %kind.dbg.spill = alloca [1 x i8], align 1
  %f.dbg.spill = alloca [8 x i8], align 8
  %1 = alloca [16 x i8], align 8
  %kind_bits.dbg.spill = alloca [4 x i8], align 4
  %code.dbg.spill = alloca [4 x i8], align 4
  %self.dbg.spill3 = alloca [8 x i8], align 8
  %count.dbg.spill2 = alloca [8 x i8], align 8
  %self.dbg.spill = alloca [8 x i8], align 8
  %count.dbg.spill1 = alloca [8 x i8], align 8
  %count.dbg.spill = alloca [8 x i8], align 8
  %make_custom.dbg.spill = alloca [0 x i8], align 1
  %ptr.dbg.spill = alloca [8 x i8], align 8
  %_21 = alloca [1 x i8], align 1
  %self = alloca [1 x i8], align 1
  %bits = alloca [8 x i8], align 8
  store ptr %ptr, ptr %ptr.dbg.spill, align 8
    #dbg_declare(ptr %ptr.dbg.spill, !753, !DIExpression(), !768)
    #dbg_declare(ptr %ptr.dbg.spill, !769, !DIExpression(), !776)
    #dbg_declare(ptr %ptr.dbg.spill, !769, !DIExpression(), !778)
    #dbg_declare(ptr %ptr.dbg.spill, !780, !DIExpression(), !794)
    #dbg_declare(ptr %make_custom.dbg.spill, !754, !DIExpression(), !796)
    #dbg_declare(ptr %bits, !755, !DIExpression(), !797)
    #dbg_declare(ptr %self, !798, !DIExpression(), !826)
  store i64 1, ptr %count.dbg.spill, align 8, !dbg !828
    #dbg_declare(ptr %count.dbg.spill, !834, !DIExpression(), !828)
  store i64 1, ptr %count.dbg.spill1, align 8, !dbg !836
    #dbg_declare(ptr %count.dbg.spill1, !842, !DIExpression(), !836)
  store i64 1, ptr %self.dbg.spill, align 8, !dbg !844
    #dbg_declare(ptr %self.dbg.spill, !849, !DIExpression(), !844)
  store i64 -1, ptr %count.dbg.spill2, align 8, !dbg !851
    #dbg_declare(ptr %count.dbg.spill2, !857, !DIExpression(), !851)
  store i8 1, ptr %_21, align 1, !dbg !859
  store ptr %ptr, ptr %self.dbg.spill3, align 8, !dbg !860
    #dbg_declare(ptr %self.dbg.spill3, !861, !DIExpression(), !866)
    #dbg_declare(ptr %self.dbg.spill3, !833, !DIExpression(), !868)
    #dbg_declare(ptr %self.dbg.spill3, !869, !DIExpression(), !876)
  store ptr %ptr, ptr %bits, align 8, !dbg !878
  %2 = load i64, ptr %bits, align 8, !dbg !879
  %_5 = and i64 %2, 3, !dbg !879
  switch i64 %_5, label %bb1 [
    i64 2, label %bb5
    i64 3, label %bb4
    i64 0, label %bb3
    i64 1, label %bb2
  ], !dbg !880

bb1:                                              ; preds = %start
; invoke core::panicking::panic
  invoke void @_ZN4core9panicking5panic17h3c0d0c5e47386e71E(ptr align 1 @alloc_a500d906b91607583596fa15e63c2ada, i64 40, ptr align 8 @alloc_ea620bb87618a7b73eea9955062c98f8) #15
          to label %unreachable unwind label %cleanup, !dbg !881

bb5:                                              ; preds = %start
  %_8 = load i64, ptr %bits, align 8, !dbg !882
  %_7 = ashr i64 %_8, 32, !dbg !883
  %code = trunc i64 %_7 to i32, !dbg !883
  store i32 %code, ptr %code.dbg.spill, align 4, !dbg !883
    #dbg_declare(ptr %code.dbg.spill, !757, !DIExpression(), !884)
  %3 = getelementptr inbounds i8, ptr %_0, i64 4, !dbg !885
  store i32 %code, ptr %3, align 4, !dbg !885
  store i8 0, ptr %_0, align 8, !dbg !885
  br label %bb10, !dbg !886

bb4:                                              ; preds = %start
  %4 = load i64, ptr %bits, align 8, !dbg !887
  %_10 = lshr i64 %4, 32, !dbg !887
  %kind_bits = trunc i64 %_10 to i32, !dbg !887
  store i32 %kind_bits, ptr %kind_bits.dbg.spill, align 4, !dbg !887
    #dbg_declare(ptr %kind_bits.dbg.spill, !759, !DIExpression(), !888)
; invoke std::io::error::repr_bitpacked::kind_from_prim
  %5 = invoke i8 @_ZN3std2io5error14repr_bitpacked14kind_from_prim17hbea0b495435264a8E(i32 %kind_bits)
          to label %bb6 unwind label %cleanup, !dbg !889

bb3:                                              ; preds = %start
  store ptr %ptr, ptr %self.dbg.spill4, align 8, !dbg !890
    #dbg_declare(ptr %self.dbg.spill4, !891, !DIExpression(), !898)
  %6 = getelementptr inbounds i8, ptr %_0, i64 8, !dbg !900
  store ptr %ptr, ptr %6, align 8, !dbg !900
  store i8 2, ptr %_0, align 8, !dbg !900
  br label %bb10, !dbg !886

bb2:                                              ; preds = %start
  store ptr %ptr, ptr %self.dbg.spill5, align 8, !dbg !901
    #dbg_declare(ptr %self.dbg.spill5, !841, !DIExpression(), !902)
    #dbg_declare(ptr %self.dbg.spill5, !856, !DIExpression(), !903)
  %7 = getelementptr i8, ptr %ptr, i64 -1, !dbg !904
  store ptr %7, ptr %0, align 8, !dbg !904
  %_35 = load ptr, ptr %0, align 8, !dbg !904
  store ptr %_35, ptr %self.dbg.spill6, align 8, !dbg !904
    #dbg_declare(ptr %self.dbg.spill6, !905, !DIExpression(), !913)
  store ptr %ptr, ptr %meta.dbg.spill, align 8, !dbg !915
    #dbg_declare(ptr %meta.dbg.spill, !910, !DIExpression(), !916)
    #dbg_declare(ptr %meta.dbg.spill, !917, !DIExpression(), !924)
  store ptr %_35, ptr %self.dbg.spill7, align 8, !dbg !926
    #dbg_declare(ptr %self.dbg.spill7, !927, !DIExpression(), !934)
  store ptr %_35, ptr %custom.dbg.spill, align 8, !dbg !936
    #dbg_declare(ptr %custom.dbg.spill, !763, !DIExpression(), !937)
  store i8 0, ptr %_21, align 1, !dbg !938
; invoke <std::io::error::repr_bitpacked::Repr as core::ops::drop::Drop>::drop::{{closure}}
  %_17 = invoke align 8 ptr @"_ZN78_$LT$std..io..error..repr_bitpacked..Repr$u20$as$u20$core..ops..drop..Drop$GT$4drop28_$u7b$$u7b$closure$u7d$$u7d$17hd45a90c9ff447499E"(ptr %_35)
          to label %bb7 unwind label %cleanup, !dbg !938

bb10:                                             ; preds = %bb3, %bb15, %bb5
  br label %bb8, !dbg !886

bb12:                                             ; preds = %cleanup
  %8 = load i8, ptr %_21, align 1, !dbg !886
  %9 = trunc nuw i8 %8 to i1, !dbg !886
  br i1 %9, label %bb11, label %bb9, !dbg !886

cleanup:                                          ; preds = %bb1, %bb2, %bb4
  %10 = landingpad { ptr, i32 }
          cleanup
  %11 = extractvalue { ptr, i32 } %10, 0
  %12 = extractvalue { ptr, i32 } %10, 1
  store ptr %11, ptr %1, align 8
  %13 = getelementptr inbounds i8, ptr %1, i64 8
  store i32 %12, ptr %13, align 8
  br label %bb12

bb6:                                              ; preds = %bb4
  store i8 %5, ptr %self, align 1, !dbg !889
  store ptr %bits, ptr %f.dbg.spill, align 8, !dbg !939
    #dbg_declare(ptr %f.dbg.spill, !823, !DIExpression(), !940)
    #dbg_declare(ptr %f.dbg.spill, !941, !DIExpression(DW_OP_deref), !1018)
  %14 = load i8, ptr %self, align 1, !dbg !1020
  %15 = icmp eq i8 %14, 42, !dbg !1020
  %_23 = select i1 %15, i64 0, i64 1, !dbg !1020
  %16 = trunc nuw i64 %_23 to i1, !dbg !1021
  br i1 %16, label %bb15, label %bb14, !dbg !1021

bb15:                                             ; preds = %bb6
  %kind = load i8, ptr %self, align 1, !dbg !1022
  store i8 %kind, ptr %kind.dbg.spill, align 1, !dbg !1022
    #dbg_declare(ptr %kind.dbg.spill, !761, !DIExpression(), !1023)
    #dbg_declare(ptr %kind.dbg.spill, !824, !DIExpression(), !1024)
  %17 = getelementptr inbounds i8, ptr %_0, i64 1, !dbg !1025
  store i8 %kind, ptr %17, align 1, !dbg !1025
  store i8 1, ptr %_0, align 8, !dbg !1025
  br label %bb10, !dbg !886

bb14:                                             ; preds = %bb6
; call core::hint::unreachable_unchecked::precondition_check
  call void @_ZN4core4hint21unreachable_unchecked18precondition_check17h5a9e083451ad6e8eE(ptr align 8 @alloc_e06be43faf83db6fef3e1b19bf48d11e) #14, !dbg !1026
  br label %bb13, !dbg !1026

bb13:                                             ; preds = %bb14
  unreachable, !dbg !1034

bb8:                                              ; preds = %bb7, %bb10
  ret void, !dbg !1036

bb7:                                              ; preds = %bb2
  %18 = getelementptr inbounds i8, ptr %_0, i64 8, !dbg !1037
  store ptr %_17, ptr %18, align 8, !dbg !1037
  store i8 3, ptr %_0, align 8, !dbg !1037
  br label %bb8, !dbg !886

unreachable:                                      ; preds = %bb1
  unreachable

bb9:                                              ; preds = %bb11, %bb12
  %19 = load ptr, ptr %1, align 8, !dbg !1038
  %20 = getelementptr inbounds i8, ptr %1, i64 8, !dbg !1038
  %21 = load i32, ptr %20, align 8, !dbg !1038
  %22 = insertvalue { ptr, i32 } poison, ptr %19, 0, !dbg !1038
  %23 = insertvalue { ptr, i32 } %22, i32 %21, 1, !dbg !1038
  resume { ptr, i32 } %23, !dbg !1038

bb11:                                             ; preds = %bb12
  br label %bb9, !dbg !886
}

; std::io::error::repr_bitpacked::kind_from_prim
; Function Attrs: inlinehint uwtable
define internal i8 @_ZN3std2io5error14repr_bitpacked14kind_from_prim17hbea0b495435264a8E(i32 %0) unnamed_addr #0 !dbg !1039 {
start:
  %v.dbg.spill41 = alloca [8 x i8], align 8
  %v.dbg.spill40 = alloca [8 x i8], align 8
  %v.dbg.spill39 = alloca [8 x i8], align 8
  %v.dbg.spill38 = alloca [8 x i8], align 8
  %v.dbg.spill37 = alloca [8 x i8], align 8
  %v.dbg.spill36 = alloca [8 x i8], align 8
  %v.dbg.spill35 = alloca [8 x i8], align 8
  %v.dbg.spill34 = alloca [8 x i8], align 8
  %v.dbg.spill33 = alloca [8 x i8], align 8
  %v.dbg.spill32 = alloca [8 x i8], align 8
  %v.dbg.spill31 = alloca [8 x i8], align 8
  %v.dbg.spill30 = alloca [8 x i8], align 8
  %v.dbg.spill29 = alloca [8 x i8], align 8
  %v.dbg.spill28 = alloca [8 x i8], align 8
  %v.dbg.spill27 = alloca [8 x i8], align 8
  %v.dbg.spill26 = alloca [8 x i8], align 8
  %v.dbg.spill25 = alloca [8 x i8], align 8
  %v.dbg.spill24 = alloca [8 x i8], align 8
  %v.dbg.spill23 = alloca [8 x i8], align 8
  %v.dbg.spill22 = alloca [8 x i8], align 8
  %v.dbg.spill21 = alloca [8 x i8], align 8
  %v.dbg.spill20 = alloca [8 x i8], align 8
  %v.dbg.spill19 = alloca [8 x i8], align 8
  %v.dbg.spill18 = alloca [8 x i8], align 8
  %v.dbg.spill17 = alloca [8 x i8], align 8
  %v.dbg.spill16 = alloca [8 x i8], align 8
  %v.dbg.spill15 = alloca [8 x i8], align 8
  %v.dbg.spill14 = alloca [8 x i8], align 8
  %v.dbg.spill13 = alloca [8 x i8], align 8
  %v.dbg.spill12 = alloca [8 x i8], align 8
  %v.dbg.spill11 = alloca [8 x i8], align 8
  %v.dbg.spill10 = alloca [8 x i8], align 8
  %v.dbg.spill9 = alloca [8 x i8], align 8
  %v.dbg.spill8 = alloca [8 x i8], align 8
  %v.dbg.spill7 = alloca [8 x i8], align 8
  %v.dbg.spill6 = alloca [8 x i8], align 8
  %v.dbg.spill5 = alloca [8 x i8], align 8
  %v.dbg.spill4 = alloca [8 x i8], align 8
  %v.dbg.spill3 = alloca [8 x i8], align 8
  %v.dbg.spill2 = alloca [8 x i8], align 8
  %v.dbg.spill1 = alloca [8 x i8], align 8
  %v.dbg.spill = alloca [8 x i8], align 8
  %_0 = alloca [1 x i8], align 1
  %ek = alloca [4 x i8], align 4
  store i32 %0, ptr %ek, align 4
    #dbg_declare(ptr %ek, !1043, !DIExpression(), !1171)
    #dbg_declare(ptr %ek, !1044, !DIExpression(), !1172)
    #dbg_declare(ptr %ek, !1048, !DIExpression(), !1173)
    #dbg_declare(ptr %ek, !1051, !DIExpression(), !1174)
    #dbg_declare(ptr %ek, !1054, !DIExpression(), !1175)
    #dbg_declare(ptr %ek, !1057, !DIExpression(), !1176)
    #dbg_declare(ptr %ek, !1060, !DIExpression(), !1177)
    #dbg_declare(ptr %ek, !1063, !DIExpression(), !1178)
    #dbg_declare(ptr %ek, !1066, !DIExpression(), !1179)
    #dbg_declare(ptr %ek, !1069, !DIExpression(), !1180)
    #dbg_declare(ptr %ek, !1072, !DIExpression(), !1181)
    #dbg_declare(ptr %ek, !1075, !DIExpression(), !1182)
    #dbg_declare(ptr %ek, !1078, !DIExpression(), !1183)
    #dbg_declare(ptr %ek, !1081, !DIExpression(), !1184)
    #dbg_declare(ptr %ek, !1084, !DIExpression(), !1185)
    #dbg_declare(ptr %ek, !1087, !DIExpression(), !1186)
    #dbg_declare(ptr %ek, !1090, !DIExpression(), !1187)
    #dbg_declare(ptr %ek, !1093, !DIExpression(), !1188)
    #dbg_declare(ptr %ek, !1096, !DIExpression(), !1189)
    #dbg_declare(ptr %ek, !1099, !DIExpression(), !1190)
    #dbg_declare(ptr %ek, !1102, !DIExpression(), !1191)
    #dbg_declare(ptr %ek, !1105, !DIExpression(), !1192)
    #dbg_declare(ptr %ek, !1108, !DIExpression(), !1193)
    #dbg_declare(ptr %ek, !1111, !DIExpression(), !1194)
    #dbg_declare(ptr %ek, !1114, !DIExpression(), !1195)
    #dbg_declare(ptr %ek, !1117, !DIExpression(), !1196)
    #dbg_declare(ptr %ek, !1120, !DIExpression(), !1197)
    #dbg_declare(ptr %ek, !1123, !DIExpression(), !1198)
    #dbg_declare(ptr %ek, !1126, !DIExpression(), !1199)
    #dbg_declare(ptr %ek, !1129, !DIExpression(), !1200)
    #dbg_declare(ptr %ek, !1132, !DIExpression(), !1201)
    #dbg_declare(ptr %ek, !1135, !DIExpression(), !1202)
    #dbg_declare(ptr %ek, !1138, !DIExpression(), !1203)
    #dbg_declare(ptr %ek, !1141, !DIExpression(), !1204)
    #dbg_declare(ptr %ek, !1144, !DIExpression(), !1205)
    #dbg_declare(ptr %ek, !1147, !DIExpression(), !1206)
    #dbg_declare(ptr %ek, !1150, !DIExpression(), !1207)
    #dbg_declare(ptr %ek, !1153, !DIExpression(), !1208)
    #dbg_declare(ptr %ek, !1156, !DIExpression(), !1209)
    #dbg_declare(ptr %ek, !1159, !DIExpression(), !1210)
    #dbg_declare(ptr %ek, !1162, !DIExpression(), !1211)
    #dbg_declare(ptr %ek, !1165, !DIExpression(), !1212)
    #dbg_declare(ptr %ek, !1168, !DIExpression(), !1213)
  store ptr %ek, ptr %v.dbg.spill, align 8, !dbg !1214
    #dbg_declare(ptr %v.dbg.spill, !1046, !DIExpression(), !1172)
  %1 = load i32, ptr %ek, align 4, !dbg !1215
  %2 = icmp eq i32 %1, 0, !dbg !1215
  br i1 %2, label %bb1, label %bb2, !dbg !1215

bb1:                                              ; preds = %start
  store i8 0, ptr %_0, align 1, !dbg !1216
  br label %bb85, !dbg !1217

bb2:                                              ; preds = %start
  store ptr %ek, ptr %v.dbg.spill1, align 8, !dbg !1214
    #dbg_declare(ptr %v.dbg.spill1, !1050, !DIExpression(), !1173)
  %3 = load i32, ptr %ek, align 4, !dbg !1215
  %4 = icmp eq i32 %3, 1, !dbg !1215
  br i1 %4, label %bb3, label %bb4, !dbg !1215

bb85:                                             ; preds = %bb84, %bb83, %bb81, %bb79, %bb77, %bb75, %bb73, %bb71, %bb69, %bb67, %bb65, %bb63, %bb61, %bb59, %bb57, %bb55, %bb53, %bb51, %bb49, %bb47, %bb45, %bb43, %bb41, %bb39, %bb37, %bb35, %bb33, %bb31, %bb29, %bb27, %bb25, %bb23, %bb21, %bb19, %bb17, %bb15, %bb13, %bb11, %bb9, %bb7, %bb5, %bb3, %bb1
  %5 = load i8, ptr %_0, align 1, !dbg !1218
  ret i8 %5, !dbg !1218

bb3:                                              ; preds = %bb2
  store i8 1, ptr %_0, align 1, !dbg !1219
  br label %bb85, !dbg !1217

bb4:                                              ; preds = %bb2
  store ptr %ek, ptr %v.dbg.spill2, align 8, !dbg !1214
    #dbg_declare(ptr %v.dbg.spill2, !1053, !DIExpression(), !1174)
  %6 = load i32, ptr %ek, align 4, !dbg !1215
  %7 = icmp eq i32 %6, 2, !dbg !1215
  br i1 %7, label %bb5, label %bb6, !dbg !1215

bb5:                                              ; preds = %bb4
  store i8 2, ptr %_0, align 1, !dbg !1220
  br label %bb85, !dbg !1217

bb6:                                              ; preds = %bb4
  store ptr %ek, ptr %v.dbg.spill3, align 8, !dbg !1214
    #dbg_declare(ptr %v.dbg.spill3, !1056, !DIExpression(), !1175)
  %8 = load i32, ptr %ek, align 4, !dbg !1215
  %9 = icmp eq i32 %8, 3, !dbg !1215
  br i1 %9, label %bb7, label %bb8, !dbg !1215

bb7:                                              ; preds = %bb6
  store i8 3, ptr %_0, align 1, !dbg !1221
  br label %bb85, !dbg !1217

bb8:                                              ; preds = %bb6
  store ptr %ek, ptr %v.dbg.spill4, align 8, !dbg !1214
    #dbg_declare(ptr %v.dbg.spill4, !1059, !DIExpression(), !1176)
  %10 = load i32, ptr %ek, align 4, !dbg !1215
  %11 = icmp eq i32 %10, 4, !dbg !1215
  br i1 %11, label %bb9, label %bb10, !dbg !1215

bb9:                                              ; preds = %bb8
  store i8 4, ptr %_0, align 1, !dbg !1222
  br label %bb85, !dbg !1217

bb10:                                             ; preds = %bb8
  store ptr %ek, ptr %v.dbg.spill5, align 8, !dbg !1214
    #dbg_declare(ptr %v.dbg.spill5, !1062, !DIExpression(), !1177)
  %12 = load i32, ptr %ek, align 4, !dbg !1215
  %13 = icmp eq i32 %12, 5, !dbg !1215
  br i1 %13, label %bb11, label %bb12, !dbg !1215

bb11:                                             ; preds = %bb10
  store i8 5, ptr %_0, align 1, !dbg !1223
  br label %bb85, !dbg !1217

bb12:                                             ; preds = %bb10
  store ptr %ek, ptr %v.dbg.spill6, align 8, !dbg !1214
    #dbg_declare(ptr %v.dbg.spill6, !1065, !DIExpression(), !1178)
  %14 = load i32, ptr %ek, align 4, !dbg !1215
  %15 = icmp eq i32 %14, 6, !dbg !1215
  br i1 %15, label %bb13, label %bb14, !dbg !1215

bb13:                                             ; preds = %bb12
  store i8 6, ptr %_0, align 1, !dbg !1224
  br label %bb85, !dbg !1217

bb14:                                             ; preds = %bb12
  store ptr %ek, ptr %v.dbg.spill7, align 8, !dbg !1214
    #dbg_declare(ptr %v.dbg.spill7, !1068, !DIExpression(), !1179)
  %16 = load i32, ptr %ek, align 4, !dbg !1215
  %17 = icmp eq i32 %16, 7, !dbg !1215
  br i1 %17, label %bb15, label %bb16, !dbg !1215

bb15:                                             ; preds = %bb14
  store i8 7, ptr %_0, align 1, !dbg !1225
  br label %bb85, !dbg !1217

bb16:                                             ; preds = %bb14
  store ptr %ek, ptr %v.dbg.spill8, align 8, !dbg !1214
    #dbg_declare(ptr %v.dbg.spill8, !1071, !DIExpression(), !1180)
  %18 = load i32, ptr %ek, align 4, !dbg !1215
  %19 = icmp eq i32 %18, 8, !dbg !1215
  br i1 %19, label %bb17, label %bb18, !dbg !1215

bb17:                                             ; preds = %bb16
  store i8 8, ptr %_0, align 1, !dbg !1226
  br label %bb85, !dbg !1217

bb18:                                             ; preds = %bb16
  store ptr %ek, ptr %v.dbg.spill9, align 8, !dbg !1214
    #dbg_declare(ptr %v.dbg.spill9, !1074, !DIExpression(), !1181)
  %20 = load i32, ptr %ek, align 4, !dbg !1215
  %21 = icmp eq i32 %20, 9, !dbg !1215
  br i1 %21, label %bb19, label %bb20, !dbg !1215

bb19:                                             ; preds = %bb18
  store i8 9, ptr %_0, align 1, !dbg !1227
  br label %bb85, !dbg !1217

bb20:                                             ; preds = %bb18
  store ptr %ek, ptr %v.dbg.spill10, align 8, !dbg !1214
    #dbg_declare(ptr %v.dbg.spill10, !1077, !DIExpression(), !1182)
  %22 = load i32, ptr %ek, align 4, !dbg !1215
  %23 = icmp eq i32 %22, 10, !dbg !1215
  br i1 %23, label %bb21, label %bb22, !dbg !1215

bb21:                                             ; preds = %bb20
  store i8 10, ptr %_0, align 1, !dbg !1228
  br label %bb85, !dbg !1217

bb22:                                             ; preds = %bb20
  store ptr %ek, ptr %v.dbg.spill11, align 8, !dbg !1214
    #dbg_declare(ptr %v.dbg.spill11, !1080, !DIExpression(), !1183)
  %24 = load i32, ptr %ek, align 4, !dbg !1215
  %25 = icmp eq i32 %24, 11, !dbg !1215
  br i1 %25, label %bb23, label %bb24, !dbg !1215

bb23:                                             ; preds = %bb22
  store i8 11, ptr %_0, align 1, !dbg !1229
  br label %bb85, !dbg !1217

bb24:                                             ; preds = %bb22
  store ptr %ek, ptr %v.dbg.spill12, align 8, !dbg !1214
    #dbg_declare(ptr %v.dbg.spill12, !1083, !DIExpression(), !1184)
  %26 = load i32, ptr %ek, align 4, !dbg !1215
  %27 = icmp eq i32 %26, 12, !dbg !1215
  br i1 %27, label %bb25, label %bb26, !dbg !1215

bb25:                                             ; preds = %bb24
  store i8 12, ptr %_0, align 1, !dbg !1230
  br label %bb85, !dbg !1217

bb26:                                             ; preds = %bb24
  store ptr %ek, ptr %v.dbg.spill13, align 8, !dbg !1214
    #dbg_declare(ptr %v.dbg.spill13, !1086, !DIExpression(), !1185)
  %28 = load i32, ptr %ek, align 4, !dbg !1215
  %29 = icmp eq i32 %28, 13, !dbg !1215
  br i1 %29, label %bb27, label %bb28, !dbg !1215

bb27:                                             ; preds = %bb26
  store i8 13, ptr %_0, align 1, !dbg !1231
  br label %bb85, !dbg !1217

bb28:                                             ; preds = %bb26
  store ptr %ek, ptr %v.dbg.spill14, align 8, !dbg !1214
    #dbg_declare(ptr %v.dbg.spill14, !1089, !DIExpression(), !1186)
  %30 = load i32, ptr %ek, align 4, !dbg !1215
  %31 = icmp eq i32 %30, 14, !dbg !1215
  br i1 %31, label %bb29, label %bb30, !dbg !1215

bb29:                                             ; preds = %bb28
  store i8 14, ptr %_0, align 1, !dbg !1232
  br label %bb85, !dbg !1217

bb30:                                             ; preds = %bb28
  store ptr %ek, ptr %v.dbg.spill15, align 8, !dbg !1214
    #dbg_declare(ptr %v.dbg.spill15, !1092, !DIExpression(), !1187)
  %32 = load i32, ptr %ek, align 4, !dbg !1215
  %33 = icmp eq i32 %32, 15, !dbg !1215
  br i1 %33, label %bb31, label %bb32, !dbg !1215

bb31:                                             ; preds = %bb30
  store i8 15, ptr %_0, align 1, !dbg !1233
  br label %bb85, !dbg !1217

bb32:                                             ; preds = %bb30
  store ptr %ek, ptr %v.dbg.spill16, align 8, !dbg !1214
    #dbg_declare(ptr %v.dbg.spill16, !1095, !DIExpression(), !1188)
  %34 = load i32, ptr %ek, align 4, !dbg !1215
  %35 = icmp eq i32 %34, 16, !dbg !1215
  br i1 %35, label %bb33, label %bb34, !dbg !1215

bb33:                                             ; preds = %bb32
  store i8 16, ptr %_0, align 1, !dbg !1234
  br label %bb85, !dbg !1217

bb34:                                             ; preds = %bb32
  store ptr %ek, ptr %v.dbg.spill17, align 8, !dbg !1214
    #dbg_declare(ptr %v.dbg.spill17, !1098, !DIExpression(), !1189)
  %36 = load i32, ptr %ek, align 4, !dbg !1215
  %37 = icmp eq i32 %36, 17, !dbg !1215
  br i1 %37, label %bb35, label %bb36, !dbg !1215

bb35:                                             ; preds = %bb34
  store i8 17, ptr %_0, align 1, !dbg !1235
  br label %bb85, !dbg !1217

bb36:                                             ; preds = %bb34
  store ptr %ek, ptr %v.dbg.spill18, align 8, !dbg !1214
    #dbg_declare(ptr %v.dbg.spill18, !1101, !DIExpression(), !1190)
  %38 = load i32, ptr %ek, align 4, !dbg !1215
  %39 = icmp eq i32 %38, 18, !dbg !1215
  br i1 %39, label %bb37, label %bb38, !dbg !1215

bb37:                                             ; preds = %bb36
  store i8 18, ptr %_0, align 1, !dbg !1236
  br label %bb85, !dbg !1217

bb38:                                             ; preds = %bb36
  store ptr %ek, ptr %v.dbg.spill19, align 8, !dbg !1214
    #dbg_declare(ptr %v.dbg.spill19, !1104, !DIExpression(), !1191)
  %40 = load i32, ptr %ek, align 4, !dbg !1215
  %41 = icmp eq i32 %40, 19, !dbg !1215
  br i1 %41, label %bb39, label %bb40, !dbg !1215

bb39:                                             ; preds = %bb38
  store i8 19, ptr %_0, align 1, !dbg !1237
  br label %bb85, !dbg !1217

bb40:                                             ; preds = %bb38
  store ptr %ek, ptr %v.dbg.spill20, align 8, !dbg !1214
    #dbg_declare(ptr %v.dbg.spill20, !1107, !DIExpression(), !1192)
  %42 = load i32, ptr %ek, align 4, !dbg !1215
  %43 = icmp eq i32 %42, 20, !dbg !1215
  br i1 %43, label %bb41, label %bb42, !dbg !1215

bb41:                                             ; preds = %bb40
  store i8 20, ptr %_0, align 1, !dbg !1238
  br label %bb85, !dbg !1217

bb42:                                             ; preds = %bb40
  store ptr %ek, ptr %v.dbg.spill21, align 8, !dbg !1214
    #dbg_declare(ptr %v.dbg.spill21, !1110, !DIExpression(), !1193)
  %44 = load i32, ptr %ek, align 4, !dbg !1215
  %45 = icmp eq i32 %44, 21, !dbg !1215
  br i1 %45, label %bb43, label %bb44, !dbg !1215

bb43:                                             ; preds = %bb42
  store i8 21, ptr %_0, align 1, !dbg !1239
  br label %bb85, !dbg !1217

bb44:                                             ; preds = %bb42
  store ptr %ek, ptr %v.dbg.spill22, align 8, !dbg !1214
    #dbg_declare(ptr %v.dbg.spill22, !1113, !DIExpression(), !1194)
  %46 = load i32, ptr %ek, align 4, !dbg !1215
  %47 = icmp eq i32 %46, 22, !dbg !1215
  br i1 %47, label %bb45, label %bb46, !dbg !1215

bb45:                                             ; preds = %bb44
  store i8 22, ptr %_0, align 1, !dbg !1240
  br label %bb85, !dbg !1217

bb46:                                             ; preds = %bb44
  store ptr %ek, ptr %v.dbg.spill23, align 8, !dbg !1214
    #dbg_declare(ptr %v.dbg.spill23, !1116, !DIExpression(), !1195)
  %48 = load i32, ptr %ek, align 4, !dbg !1215
  %49 = icmp eq i32 %48, 23, !dbg !1215
  br i1 %49, label %bb47, label %bb48, !dbg !1215

bb47:                                             ; preds = %bb46
  store i8 23, ptr %_0, align 1, !dbg !1241
  br label %bb85, !dbg !1217

bb48:                                             ; preds = %bb46
  store ptr %ek, ptr %v.dbg.spill24, align 8, !dbg !1214
    #dbg_declare(ptr %v.dbg.spill24, !1119, !DIExpression(), !1196)
  %50 = load i32, ptr %ek, align 4, !dbg !1215
  %51 = icmp eq i32 %50, 24, !dbg !1215
  br i1 %51, label %bb49, label %bb50, !dbg !1215

bb49:                                             ; preds = %bb48
  store i8 24, ptr %_0, align 1, !dbg !1242
  br label %bb85, !dbg !1217

bb50:                                             ; preds = %bb48
  store ptr %ek, ptr %v.dbg.spill25, align 8, !dbg !1214
    #dbg_declare(ptr %v.dbg.spill25, !1122, !DIExpression(), !1197)
  %52 = load i32, ptr %ek, align 4, !dbg !1215
  %53 = icmp eq i32 %52, 25, !dbg !1215
  br i1 %53, label %bb51, label %bb52, !dbg !1215

bb51:                                             ; preds = %bb50
  store i8 25, ptr %_0, align 1, !dbg !1243
  br label %bb85, !dbg !1217

bb52:                                             ; preds = %bb50
  store ptr %ek, ptr %v.dbg.spill26, align 8, !dbg !1214
    #dbg_declare(ptr %v.dbg.spill26, !1125, !DIExpression(), !1198)
  %54 = load i32, ptr %ek, align 4, !dbg !1215
  %55 = icmp eq i32 %54, 26, !dbg !1215
  br i1 %55, label %bb53, label %bb54, !dbg !1215

bb53:                                             ; preds = %bb52
  store i8 26, ptr %_0, align 1, !dbg !1244
  br label %bb85, !dbg !1217

bb54:                                             ; preds = %bb52
  store ptr %ek, ptr %v.dbg.spill27, align 8, !dbg !1214
    #dbg_declare(ptr %v.dbg.spill27, !1128, !DIExpression(), !1199)
  %56 = load i32, ptr %ek, align 4, !dbg !1215
  %57 = icmp eq i32 %56, 27, !dbg !1215
  br i1 %57, label %bb55, label %bb56, !dbg !1215

bb55:                                             ; preds = %bb54
  store i8 27, ptr %_0, align 1, !dbg !1245
  br label %bb85, !dbg !1217

bb56:                                             ; preds = %bb54
  store ptr %ek, ptr %v.dbg.spill28, align 8, !dbg !1214
    #dbg_declare(ptr %v.dbg.spill28, !1131, !DIExpression(), !1200)
  %58 = load i32, ptr %ek, align 4, !dbg !1215
  %59 = icmp eq i32 %58, 28, !dbg !1215
  br i1 %59, label %bb57, label %bb58, !dbg !1215

bb57:                                             ; preds = %bb56
  store i8 28, ptr %_0, align 1, !dbg !1246
  br label %bb85, !dbg !1217

bb58:                                             ; preds = %bb56
  store ptr %ek, ptr %v.dbg.spill29, align 8, !dbg !1214
    #dbg_declare(ptr %v.dbg.spill29, !1134, !DIExpression(), !1201)
  %60 = load i32, ptr %ek, align 4, !dbg !1215
  %61 = icmp eq i32 %60, 29, !dbg !1215
  br i1 %61, label %bb59, label %bb60, !dbg !1215

bb59:                                             ; preds = %bb58
  store i8 29, ptr %_0, align 1, !dbg !1247
  br label %bb85, !dbg !1217

bb60:                                             ; preds = %bb58
  store ptr %ek, ptr %v.dbg.spill30, align 8, !dbg !1214
    #dbg_declare(ptr %v.dbg.spill30, !1137, !DIExpression(), !1202)
  %62 = load i32, ptr %ek, align 4, !dbg !1215
  %63 = icmp eq i32 %62, 30, !dbg !1215
  br i1 %63, label %bb61, label %bb62, !dbg !1215

bb61:                                             ; preds = %bb60
  store i8 30, ptr %_0, align 1, !dbg !1248
  br label %bb85, !dbg !1217

bb62:                                             ; preds = %bb60
  store ptr %ek, ptr %v.dbg.spill31, align 8, !dbg !1214
    #dbg_declare(ptr %v.dbg.spill31, !1140, !DIExpression(), !1203)
  %64 = load i32, ptr %ek, align 4, !dbg !1215
  %65 = icmp eq i32 %64, 31, !dbg !1215
  br i1 %65, label %bb63, label %bb64, !dbg !1215

bb63:                                             ; preds = %bb62
  store i8 31, ptr %_0, align 1, !dbg !1249
  br label %bb85, !dbg !1217

bb64:                                             ; preds = %bb62
  store ptr %ek, ptr %v.dbg.spill32, align 8, !dbg !1214
    #dbg_declare(ptr %v.dbg.spill32, !1143, !DIExpression(), !1204)
  %66 = load i32, ptr %ek, align 4, !dbg !1215
  %67 = icmp eq i32 %66, 32, !dbg !1215
  br i1 %67, label %bb65, label %bb66, !dbg !1215

bb65:                                             ; preds = %bb64
  store i8 32, ptr %_0, align 1, !dbg !1250
  br label %bb85, !dbg !1217

bb66:                                             ; preds = %bb64
  store ptr %ek, ptr %v.dbg.spill33, align 8, !dbg !1214
    #dbg_declare(ptr %v.dbg.spill33, !1146, !DIExpression(), !1205)
  %68 = load i32, ptr %ek, align 4, !dbg !1215
  %69 = icmp eq i32 %68, 33, !dbg !1215
  br i1 %69, label %bb67, label %bb68, !dbg !1215

bb67:                                             ; preds = %bb66
  store i8 33, ptr %_0, align 1, !dbg !1251
  br label %bb85, !dbg !1217

bb68:                                             ; preds = %bb66
  store ptr %ek, ptr %v.dbg.spill34, align 8, !dbg !1214
    #dbg_declare(ptr %v.dbg.spill34, !1149, !DIExpression(), !1206)
  %70 = load i32, ptr %ek, align 4, !dbg !1215
  %71 = icmp eq i32 %70, 34, !dbg !1215
  br i1 %71, label %bb69, label %bb70, !dbg !1215

bb69:                                             ; preds = %bb68
  store i8 34, ptr %_0, align 1, !dbg !1252
  br label %bb85, !dbg !1217

bb70:                                             ; preds = %bb68
  store ptr %ek, ptr %v.dbg.spill35, align 8, !dbg !1214
    #dbg_declare(ptr %v.dbg.spill35, !1152, !DIExpression(), !1207)
  %72 = load i32, ptr %ek, align 4, !dbg !1215
  %73 = icmp eq i32 %72, 35, !dbg !1215
  br i1 %73, label %bb71, label %bb72, !dbg !1215

bb71:                                             ; preds = %bb70
  store i8 35, ptr %_0, align 1, !dbg !1253
  br label %bb85, !dbg !1217

bb72:                                             ; preds = %bb70
  store ptr %ek, ptr %v.dbg.spill36, align 8, !dbg !1214
    #dbg_declare(ptr %v.dbg.spill36, !1155, !DIExpression(), !1208)
  %74 = load i32, ptr %ek, align 4, !dbg !1215
  %75 = icmp eq i32 %74, 40, !dbg !1215
  br i1 %75, label %bb73, label %bb74, !dbg !1215

bb73:                                             ; preds = %bb72
  store i8 40, ptr %_0, align 1, !dbg !1254
  br label %bb85, !dbg !1217

bb74:                                             ; preds = %bb72
  store ptr %ek, ptr %v.dbg.spill37, align 8, !dbg !1214
    #dbg_declare(ptr %v.dbg.spill37, !1158, !DIExpression(), !1209)
  %76 = load i32, ptr %ek, align 4, !dbg !1215
  %77 = icmp eq i32 %76, 37, !dbg !1215
  br i1 %77, label %bb75, label %bb76, !dbg !1215

bb75:                                             ; preds = %bb74
  store i8 37, ptr %_0, align 1, !dbg !1255
  br label %bb85, !dbg !1217

bb76:                                             ; preds = %bb74
  store ptr %ek, ptr %v.dbg.spill38, align 8, !dbg !1214
    #dbg_declare(ptr %v.dbg.spill38, !1161, !DIExpression(), !1210)
  %78 = load i32, ptr %ek, align 4, !dbg !1215
  %79 = icmp eq i32 %78, 36, !dbg !1215
  br i1 %79, label %bb77, label %bb78, !dbg !1215

bb77:                                             ; preds = %bb76
  store i8 36, ptr %_0, align 1, !dbg !1256
  br label %bb85, !dbg !1217

bb78:                                             ; preds = %bb76
  store ptr %ek, ptr %v.dbg.spill39, align 8, !dbg !1214
    #dbg_declare(ptr %v.dbg.spill39, !1164, !DIExpression(), !1211)
  %80 = load i32, ptr %ek, align 4, !dbg !1215
  %81 = icmp eq i32 %80, 38, !dbg !1215
  br i1 %81, label %bb79, label %bb80, !dbg !1215

bb79:                                             ; preds = %bb78
  store i8 38, ptr %_0, align 1, !dbg !1257
  br label %bb85, !dbg !1217

bb80:                                             ; preds = %bb78
  store ptr %ek, ptr %v.dbg.spill40, align 8, !dbg !1214
    #dbg_declare(ptr %v.dbg.spill40, !1167, !DIExpression(), !1212)
  %82 = load i32, ptr %ek, align 4, !dbg !1215
  %83 = icmp eq i32 %82, 39, !dbg !1215
  br i1 %83, label %bb81, label %bb82, !dbg !1215

bb81:                                             ; preds = %bb80
  store i8 39, ptr %_0, align 1, !dbg !1258
  br label %bb85, !dbg !1217

bb82:                                             ; preds = %bb80
  store ptr %ek, ptr %v.dbg.spill41, align 8, !dbg !1214
    #dbg_declare(ptr %v.dbg.spill41, !1170, !DIExpression(), !1213)
  %84 = load i32, ptr %ek, align 4, !dbg !1215
  %85 = icmp eq i32 %84, 41, !dbg !1215
  br i1 %85, label %bb83, label %bb84, !dbg !1215

bb83:                                             ; preds = %bb82
  store i8 41, ptr %_0, align 1, !dbg !1259
  br label %bb85, !dbg !1217

bb84:                                             ; preds = %bb82
  store i8 42, ptr %_0, align 1, !dbg !1260
  br label %bb85, !dbg !1260
}

; std::rt::lang_start
; Function Attrs: uwtable
define hidden i64 @_ZN3std2rt10lang_start17h7b6db486343cf599E(ptr %main, i64 %argc, ptr %argv, i8 %sigpipe) unnamed_addr #1 !dbg !1261 {
start:
  %sigpipe.dbg.spill = alloca [1 x i8], align 1
  %argv.dbg.spill = alloca [8 x i8], align 8
  %argc.dbg.spill = alloca [8 x i8], align 8
  %main.dbg.spill = alloca [8 x i8], align 8
  %_7 = alloca [8 x i8], align 8
  store ptr %main, ptr %main.dbg.spill, align 8
    #dbg_declare(ptr %main.dbg.spill, !1267, !DIExpression(), !1271)
  store i64 %argc, ptr %argc.dbg.spill, align 8
    #dbg_declare(ptr %argc.dbg.spill, !1268, !DIExpression(), !1272)
  store ptr %argv, ptr %argv.dbg.spill, align 8
    #dbg_declare(ptr %argv.dbg.spill, !1269, !DIExpression(), !1273)
  store i8 %sigpipe, ptr %sigpipe.dbg.spill, align 1
    #dbg_declare(ptr %sigpipe.dbg.spill, !1270, !DIExpression(), !1274)
  store ptr %main, ptr %_7, align 8, !dbg !1275
; call std::rt::lang_start_internal
  %_0 = call i64 @_ZN3std2rt19lang_start_internal17hdb28e94b6865fa11E(ptr align 1 %_7, ptr align 8 @vtable.0, i64 %argc, ptr %argv, i8 %sigpipe), !dbg !1276
  ret i64 %_0, !dbg !1277
}

; std::rt::lang_start::{{closure}}
; Function Attrs: inlinehint uwtable
define internal i32 @"_ZN3std2rt10lang_start28_$u7b$$u7b$closure$u7d$$u7d$17h13baac3a064ccaa7E"(ptr align 8 %_1) unnamed_addr #0 !dbg !1278 {
start:
  %self.dbg.spill = alloca [1 x i8], align 1
  %_1.dbg.spill = alloca [8 x i8], align 8
  store ptr %_1, ptr %_1.dbg.spill, align 8
    #dbg_declare(ptr %_1.dbg.spill, !1283, !DIExpression(DW_OP_deref), !1284)
  %_4 = load ptr, ptr %_1, align 8, !dbg !1285
; call std::sys::backtrace::__rust_begin_short_backtrace
  call void @_ZN3std3sys9backtrace28__rust_begin_short_backtrace17hf7faea090d7246a3E(ptr %_4), !dbg !1286
; call <() as std::process::Termination>::report
  %self = call i8 @"_ZN54_$LT$$LP$$RP$$u20$as$u20$std..process..Termination$GT$6report17hdff07968b15f5192E"(), !dbg !1287
  store i8 %self, ptr %self.dbg.spill, align 1, !dbg !1287
    #dbg_declare(ptr %self.dbg.spill, !1288, !DIExpression(), !1306)
  %_0 = zext i8 %self to i32, !dbg !1308
  ret i32 %_0, !dbg !1316
}

; std::sys::backtrace::__rust_begin_short_backtrace
; Function Attrs: noinline uwtable
define internal void @_ZN3std3sys9backtrace28__rust_begin_short_backtrace17hf7faea090d7246a3E(ptr %f) unnamed_addr #2 !dbg !1317 {
start:
  %dummy.dbg.spill = alloca [0 x i8], align 1
  %f.dbg.spill = alloca [8 x i8], align 8
  %result.dbg.spill = alloca [0 x i8], align 1
    #dbg_declare(ptr %result.dbg.spill, !1324, !DIExpression(), !1328)
  store ptr %f, ptr %f.dbg.spill, align 8
    #dbg_declare(ptr %f.dbg.spill, !1323, !DIExpression(), !1329)
    #dbg_declare(ptr %dummy.dbg.spill, !1330, !DIExpression(), !1335)
; call core::ops::function::FnOnce::call_once
  call void @_ZN4core3ops8function6FnOnce9call_once17h6ddce4726cf2d068E(ptr %f), !dbg !1337
  call void asm sideeffect "", "~{memory}"(), !dbg !1338, !srcloc !1339
  ret void, !dbg !1340
}

; <F as core::str::pattern::Pattern>::into_searcher
; Function Attrs: inlinehint uwtable
define internal void @"_ZN49_$LT$F$u20$as$u20$core..str..pattern..Pattern$GT$13into_searcher17he65f416c3f8cb32eE"(ptr sret([40 x i8]) align 8 %_0, ptr align 1 %haystack.0, i64 %haystack.1) unnamed_addr #0 !dbg !1341 {
start:
  %haystack.dbg.spill = alloca [16 x i8], align 8
  %self.dbg.spill = alloca [0 x i8], align 1
  %_3 = alloca [40 x i8], align 8
    #dbg_declare(ptr %self.dbg.spill, !1346, !DIExpression(), !1348)
  store ptr %haystack.0, ptr %haystack.dbg.spill, align 8
  %0 = getelementptr inbounds i8, ptr %haystack.dbg.spill, i64 8
  store i64 %haystack.1, ptr %0, align 8
    #dbg_declare(ptr %haystack.dbg.spill, !1347, !DIExpression(), !1349)
; call <core::str::pattern::MultiCharEqPattern<C> as core::str::pattern::Pattern>::into_searcher
  call void @"_ZN95_$LT$core..str..pattern..MultiCharEqPattern$LT$C$GT$$u20$as$u20$core..str..pattern..Pattern$GT$13into_searcher17h7c3e5705ddfeebd3E"(ptr sret([40 x i8]) align 8 %_3, ptr align 1 %haystack.0, i64 %haystack.1), !dbg !1350
  call void @llvm.memcpy.p0.p0.i64(ptr align 8 %_0, ptr align 8 %_3, i64 40, i1 false), !dbg !1351
  ret void, !dbg !1352
}

; core::intrinsics::cold_path
; Function Attrs: cold nounwind uwtable
define internal void @_ZN4core10intrinsics9cold_path17h233abd36d7d8c458E() unnamed_addr #3 !dbg !1353 {
start:
  ret void, !dbg !1356
}

; core::fmt::rt::<impl core::fmt::Arguments>::new_v1
; Function Attrs: inlinehint uwtable
define internal void @"_ZN4core3fmt2rt38_$LT$impl$u20$core..fmt..Arguments$GT$6new_v117h40eabbb6de6bf418E"(ptr sret([48 x i8]) align 8 %_0, ptr align 8 %pieces, ptr align 8 %args) unnamed_addr #0 !dbg !1357 {
start:
  %args.dbg.spill = alloca [8 x i8], align 8
  %pieces.dbg.spill = alloca [8 x i8], align 8
  store ptr %pieces, ptr %pieces.dbg.spill, align 8
    #dbg_declare(ptr %pieces.dbg.spill, !1422, !DIExpression(), !1424)
  store ptr %args, ptr %args.dbg.spill, align 8
    #dbg_declare(ptr %args.dbg.spill, !1423, !DIExpression(), !1425)
  store ptr %pieces, ptr %_0, align 8, !dbg !1426
  %0 = getelementptr inbounds i8, ptr %_0, i64 8, !dbg !1426
  store i64 2, ptr %0, align 8, !dbg !1426
  %1 = load ptr, ptr @anon.53f16eec224c883228c428cfded7c828.1, align 8, !dbg !1426
  %2 = load i64, ptr getelementptr inbounds (i8, ptr @anon.53f16eec224c883228c428cfded7c828.1, i64 8), align 8, !dbg !1426
  %3 = getelementptr inbounds i8, ptr %_0, i64 32, !dbg !1426
  store ptr %1, ptr %3, align 8, !dbg !1426
  %4 = getelementptr inbounds i8, ptr %3, i64 8, !dbg !1426
  store i64 %2, ptr %4, align 8, !dbg !1426
  %5 = getelementptr inbounds i8, ptr %_0, i64 16, !dbg !1426
  store ptr %args, ptr %5, align 8, !dbg !1426
  %6 = getelementptr inbounds i8, ptr %5, i64 8, !dbg !1426
  store i64 1, ptr %6, align 8, !dbg !1426
  ret void, !dbg !1427
}

; core::fmt::rt::<impl core::fmt::Arguments>::new_v1
; Function Attrs: inlinehint uwtable
define internal void @"_ZN4core3fmt2rt38_$LT$impl$u20$core..fmt..Arguments$GT$6new_v117he214b2ce89078d70E"(ptr sret([48 x i8]) align 8 %_0, ptr align 8 %pieces, ptr align 8 %args) unnamed_addr #0 !dbg !1428 {
start:
  %args.dbg.spill = alloca [8 x i8], align 8
  %pieces.dbg.spill = alloca [8 x i8], align 8
  store ptr %pieces, ptr %pieces.dbg.spill, align 8
    #dbg_declare(ptr %pieces.dbg.spill, !1439, !DIExpression(), !1441)
  store ptr %args, ptr %args.dbg.spill, align 8
    #dbg_declare(ptr %args.dbg.spill, !1440, !DIExpression(), !1442)
  store ptr %pieces, ptr %_0, align 8, !dbg !1443
  %0 = getelementptr inbounds i8, ptr %_0, i64 8, !dbg !1443
  store i64 3, ptr %0, align 8, !dbg !1443
  %1 = load ptr, ptr @anon.53f16eec224c883228c428cfded7c828.1, align 8, !dbg !1443
  %2 = load i64, ptr getelementptr inbounds (i8, ptr @anon.53f16eec224c883228c428cfded7c828.1, i64 8), align 8, !dbg !1443
  %3 = getelementptr inbounds i8, ptr %_0, i64 32, !dbg !1443
  store ptr %1, ptr %3, align 8, !dbg !1443
  %4 = getelementptr inbounds i8, ptr %3, i64 8, !dbg !1443
  store i64 %2, ptr %4, align 8, !dbg !1443
  %5 = getelementptr inbounds i8, ptr %_0, i64 16, !dbg !1443
  store ptr %args, ptr %5, align 8, !dbg !1443
  %6 = getelementptr inbounds i8, ptr %5, i64 8, !dbg !1443
  store i64 2, ptr %6, align 8, !dbg !1443
  ret void, !dbg !1444
}

; core::fmt::rt::<impl core::fmt::Arguments>::new_const
; Function Attrs: inlinehint uwtable
define internal void @"_ZN4core3fmt2rt38_$LT$impl$u20$core..fmt..Arguments$GT$9new_const17h7a96094035957c17E"(ptr sret([48 x i8]) align 8 %_0, ptr align 8 %pieces) unnamed_addr #0 !dbg !1445 {
start:
  %pieces.dbg.spill = alloca [8 x i8], align 8
  store ptr %pieces, ptr %pieces.dbg.spill, align 8
    #dbg_declare(ptr %pieces.dbg.spill, !1452, !DIExpression(), !1453)
  store ptr %pieces, ptr %_0, align 8, !dbg !1454
  %0 = getelementptr inbounds i8, ptr %_0, i64 8, !dbg !1454
  store i64 1, ptr %0, align 8, !dbg !1454
  %1 = load ptr, ptr @anon.53f16eec224c883228c428cfded7c828.1, align 8, !dbg !1454
  %2 = load i64, ptr getelementptr inbounds (i8, ptr @anon.53f16eec224c883228c428cfded7c828.1, i64 8), align 8, !dbg !1454
  %3 = getelementptr inbounds i8, ptr %_0, i64 32, !dbg !1454
  store ptr %1, ptr %3, align 8, !dbg !1454
  %4 = getelementptr inbounds i8, ptr %3, i64 8, !dbg !1454
  store i64 %2, ptr %4, align 8, !dbg !1454
  %5 = getelementptr inbounds i8, ptr %_0, i64 16, !dbg !1454
  store ptr inttoptr (i64 8 to ptr), ptr %5, align 8, !dbg !1454
  %6 = getelementptr inbounds i8, ptr %5, i64 8, !dbg !1454
  store i64 0, ptr %6, align 8, !dbg !1454
  ret void, !dbg !1455
}

; core::fmt::rt::Argument::new_display
; Function Attrs: inlinehint uwtable
define internal void @_ZN4core3fmt2rt8Argument11new_display17h4781ba8f10826044E(ptr sret([16 x i8]) align 8 %_0, ptr align 1 %x) unnamed_addr #0 !dbg !1456 {
start:
  %x.dbg.spill = alloca [8 x i8], align 8
  %_2 = alloca [16 x i8], align 8
  store ptr %x, ptr %x.dbg.spill, align 8
    #dbg_declare(ptr %x.dbg.spill, !1461, !DIExpression(), !1462)
    #dbg_declare(ptr %x.dbg.spill, !1463, !DIExpression(), !1469)
  store ptr %x, ptr %_2, align 8, !dbg !1471
  %0 = getelementptr inbounds i8, ptr %_2, i64 8, !dbg !1471
  store ptr @"_ZN4core3fmt3num3imp51_$LT$impl$u20$core..fmt..Display$u20$for$u20$u8$GT$3fmt17hb1aabca2de4b5ce9E", ptr %0, align 8, !dbg !1471
  call void @llvm.memcpy.p0.p0.i64(ptr align 8 %_0, ptr align 8 %_2, i64 16, i1 false), !dbg !1472
  ret void, !dbg !1473
}

; core::fmt::rt::Argument::new_display
; Function Attrs: inlinehint uwtable
define internal void @_ZN4core3fmt2rt8Argument11new_display17heb6896ef51ee6d65E(ptr sret([16 x i8]) align 8 %_0, ptr align 1 %x) unnamed_addr #0 !dbg !1474 {
start:
  %x.dbg.spill = alloca [8 x i8], align 8
  %_2 = alloca [16 x i8], align 8
  store ptr %x, ptr %x.dbg.spill, align 8
    #dbg_declare(ptr %x.dbg.spill, !1483, !DIExpression(), !1484)
    #dbg_declare(ptr %x.dbg.spill, !1485, !DIExpression(), !1495)
  store ptr %x, ptr %_2, align 8, !dbg !1497
  %0 = getelementptr inbounds i8, ptr %_2, i64 8, !dbg !1497
  store ptr @"_ZN4core3fmt3num3imp51_$LT$impl$u20$core..fmt..Display$u20$for$u20$i8$GT$3fmt17he80ef5407e4d37f5E", ptr %0, align 8, !dbg !1497
  call void @llvm.memcpy.p0.p0.i64(ptr align 8 %_0, ptr align 8 %_2, i64 16, i1 false), !dbg !1498
  ret void, !dbg !1499
}

; core::num::<impl i8>::from_ascii_radix
; Function Attrs: inlinehint uwtable
define internal { i1, i8 } @"_ZN4core3num20_$LT$impl$u20$i8$GT$16from_ascii_radix17hc8a102b5e6a6a1a0E"(ptr align 1 %src.0, i64 %src.1, i32 %radix) unnamed_addr #0 !dbg !1500 {
start:
  %x.dbg.spill53 = alloca [4 x i8], align 4
  %rest.dbg.spill51 = alloca [16 x i8], align 8
  %c.dbg.spill48 = alloca [8 x i8], align 8
  %value.dbg.spill46 = alloca [1 x i8], align 1
  %b.dbg.spill44 = alloca [1 x i8], align 1
  %a.dbg.spill43 = alloca [1 x i8], align 1
  %self.dbg.spill42 = alloca [1 x i8], align 1
  %value.dbg.spill40 = alloca [1 x i8], align 1
  %x.dbg.spill38 = alloca [1 x i8], align 1
  %value.dbg.spill36 = alloca [4 x i8], align 4
  %b.dbg.spill34 = alloca [1 x i8], align 1
  %a.dbg.spill33 = alloca [1 x i8], align 1
  %rhs.dbg.spill32 = alloca [1 x i8], align 1
  %self.dbg.spill30 = alloca [1 x i8], align 1
  %rest.dbg.spill28 = alloca [16 x i8], align 8
  %c.dbg.spill25 = alloca [8 x i8], align 8
  %x.dbg.spill23 = alloca [4 x i8], align 4
  %rest.dbg.spill21 = alloca [16 x i8], align 8
  %c.dbg.spill18 = alloca [8 x i8], align 8
  %value.dbg.spill16 = alloca [1 x i8], align 1
  %b.dbg.spill14 = alloca [1 x i8], align 1
  %a.dbg.spill13 = alloca [1 x i8], align 1
  %self.dbg.spill12 = alloca [1 x i8], align 1
  %value.dbg.spill10 = alloca [1 x i8], align 1
  %x.dbg.spill = alloca [1 x i8], align 1
  %value.dbg.spill = alloca [4 x i8], align 4
  %b.dbg.spill = alloca [1 x i8], align 1
  %a.dbg.spill = alloca [1 x i8], align 1
  %rhs.dbg.spill = alloca [1 x i8], align 1
  %self.dbg.spill = alloca [1 x i8], align 1
  %rest.dbg.spill8 = alloca [16 x i8], align 8
  %c.dbg.spill = alloca [8 x i8], align 8
  %rest.dbg.spill5 = alloca [8 x i8], align 8
  %rest.dbg.spill = alloca [16 x i8], align 8
  %is_signed_ty.dbg.spill4 = alloca [1 x i8], align 1
  %is_signed_ty.dbg.spill = alloca [1 x i8], align 1
  %radix.dbg.spill = alloca [4 x i8], align 4
  %src.dbg.spill = alloca [16 x i8], align 8
  %_102 = alloca [16 x i8], align 8
  %_101 = alloca [1 x i8], align 1
  %_84 = alloca [8 x i8], align 8
  %_83 = alloca [1 x i8], align 1
  %_77 = alloca [2 x i8], align 1
  %_70 = alloca [8 x i8], align 4
  %mul3 = alloca [2 x i8], align 1
  %_58 = alloca [2 x i8], align 1
  %_51 = alloca [8 x i8], align 4
  %mul = alloca [2 x i8], align 1
  %_36 = alloca [8 x i8], align 4
  %_23 = alloca [8 x i8], align 4
  %digits2 = alloca [16 x i8], align 8
  %radix1 = alloca [4 x i8], align 4
  %_14 = alloca [1 x i8], align 1
  %result = alloca [1 x i8], align 1
  %rest = alloca [16 x i8], align 8
  %digits = alloca [16 x i8], align 8
  %is_positive = alloca [1 x i8], align 1
  %_0 = alloca [2 x i8], align 1
  store ptr %src.0, ptr %src.dbg.spill, align 8
  %0 = getelementptr inbounds i8, ptr %src.dbg.spill, i64 8
  store i64 %src.1, ptr %0, align 8
    #dbg_declare(ptr %src.dbg.spill, !1528, !DIExpression(), !1594)
    #dbg_declare(ptr %src.dbg.spill, !1595, !DIExpression(), !1602)
  store i32 %radix, ptr %radix.dbg.spill, align 4
    #dbg_declare(ptr %radix.dbg.spill, !1529, !DIExpression(), !1604)
    #dbg_declare(ptr %is_positive, !1532, !DIExpression(), !1605)
    #dbg_declare(ptr %digits, !1534, !DIExpression(), !1606)
    #dbg_declare(ptr %rest, !1537, !DIExpression(), !1607)
    #dbg_declare(ptr %result, !1541, !DIExpression(), !1608)
    #dbg_declare(ptr %radix1, !1609, !DIExpression(), !1616)
    #dbg_declare(ptr %digits2, !1615, !DIExpression(), !1618)
    #dbg_declare(ptr %mul, !1560, !DIExpression(), !1619)
    #dbg_declare(ptr %mul3, !1584, !DIExpression(), !1620)
  store i8 1, ptr %is_signed_ty.dbg.spill, align 1, !dbg !1621
    #dbg_declare(ptr %is_signed_ty.dbg.spill, !1530, !DIExpression(), !1621)
  store i8 1, ptr %is_signed_ty.dbg.spill4, align 1, !dbg !1622
    #dbg_declare(ptr %is_signed_ty.dbg.spill4, !1614, !DIExpression(), !1622)
  %_3 = icmp ugt i32 2, %radix, !dbg !1623
  br i1 %_3, label %bb2, label %bb1, !dbg !1623

bb1:                                              ; preds = %start
  %_4 = icmp ugt i32 %radix, 36, !dbg !1624
  br i1 %_4, label %bb2, label %bb3, !dbg !1624

bb2:                                              ; preds = %bb1, %start
; call core::num::from_ascii_radix_panic
  call void @_ZN4core3num22from_ascii_radix_panic17h67d83f3ee26d46f0E(i32 %radix, ptr align 8 @alloc_f6d3000e77513d8cc04002e35a8a45a2) #15, !dbg !1625
  unreachable, !dbg !1625

bb3:                                              ; preds = %bb1
  %1 = icmp eq i64 %src.1, 0, !dbg !1626
  br i1 %1, label %bb4, label %bb5, !dbg !1626

bb4:                                              ; preds = %bb3
  store i8 1, ptr %_0, align 1, !dbg !1627
  %2 = getelementptr inbounds i8, ptr %_0, i64 1, !dbg !1627
  store i8 0, ptr %2, align 1, !dbg !1627
  br label %bb47, !dbg !1628

bb5:                                              ; preds = %bb3
  %3 = icmp eq i64 %src.1, 1, !dbg !1630
  br i1 %3, label %bb7, label %bb6, !dbg !1630

bb47:                                             ; preds = %bb46, %bb43, %bb12, %bb4
  %4 = load i8, ptr %_0, align 1, !dbg !1631
  %5 = trunc nuw i8 %4 to i1, !dbg !1631
  %6 = getelementptr inbounds i8, ptr %_0, i64 1, !dbg !1631
  %7 = load i8, ptr %6, align 1, !dbg !1631
  %8 = insertvalue { i1, i8 } poison, i1 %5, 0, !dbg !1631
  %9 = insertvalue { i1, i8 } %8, i8 %7, 1, !dbg !1631
  ret { i1, i8 } %9, !dbg !1631

bb7:                                              ; preds = %bb5
  %10 = getelementptr inbounds nuw i8, ptr %src.0, i64 0, !dbg !1632
  %11 = load i8, ptr %10, align 1, !dbg !1632
  switch i8 %11, label %bb6 [
    i8 43, label %bb12
    i8 45, label %bb12
  ], !dbg !1632

bb6:                                              ; preds = %bb7, %bb5
  %_9 = icmp uge i64 %src.1, 1, !dbg !1633
  br i1 %_9, label %bb9, label %bb8, !dbg !1633

bb12:                                             ; preds = %bb7, %bb7
  store i8 1, ptr %_0, align 1, !dbg !1634
  %12 = getelementptr inbounds i8, ptr %_0, i64 1, !dbg !1634
  store i8 1, ptr %12, align 1, !dbg !1634
  br label %bb47, !dbg !1635

bb8:                                              ; preds = %bb9, %bb6
  store i8 1, ptr %_101, align 1, !dbg !1637
  store ptr %src.0, ptr %_102, align 8, !dbg !1637
  %13 = getelementptr inbounds i8, ptr %_102, i64 8, !dbg !1637
  store i64 %src.1, ptr %13, align 8, !dbg !1637
  %14 = load i8, ptr %_101, align 1, !dbg !1638
  %15 = trunc nuw i8 %14 to i1, !dbg !1638
  %16 = zext i1 %15 to i8, !dbg !1638
  store i8 %16, ptr %is_positive, align 1, !dbg !1638
  %17 = load ptr, ptr %_102, align 8, !dbg !1639
  %18 = getelementptr inbounds i8, ptr %_102, i64 8, !dbg !1639
  %19 = load i64, ptr %18, align 8, !dbg !1639
  store ptr %17, ptr %digits, align 8, !dbg !1639
  %20 = getelementptr inbounds i8, ptr %digits, i64 8, !dbg !1639
  store i64 %19, ptr %20, align 8, !dbg !1639
  store i8 0, ptr %result, align 1, !dbg !1640
  store i32 %radix, ptr %radix1, align 4, !dbg !1641
  %21 = load ptr, ptr %digits, align 8, !dbg !1642
  %22 = getelementptr inbounds i8, ptr %digits, i64 8, !dbg !1642
  %23 = load i64, ptr %22, align 8, !dbg !1642
  store ptr %21, ptr %digits2, align 8, !dbg !1642
  %24 = getelementptr inbounds i8, ptr %digits2, i64 8, !dbg !1642
  store i64 %23, ptr %24, align 8, !dbg !1642
  %25 = icmp ule i32 %radix, 16, !dbg !1643
  %26 = zext i1 %25 to i8, !dbg !1643
  store i8 %26, ptr %_83, align 1, !dbg !1643
  %27 = load i8, ptr %_83, align 1, !dbg !1643
  %28 = trunc nuw i8 %27 to i1, !dbg !1643
  br i1 %28, label %bb66, label %bb70, !dbg !1643

bb9:                                              ; preds = %bb6
  %29 = getelementptr inbounds nuw i8, ptr %src.0, i64 0, !dbg !1632
  %30 = load i8, ptr %29, align 1, !dbg !1632
  switch i8 %30, label %bb8 [
    i8 43, label %bb11
    i8 45, label %bb10
  ], !dbg !1632

bb11:                                             ; preds = %bb9
  %rest.0 = getelementptr inbounds nuw i8, ptr %src.0, i64 1, !dbg !1644
  %rest.1 = sub i64 %src.1, 1, !dbg !1644
  store ptr %rest.0, ptr %rest.dbg.spill, align 8, !dbg !1644
  %31 = getelementptr inbounds i8, ptr %rest.dbg.spill, i64 8, !dbg !1644
  store i64 %rest.1, ptr %31, align 8, !dbg !1644
    #dbg_declare(ptr %rest.dbg.spill, !1535, !DIExpression(), !1645)
  store i8 1, ptr %_101, align 1, !dbg !1646
  store ptr %rest.0, ptr %_102, align 8, !dbg !1646
  %32 = getelementptr inbounds i8, ptr %_102, i64 8, !dbg !1646
  store i64 %rest.1, ptr %32, align 8, !dbg !1646
  %33 = load i8, ptr %_101, align 1, !dbg !1638
  %34 = trunc nuw i8 %33 to i1, !dbg !1638
  %35 = zext i1 %34 to i8, !dbg !1638
  store i8 %35, ptr %is_positive, align 1, !dbg !1638
  %36 = load ptr, ptr %_102, align 8, !dbg !1639
  %37 = getelementptr inbounds i8, ptr %_102, i64 8, !dbg !1639
  %38 = load i64, ptr %37, align 8, !dbg !1639
  store ptr %36, ptr %digits, align 8, !dbg !1639
  %39 = getelementptr inbounds i8, ptr %digits, i64 8, !dbg !1639
  store i64 %38, ptr %39, align 8, !dbg !1639
  store i8 0, ptr %result, align 1, !dbg !1640
  store i32 %radix, ptr %radix1, align 4, !dbg !1641
  %40 = load ptr, ptr %digits, align 8, !dbg !1642
  %41 = getelementptr inbounds i8, ptr %digits, i64 8, !dbg !1642
  %42 = load i64, ptr %41, align 8, !dbg !1642
  store ptr %40, ptr %digits2, align 8, !dbg !1642
  %43 = getelementptr inbounds i8, ptr %digits2, i64 8, !dbg !1642
  store i64 %42, ptr %43, align 8, !dbg !1642
  %44 = icmp ule i32 %radix, 16, !dbg !1643
  %45 = zext i1 %44 to i8, !dbg !1643
  store i8 %45, ptr %_83, align 1, !dbg !1643
  %46 = load i8, ptr %_83, align 1, !dbg !1643
  %47 = trunc nuw i8 %46 to i1, !dbg !1643
  br i1 %47, label %bb68, label %bb71, !dbg !1643

bb10:                                             ; preds = %bb9
  %48 = getelementptr inbounds nuw i8, ptr %src.0, i64 1, !dbg !1647
  %49 = sub i64 %src.1, 1, !dbg !1647
  store ptr %48, ptr %rest, align 8, !dbg !1647
  %50 = getelementptr inbounds i8, ptr %rest, i64 8, !dbg !1647
  store i64 %49, ptr %50, align 8, !dbg !1647
  store ptr %rest, ptr %rest.dbg.spill5, align 8, !dbg !1647
    #dbg_declare(ptr %rest.dbg.spill5, !1539, !DIExpression(), !1607)
  store i8 0, ptr %_101, align 1, !dbg !1648
  %51 = load ptr, ptr %rest, align 8, !dbg !1648
  %52 = getelementptr inbounds i8, ptr %rest, i64 8, !dbg !1648
  %53 = load i64, ptr %52, align 8, !dbg !1648
  store ptr %51, ptr %_102, align 8, !dbg !1648
  %54 = getelementptr inbounds i8, ptr %_102, i64 8, !dbg !1648
  store i64 %53, ptr %54, align 8, !dbg !1648
  %55 = load i8, ptr %_101, align 1, !dbg !1638
  %56 = trunc nuw i8 %55 to i1, !dbg !1638
  %57 = zext i1 %56 to i8, !dbg !1638
  store i8 %57, ptr %is_positive, align 1, !dbg !1638
  %58 = load ptr, ptr %_102, align 8, !dbg !1639
  %59 = getelementptr inbounds i8, ptr %_102, i64 8, !dbg !1639
  %60 = load i64, ptr %59, align 8, !dbg !1639
  store ptr %58, ptr %digits, align 8, !dbg !1639
  %61 = getelementptr inbounds i8, ptr %digits, i64 8, !dbg !1639
  store i64 %60, ptr %61, align 8, !dbg !1639
  store i8 0, ptr %result, align 1, !dbg !1640
  store i32 %radix, ptr %radix1, align 4, !dbg !1641
  %62 = load ptr, ptr %digits, align 8, !dbg !1642
  %63 = getelementptr inbounds i8, ptr %digits, i64 8, !dbg !1642
  %64 = load i64, ptr %63, align 8, !dbg !1642
  store ptr %62, ptr %digits2, align 8, !dbg !1642
  %65 = getelementptr inbounds i8, ptr %digits2, i64 8, !dbg !1642
  store i64 %64, ptr %65, align 8, !dbg !1642
  %66 = icmp ule i32 %radix, 16, !dbg !1643
  %67 = zext i1 %66 to i8, !dbg !1643
  store i8 %67, ptr %_83, align 1, !dbg !1643
  %68 = load i8, ptr %_83, align 1, !dbg !1643
  %69 = trunc nuw i8 %68 to i1, !dbg !1643
  br i1 %69, label %bb48, label %bb49, !dbg !1643

bb71:                                             ; preds = %bb11
  br label %bb25.preheader, !dbg !1649

bb68:                                             ; preds = %bb11
  %70 = load ptr, ptr %digits2, align 8, !dbg !1650
  %71 = getelementptr inbounds i8, ptr %digits2, i64 8, !dbg !1650
  %72 = load i64, ptr %71, align 8, !dbg !1650
  store i64 %72, ptr %_84, align 8, !dbg !1650
  %73 = load i64, ptr %_84, align 8, !dbg !1650
  %74 = icmp ule i64 %73, 1, !dbg !1650
  %75 = zext i1 %74 to i8, !dbg !1650
  store i8 %75, ptr %_14, align 1, !dbg !1650
  %76 = load i8, ptr %_14, align 1, !dbg !1617
  %77 = trunc nuw i8 %76 to i1, !dbg !1617
  br i1 %77, label %bb69, label %bb73, !dbg !1617

bb25:                                             ; preds = %bb25.preheader, %bb33
  %78 = load ptr, ptr %digits, align 8, !dbg !1651
  %79 = getelementptr inbounds i8, ptr %digits, i64 8, !dbg !1651
  %_43 = load i64, ptr %79, align 8, !dbg !1651
  %_44 = icmp uge i64 %_43, 1, !dbg !1651
  br i1 %_44, label %bb26, label %bb43.loopexit54, !dbg !1651

bb73:                                             ; preds = %bb68
  br label %bb25.preheader, !dbg !1649

bb69:                                             ; preds = %bb68
  br label %bb14.preheader, !dbg !1652

bb14.preheader:                                   ; preds = %bb69, %bb67
  br label %bb14, !dbg !1653

bb14:                                             ; preds = %bb14.preheader, %bb19
  %80 = load ptr, ptr %digits, align 8, !dbg !1653
  %81 = getelementptr inbounds i8, ptr %digits, i64 8, !dbg !1653
  %_17 = load i64, ptr %81, align 8, !dbg !1653
  %_18 = icmp uge i64 %_17, 1, !dbg !1653
  br i1 %_18, label %bb15, label %bb43.loopexit, !dbg !1653

bb49:                                             ; preds = %bb10
  br label %bb34.preheader, !dbg !1649

bb48:                                             ; preds = %bb10
  %82 = load ptr, ptr %digits2, align 8, !dbg !1650
  %83 = getelementptr inbounds i8, ptr %digits2, i64 8, !dbg !1650
  %84 = load i64, ptr %83, align 8, !dbg !1650
  store i64 %84, ptr %_84, align 8, !dbg !1650
  %85 = load i64, ptr %_84, align 8, !dbg !1650
  %86 = icmp ule i64 %85, 1, !dbg !1650
  %87 = zext i1 %86 to i8, !dbg !1650
  store i8 %87, ptr %_14, align 1, !dbg !1650
  %88 = load i8, ptr %_14, align 1, !dbg !1617
  %89 = trunc nuw i8 %88 to i1, !dbg !1617
  br i1 %89, label %bb13, label %bb74, !dbg !1617

bb34:                                             ; preds = %bb34.preheader, %bb42
  %90 = load ptr, ptr %digits, align 8, !dbg !1654
  %91 = getelementptr inbounds i8, ptr %digits, i64 8, !dbg !1654
  %_62 = load i64, ptr %91, align 8, !dbg !1654
  %_63 = icmp uge i64 %_62, 1, !dbg !1654
  br i1 %_63, label %bb35, label %bb43.loopexit56, !dbg !1654

bb74:                                             ; preds = %bb48
  br label %bb34.preheader, !dbg !1649

bb34.preheader:                                   ; preds = %bb49, %bb74
  br label %bb34, !dbg !1654

bb13:                                             ; preds = %bb48
  br label %bb20, !dbg !1652

bb43.loopexit:                                    ; preds = %bb14
  br label %bb43, !dbg !1655

bb43.loopexit54:                                  ; preds = %bb25
  br label %bb43, !dbg !1655

bb43.loopexit55:                                  ; preds = %bb20
  br label %bb43, !dbg !1655

bb43.loopexit56:                                  ; preds = %bb34
  br label %bb43, !dbg !1655

bb43:                                             ; preds = %bb43.loopexit56, %bb43.loopexit55, %bb43.loopexit54, %bb43.loopexit
  %_81 = load i8, ptr %result, align 1, !dbg !1655
  %92 = getelementptr inbounds i8, ptr %_0, i64 1, !dbg !1656
  store i8 %_81, ptr %92, align 1, !dbg !1656
  store i8 0, ptr %_0, align 1, !dbg !1656
  br label %bb47, !dbg !1631

bb35:                                             ; preds = %bb34
  %93 = load ptr, ptr %digits, align 8, !dbg !1657
  %94 = getelementptr inbounds i8, ptr %digits, i64 8, !dbg !1657
  %95 = load i64, ptr %94, align 8, !dbg !1657
  %c = getelementptr inbounds nuw i8, ptr %93, i64 0, !dbg !1657
  store ptr %c, ptr %c.dbg.spill, align 8, !dbg !1657
    #dbg_declare(ptr %c.dbg.spill, !1581, !DIExpression(), !1657)
  %96 = load ptr, ptr %digits, align 8, !dbg !1658
  %97 = getelementptr inbounds i8, ptr %digits, i64 8, !dbg !1658
  %98 = load i64, ptr %97, align 8, !dbg !1658
  %rest.06 = getelementptr inbounds nuw i8, ptr %96, i64 1, !dbg !1658
  %rest.17 = sub i64 %98, 1, !dbg !1658
  store ptr %rest.06, ptr %rest.dbg.spill8, align 8, !dbg !1658
  %99 = getelementptr inbounds i8, ptr %rest.dbg.spill8, i64 8, !dbg !1658
  store i64 %rest.17, ptr %99, align 8, !dbg !1658
    #dbg_declare(ptr %rest.dbg.spill8, !1583, !DIExpression(), !1658)
  %self = load i8, ptr %result, align 1, !dbg !1659
  store i8 %self, ptr %self.dbg.spill, align 1, !dbg !1659
    #dbg_declare(ptr %self.dbg.spill, !1660, !DIExpression(), !1673)
    #dbg_declare(ptr %self.dbg.spill, !1676, !DIExpression(), !1686)
  %rhs = trunc i32 %radix to i8, !dbg !1689
  store i8 %rhs, ptr %rhs.dbg.spill, align 1, !dbg !1689
    #dbg_declare(ptr %rhs.dbg.spill, !1666, !DIExpression(), !1690)
    #dbg_declare(ptr %rhs.dbg.spill, !1685, !DIExpression(), !1691)
  %100 = call { i8, i1 } @llvm.smul.with.overflow.i8(i8 %self, i8 %rhs), !dbg !1692
  %_95.0 = extractvalue { i8, i1 } %100, 0, !dbg !1692
  %_95.1 = extractvalue { i8, i1 } %100, 1, !dbg !1692
  store i8 %_95.0, ptr %a.dbg.spill, align 1, !dbg !1693
    #dbg_declare(ptr %a.dbg.spill, !1670, !DIExpression(), !1694)
  %101 = zext i1 %_95.1 to i8, !dbg !1695
  store i8 %101, ptr %b.dbg.spill, align 1, !dbg !1695
    #dbg_declare(ptr %b.dbg.spill, !1672, !DIExpression(), !1696)
    #dbg_declare(ptr %b.dbg.spill, !1697, !DIExpression(), !1702)
  br i1 %_95.1, label %bb59, label %bb61, !dbg !1705

bb61:                                             ; preds = %bb35
  %102 = getelementptr inbounds i8, ptr %mul3, i64 1, !dbg !1706
  store i8 %_95.0, ptr %102, align 1, !dbg !1706
  store i8 1, ptr %mul3, align 1, !dbg !1706
  br label %bb58, !dbg !1707

bb59:                                             ; preds = %bb35
  %103 = load i8, ptr @anon.53f16eec224c883228c428cfded7c828.2, align 1, !dbg !1708
  %104 = trunc nuw i8 %103 to i1, !dbg !1708
  %105 = load i8, ptr getelementptr inbounds (i8, ptr @anon.53f16eec224c883228c428cfded7c828.2, i64 1), align 1, !dbg !1708
  %106 = zext i1 %104 to i8, !dbg !1708
  store i8 %106, ptr %mul3, align 1, !dbg !1708
  %107 = getelementptr inbounds i8, ptr %mul3, i64 1, !dbg !1708
  store i8 %105, ptr %107, align 1, !dbg !1708
  br label %bb58, !dbg !1707

bb58:                                             ; preds = %bb59, %bb61
  %_72 = load i8, ptr %c, align 1, !dbg !1709
  %_71 = zext i8 %_72 to i32, !dbg !1710
; call core::char::methods::<impl char>::to_digit
  %108 = call { i32, i32 } @"_ZN4core4char7methods22_$LT$impl$u20$char$GT$8to_digit17h35aa0528be96dcd9E"(i32 %_71, i32 %radix), !dbg !1711
  %109 = extractvalue { i32, i32 } %108, 0, !dbg !1711
  %110 = extractvalue { i32, i32 } %108, 1, !dbg !1711
  store i32 %109, ptr %_70, align 4, !dbg !1711
  %111 = getelementptr inbounds i8, ptr %_70, i64 4, !dbg !1711
  store i32 %110, ptr %111, align 4, !dbg !1711
  %112 = load i32, ptr %_70, align 4, !dbg !1710
  %113 = getelementptr inbounds i8, ptr %_70, i64 4, !dbg !1710
  %114 = load i32, ptr %113, align 4, !dbg !1710
  %_73 = zext i32 %112 to i64, !dbg !1710
  %115 = trunc nuw i64 %_73 to i1, !dbg !1712
  br i1 %115, label %bb38, label %bb37, !dbg !1712

bb38:                                             ; preds = %bb58
  %116 = getelementptr inbounds i8, ptr %_70, i64 4, !dbg !1713
  %value = load i32, ptr %116, align 4, !dbg !1713
  store i32 %value, ptr %value.dbg.spill, align 4, !dbg !1713
    #dbg_declare(ptr %value.dbg.spill, !1588, !DIExpression(), !1714)
  %x = trunc i32 %value to i8, !dbg !1715
  store i8 %x, ptr %x.dbg.spill, align 1, !dbg !1715
    #dbg_declare(ptr %x.dbg.spill, !1586, !DIExpression(), !1716)
    #dbg_declare(ptr %x.dbg.spill, !1717, !DIExpression(), !1724)
    #dbg_declare(ptr %x.dbg.spill, !1727, !DIExpression(), !1731)
  %117 = load i8, ptr %mul3, align 1, !dbg !1733
  %118 = trunc nuw i8 %117 to i1, !dbg !1733
  %119 = getelementptr inbounds i8, ptr %mul3, i64 1, !dbg !1733
  %120 = load i8, ptr %119, align 1, !dbg !1733
  %_75 = zext i1 %118 to i64, !dbg !1733
  %121 = trunc nuw i64 %_75 to i1, !dbg !1734
  br i1 %121, label %bb40, label %bb39, !dbg !1734

bb37:                                             ; preds = %bb58
  store i8 1, ptr %_0, align 1, !dbg !1735
  %122 = getelementptr inbounds i8, ptr %_0, i64 1, !dbg !1735
  store i8 1, ptr %122, align 1, !dbg !1735
  br label %bb44, !dbg !1736

bb44:                                             ; preds = %bb41, %bb39, %bb37
  br label %bb46, !dbg !1738

bb40:                                             ; preds = %bb38
  %123 = getelementptr inbounds i8, ptr %mul3, i64 1, !dbg !1740
  %value9 = load i8, ptr %123, align 1, !dbg !1740
  store i8 %value9, ptr %value.dbg.spill10, align 1, !dbg !1740
    #dbg_declare(ptr %value.dbg.spill10, !1590, !DIExpression(), !1741)
  store i8 %value9, ptr %result, align 1, !dbg !1742
  %self11 = load i8, ptr %result, align 1, !dbg !1743
  store i8 %self11, ptr %self.dbg.spill12, align 1, !dbg !1743
    #dbg_declare(ptr %self.dbg.spill12, !1720, !DIExpression(), !1744)
    #dbg_declare(ptr %self.dbg.spill12, !1730, !DIExpression(), !1745)
  %124 = call { i8, i1 } @llvm.ssub.with.overflow.i8(i8 %self11, i8 %x), !dbg !1746
  %_99.0 = extractvalue { i8, i1 } %124, 0, !dbg !1746
  %_99.1 = extractvalue { i8, i1 } %124, 1, !dbg !1746
  store i8 %_99.0, ptr %a.dbg.spill13, align 1, !dbg !1747
    #dbg_declare(ptr %a.dbg.spill13, !1721, !DIExpression(), !1748)
  %125 = zext i1 %_99.1 to i8, !dbg !1749
  store i8 %125, ptr %b.dbg.spill14, align 1, !dbg !1749
    #dbg_declare(ptr %b.dbg.spill14, !1723, !DIExpression(), !1750)
    #dbg_declare(ptr %b.dbg.spill14, !1697, !DIExpression(), !1751)
  br i1 %_99.1, label %bb63, label %bb65, !dbg !1753

bb39:                                             ; preds = %bb38
  store i8 1, ptr %_0, align 1, !dbg !1754
  %126 = getelementptr inbounds i8, ptr %_0, i64 1, !dbg !1754
  store i8 3, ptr %126, align 1, !dbg !1754
  br label %bb44, !dbg !1755

bb65:                                             ; preds = %bb40
  %127 = getelementptr inbounds i8, ptr %_77, i64 1, !dbg !1757
  store i8 %_99.0, ptr %127, align 1, !dbg !1757
  store i8 1, ptr %_77, align 1, !dbg !1757
  br label %bb62, !dbg !1758

bb63:                                             ; preds = %bb40
  %128 = load i8, ptr @anon.53f16eec224c883228c428cfded7c828.2, align 1, !dbg !1759
  %129 = trunc nuw i8 %128 to i1, !dbg !1759
  %130 = load i8, ptr getelementptr inbounds (i8, ptr @anon.53f16eec224c883228c428cfded7c828.2, i64 1), align 1, !dbg !1759
  %131 = zext i1 %129 to i8, !dbg !1759
  store i8 %131, ptr %_77, align 1, !dbg !1759
  %132 = getelementptr inbounds i8, ptr %_77, i64 1, !dbg !1759
  store i8 %130, ptr %132, align 1, !dbg !1759
  br label %bb62, !dbg !1758

bb62:                                             ; preds = %bb63, %bb65
  %133 = load i8, ptr %_77, align 1, !dbg !1760
  %134 = trunc nuw i8 %133 to i1, !dbg !1760
  %135 = getelementptr inbounds i8, ptr %_77, i64 1, !dbg !1760
  %136 = load i8, ptr %135, align 1, !dbg !1760
  %_79 = zext i1 %134 to i64, !dbg !1760
  %137 = trunc nuw i64 %_79 to i1, !dbg !1734
  br i1 %137, label %bb42, label %bb41, !dbg !1734

bb42:                                             ; preds = %bb62
  %138 = getelementptr inbounds i8, ptr %_77, i64 1, !dbg !1740
  %value15 = load i8, ptr %138, align 1, !dbg !1740
  store i8 %value15, ptr %value.dbg.spill16, align 1, !dbg !1740
    #dbg_declare(ptr %value.dbg.spill16, !1592, !DIExpression(), !1761)
  store i8 %value15, ptr %result, align 1, !dbg !1762
  store ptr %rest.06, ptr %digits, align 8, !dbg !1763
  %139 = getelementptr inbounds i8, ptr %digits, i64 8, !dbg !1763
  store i64 %rest.17, ptr %139, align 8, !dbg !1763
  br label %bb34, !dbg !1764

bb41:                                             ; preds = %bb62
  store i8 1, ptr %_0, align 1, !dbg !1754
  %140 = getelementptr inbounds i8, ptr %_0, i64 1, !dbg !1754
  store i8 3, ptr %140, align 1, !dbg !1754
  br label %bb44, !dbg !1755

bb46:                                             ; preds = %bb18, %bb45, %bb23, %bb44
  br label %bb47, !dbg !1635

bb20:                                             ; preds = %bb24, %bb13
  %141 = load ptr, ptr %digits, align 8, !dbg !1765
  %142 = getelementptr inbounds i8, ptr %digits, i64 8, !dbg !1765
  %_30 = load i64, ptr %142, align 8, !dbg !1765
  %_31 = icmp uge i64 %_30, 1, !dbg !1765
  br i1 %_31, label %bb21, label %bb43.loopexit55, !dbg !1765

bb21:                                             ; preds = %bb20
  %143 = load ptr, ptr %digits, align 8, !dbg !1766
  %144 = getelementptr inbounds i8, ptr %digits, i64 8, !dbg !1766
  %145 = load i64, ptr %144, align 8, !dbg !1766
  %c17 = getelementptr inbounds nuw i8, ptr %143, i64 0, !dbg !1766
  store ptr %c17, ptr %c.dbg.spill18, align 8, !dbg !1766
    #dbg_declare(ptr %c.dbg.spill18, !1550, !DIExpression(), !1766)
  %146 = load ptr, ptr %digits, align 8, !dbg !1767
  %147 = getelementptr inbounds i8, ptr %digits, i64 8, !dbg !1767
  %148 = load i64, ptr %147, align 8, !dbg !1767
  %rest.019 = getelementptr inbounds nuw i8, ptr %146, i64 1, !dbg !1767
  %rest.120 = sub i64 %148, 1, !dbg !1767
  store ptr %rest.019, ptr %rest.dbg.spill21, align 8, !dbg !1767
  %149 = getelementptr inbounds i8, ptr %rest.dbg.spill21, i64 8, !dbg !1767
  store i64 %rest.120, ptr %149, align 8, !dbg !1767
    #dbg_declare(ptr %rest.dbg.spill21, !1552, !DIExpression(), !1767)
  %_34 = load i8, ptr %result, align 1, !dbg !1768
  %_35 = trunc i32 %radix to i8, !dbg !1769
  %150 = mul i8 %_34, %_35, !dbg !1770
  store i8 %150, ptr %result, align 1, !dbg !1770
  %_38 = load i8, ptr %c17, align 1, !dbg !1771
  %_37 = zext i8 %_38 to i32, !dbg !1772
; call core::char::methods::<impl char>::to_digit
  %151 = call { i32, i32 } @"_ZN4core4char7methods22_$LT$impl$u20$char$GT$8to_digit17h35aa0528be96dcd9E"(i32 %_37, i32 %radix), !dbg !1773
  %152 = extractvalue { i32, i32 } %151, 0, !dbg !1773
  %153 = extractvalue { i32, i32 } %151, 1, !dbg !1773
  store i32 %152, ptr %_36, align 4, !dbg !1773
  %154 = getelementptr inbounds i8, ptr %_36, i64 4, !dbg !1773
  store i32 %153, ptr %154, align 4, !dbg !1773
  %155 = load i32, ptr %_36, align 4, !dbg !1772
  %156 = getelementptr inbounds i8, ptr %_36, i64 4, !dbg !1772
  %157 = load i32, ptr %156, align 4, !dbg !1772
  %_39 = zext i32 %155 to i64, !dbg !1772
  %158 = trunc nuw i64 %_39 to i1, !dbg !1774
  br i1 %158, label %bb24, label %bb23, !dbg !1774

bb24:                                             ; preds = %bb21
  %159 = getelementptr inbounds i8, ptr %_36, i64 4, !dbg !1775
  %x22 = load i32, ptr %159, align 4, !dbg !1775
  store i32 %x22, ptr %x.dbg.spill23, align 4, !dbg !1775
    #dbg_declare(ptr %x.dbg.spill23, !1553, !DIExpression(), !1776)
    #dbg_declare(ptr %x.dbg.spill23, !1555, !DIExpression(), !1777)
  %_41 = load i8, ptr %result, align 1, !dbg !1778
  %_42 = trunc i32 %x22 to i8, !dbg !1779
  %160 = sub i8 %_41, %_42, !dbg !1780
  store i8 %160, ptr %result, align 1, !dbg !1780
  store ptr %rest.019, ptr %digits, align 8, !dbg !1781
  %161 = getelementptr inbounds i8, ptr %digits, i64 8, !dbg !1781
  store i64 %rest.120, ptr %161, align 8, !dbg !1781
  br label %bb20, !dbg !1782

bb23:                                             ; preds = %bb21
  store i8 1, ptr %_0, align 1, !dbg !1783
  %162 = getelementptr inbounds i8, ptr %_0, i64 1, !dbg !1783
  store i8 1, ptr %162, align 1, !dbg !1783
  br label %bb46, !dbg !1738

bb70:                                             ; preds = %bb8
  br label %bb25.preheader, !dbg !1649

bb66:                                             ; preds = %bb8
  %163 = load ptr, ptr %digits2, align 8, !dbg !1650
  %164 = getelementptr inbounds i8, ptr %digits2, i64 8, !dbg !1650
  %165 = load i64, ptr %164, align 8, !dbg !1650
  store i64 %165, ptr %_84, align 8, !dbg !1650
  %166 = load i64, ptr %_84, align 8, !dbg !1650
  %167 = icmp ule i64 %166, 1, !dbg !1650
  %168 = zext i1 %167 to i8, !dbg !1650
  store i8 %168, ptr %_14, align 1, !dbg !1650
  %169 = load i8, ptr %_14, align 1, !dbg !1617
  %170 = trunc nuw i8 %169 to i1, !dbg !1617
  br i1 %170, label %bb67, label %bb72, !dbg !1617

bb72:                                             ; preds = %bb66
  br label %bb25.preheader, !dbg !1649

bb25.preheader:                                   ; preds = %bb71, %bb73, %bb70, %bb72
  br label %bb25, !dbg !1651

bb67:                                             ; preds = %bb66
  br label %bb14.preheader, !dbg !1652

bb26:                                             ; preds = %bb25
  %171 = load ptr, ptr %digits, align 8, !dbg !1784
  %172 = getelementptr inbounds i8, ptr %digits, i64 8, !dbg !1784
  %173 = load i64, ptr %172, align 8, !dbg !1784
  %c24 = getelementptr inbounds nuw i8, ptr %171, i64 0, !dbg !1784
  store ptr %c24, ptr %c.dbg.spill25, align 8, !dbg !1784
    #dbg_declare(ptr %c.dbg.spill25, !1557, !DIExpression(), !1784)
  %174 = load ptr, ptr %digits, align 8, !dbg !1785
  %175 = getelementptr inbounds i8, ptr %digits, i64 8, !dbg !1785
  %176 = load i64, ptr %175, align 8, !dbg !1785
  %rest.026 = getelementptr inbounds nuw i8, ptr %174, i64 1, !dbg !1785
  %rest.127 = sub i64 %176, 1, !dbg !1785
  store ptr %rest.026, ptr %rest.dbg.spill28, align 8, !dbg !1785
  %177 = getelementptr inbounds i8, ptr %rest.dbg.spill28, i64 8, !dbg !1785
  store i64 %rest.127, ptr %177, align 8, !dbg !1785
    #dbg_declare(ptr %rest.dbg.spill28, !1559, !DIExpression(), !1785)
  %self29 = load i8, ptr %result, align 1, !dbg !1786
  store i8 %self29, ptr %self.dbg.spill30, align 1, !dbg !1786
    #dbg_declare(ptr %self.dbg.spill30, !1660, !DIExpression(), !1787)
    #dbg_declare(ptr %self.dbg.spill30, !1676, !DIExpression(), !1789)
  %rhs31 = trunc i32 %radix to i8, !dbg !1791
  store i8 %rhs31, ptr %rhs.dbg.spill32, align 1, !dbg !1791
    #dbg_declare(ptr %rhs.dbg.spill32, !1666, !DIExpression(), !1792)
    #dbg_declare(ptr %rhs.dbg.spill32, !1685, !DIExpression(), !1793)
  %178 = call { i8, i1 } @llvm.smul.with.overflow.i8(i8 %self29, i8 %rhs31), !dbg !1794
  %_87.0 = extractvalue { i8, i1 } %178, 0, !dbg !1794
  %_87.1 = extractvalue { i8, i1 } %178, 1, !dbg !1794
  store i8 %_87.0, ptr %a.dbg.spill33, align 1, !dbg !1795
    #dbg_declare(ptr %a.dbg.spill33, !1667, !DIExpression(), !1796)
  %179 = zext i1 %_87.1 to i8, !dbg !1797
  store i8 %179, ptr %b.dbg.spill34, align 1, !dbg !1797
    #dbg_declare(ptr %b.dbg.spill34, !1669, !DIExpression(), !1798)
    #dbg_declare(ptr %b.dbg.spill34, !1697, !DIExpression(), !1799)
  br i1 %_87.1, label %bb51, label %bb53, !dbg !1801

bb53:                                             ; preds = %bb26
  %180 = getelementptr inbounds i8, ptr %mul, i64 1, !dbg !1802
  store i8 %_87.0, ptr %180, align 1, !dbg !1802
  store i8 1, ptr %mul, align 1, !dbg !1802
  br label %bb50, !dbg !1803

bb51:                                             ; preds = %bb26
  %181 = load i8, ptr @anon.53f16eec224c883228c428cfded7c828.2, align 1, !dbg !1804
  %182 = trunc nuw i8 %181 to i1, !dbg !1804
  %183 = load i8, ptr getelementptr inbounds (i8, ptr @anon.53f16eec224c883228c428cfded7c828.2, i64 1), align 1, !dbg !1804
  %184 = zext i1 %182 to i8, !dbg !1804
  store i8 %184, ptr %mul, align 1, !dbg !1804
  %185 = getelementptr inbounds i8, ptr %mul, i64 1, !dbg !1804
  store i8 %183, ptr %185, align 1, !dbg !1804
  br label %bb50, !dbg !1803

bb50:                                             ; preds = %bb51, %bb53
  %_53 = load i8, ptr %c24, align 1, !dbg !1805
  %_52 = zext i8 %_53 to i32, !dbg !1806
; call core::char::methods::<impl char>::to_digit
  %186 = call { i32, i32 } @"_ZN4core4char7methods22_$LT$impl$u20$char$GT$8to_digit17h35aa0528be96dcd9E"(i32 %_52, i32 %radix), !dbg !1807
  %187 = extractvalue { i32, i32 } %186, 0, !dbg !1807
  %188 = extractvalue { i32, i32 } %186, 1, !dbg !1807
  store i32 %187, ptr %_51, align 4, !dbg !1807
  %189 = getelementptr inbounds i8, ptr %_51, i64 4, !dbg !1807
  store i32 %188, ptr %189, align 4, !dbg !1807
  %190 = load i32, ptr %_51, align 4, !dbg !1806
  %191 = getelementptr inbounds i8, ptr %_51, i64 4, !dbg !1806
  %192 = load i32, ptr %191, align 4, !dbg !1806
  %_54 = zext i32 %190 to i64, !dbg !1806
  %193 = trunc nuw i64 %_54 to i1, !dbg !1808
  br i1 %193, label %bb29, label %bb28, !dbg !1808

bb29:                                             ; preds = %bb50
  %194 = getelementptr inbounds i8, ptr %_51, i64 4, !dbg !1809
  %value35 = load i32, ptr %194, align 4, !dbg !1809
  store i32 %value35, ptr %value.dbg.spill36, align 4, !dbg !1809
    #dbg_declare(ptr %value.dbg.spill36, !1575, !DIExpression(), !1810)
  %x37 = trunc i32 %value35 to i8, !dbg !1811
  store i8 %x37, ptr %x.dbg.spill38, align 1, !dbg !1811
    #dbg_declare(ptr %x.dbg.spill38, !1573, !DIExpression(), !1812)
    #dbg_declare(ptr %x.dbg.spill38, !1813, !DIExpression(), !1820)
    #dbg_declare(ptr %x.dbg.spill38, !1822, !DIExpression(), !1826)
  %195 = load i8, ptr %mul, align 1, !dbg !1828
  %196 = trunc nuw i8 %195 to i1, !dbg !1828
  %197 = getelementptr inbounds i8, ptr %mul, i64 1, !dbg !1828
  %198 = load i8, ptr %197, align 1, !dbg !1828
  %_56 = zext i1 %196 to i64, !dbg !1828
  %199 = trunc nuw i64 %_56 to i1, !dbg !1829
  br i1 %199, label %bb31, label %bb30, !dbg !1829

bb28:                                             ; preds = %bb50
  store i8 1, ptr %_0, align 1, !dbg !1830
  %200 = getelementptr inbounds i8, ptr %_0, i64 1, !dbg !1830
  store i8 1, ptr %200, align 1, !dbg !1830
  br label %bb45, !dbg !1831

bb45:                                             ; preds = %bb32, %bb30, %bb28
  br label %bb46, !dbg !1738

bb31:                                             ; preds = %bb29
  %201 = getelementptr inbounds i8, ptr %mul, i64 1, !dbg !1833
  %value39 = load i8, ptr %201, align 1, !dbg !1833
  store i8 %value39, ptr %value.dbg.spill40, align 1, !dbg !1833
    #dbg_declare(ptr %value.dbg.spill40, !1577, !DIExpression(), !1834)
  store i8 %value39, ptr %result, align 1, !dbg !1835
  %self41 = load i8, ptr %result, align 1, !dbg !1836
  store i8 %self41, ptr %self.dbg.spill42, align 1, !dbg !1836
    #dbg_declare(ptr %self.dbg.spill42, !1816, !DIExpression(), !1837)
    #dbg_declare(ptr %self.dbg.spill42, !1825, !DIExpression(), !1838)
  %202 = call { i8, i1 } @llvm.sadd.with.overflow.i8(i8 %self41, i8 %x37), !dbg !1839
  %_91.0 = extractvalue { i8, i1 } %202, 0, !dbg !1839
  %_91.1 = extractvalue { i8, i1 } %202, 1, !dbg !1839
  store i8 %_91.0, ptr %a.dbg.spill43, align 1, !dbg !1840
    #dbg_declare(ptr %a.dbg.spill43, !1817, !DIExpression(), !1841)
  %203 = zext i1 %_91.1 to i8, !dbg !1842
  store i8 %203, ptr %b.dbg.spill44, align 1, !dbg !1842
    #dbg_declare(ptr %b.dbg.spill44, !1819, !DIExpression(), !1843)
    #dbg_declare(ptr %b.dbg.spill44, !1697, !DIExpression(), !1844)
  br i1 %_91.1, label %bb55, label %bb57, !dbg !1846

bb30:                                             ; preds = %bb29
  store i8 1, ptr %_0, align 1, !dbg !1847
  %204 = getelementptr inbounds i8, ptr %_0, i64 1, !dbg !1847
  store i8 2, ptr %204, align 1, !dbg !1847
  br label %bb45, !dbg !1848

bb57:                                             ; preds = %bb31
  %205 = getelementptr inbounds i8, ptr %_58, i64 1, !dbg !1850
  store i8 %_91.0, ptr %205, align 1, !dbg !1850
  store i8 1, ptr %_58, align 1, !dbg !1850
  br label %bb54, !dbg !1851

bb55:                                             ; preds = %bb31
  %206 = load i8, ptr @anon.53f16eec224c883228c428cfded7c828.2, align 1, !dbg !1852
  %207 = trunc nuw i8 %206 to i1, !dbg !1852
  %208 = load i8, ptr getelementptr inbounds (i8, ptr @anon.53f16eec224c883228c428cfded7c828.2, i64 1), align 1, !dbg !1852
  %209 = zext i1 %207 to i8, !dbg !1852
  store i8 %209, ptr %_58, align 1, !dbg !1852
  %210 = getelementptr inbounds i8, ptr %_58, i64 1, !dbg !1852
  store i8 %208, ptr %210, align 1, !dbg !1852
  br label %bb54, !dbg !1851

bb54:                                             ; preds = %bb55, %bb57
  %211 = load i8, ptr %_58, align 1, !dbg !1821
  %212 = trunc nuw i8 %211 to i1, !dbg !1821
  %213 = getelementptr inbounds i8, ptr %_58, i64 1, !dbg !1821
  %214 = load i8, ptr %213, align 1, !dbg !1821
  %_60 = zext i1 %212 to i64, !dbg !1821
  %215 = trunc nuw i64 %_60 to i1, !dbg !1829
  br i1 %215, label %bb33, label %bb32, !dbg !1829

bb33:                                             ; preds = %bb54
  %216 = getelementptr inbounds i8, ptr %_58, i64 1, !dbg !1833
  %value45 = load i8, ptr %216, align 1, !dbg !1833
  store i8 %value45, ptr %value.dbg.spill46, align 1, !dbg !1833
    #dbg_declare(ptr %value.dbg.spill46, !1579, !DIExpression(), !1853)
  store i8 %value45, ptr %result, align 1, !dbg !1854
  store ptr %rest.026, ptr %digits, align 8, !dbg !1855
  %217 = getelementptr inbounds i8, ptr %digits, i64 8, !dbg !1855
  store i64 %rest.127, ptr %217, align 8, !dbg !1855
  br label %bb25, !dbg !1764

bb32:                                             ; preds = %bb54
  store i8 1, ptr %_0, align 1, !dbg !1847
  %218 = getelementptr inbounds i8, ptr %_0, i64 1, !dbg !1847
  store i8 2, ptr %218, align 1, !dbg !1847
  br label %bb45, !dbg !1848

bb15:                                             ; preds = %bb14
  %219 = load ptr, ptr %digits, align 8, !dbg !1856
  %220 = getelementptr inbounds i8, ptr %digits, i64 8, !dbg !1856
  %221 = load i64, ptr %220, align 8, !dbg !1856
  %c47 = getelementptr inbounds nuw i8, ptr %219, i64 0, !dbg !1856
  store ptr %c47, ptr %c.dbg.spill48, align 8, !dbg !1856
    #dbg_declare(ptr %c.dbg.spill48, !1543, !DIExpression(), !1856)
  %222 = load ptr, ptr %digits, align 8, !dbg !1857
  %223 = getelementptr inbounds i8, ptr %digits, i64 8, !dbg !1857
  %224 = load i64, ptr %223, align 8, !dbg !1857
  %rest.049 = getelementptr inbounds nuw i8, ptr %222, i64 1, !dbg !1857
  %rest.150 = sub i64 %224, 1, !dbg !1857
  store ptr %rest.049, ptr %rest.dbg.spill51, align 8, !dbg !1857
  %225 = getelementptr inbounds i8, ptr %rest.dbg.spill51, i64 8, !dbg !1857
  store i64 %rest.150, ptr %225, align 8, !dbg !1857
    #dbg_declare(ptr %rest.dbg.spill51, !1545, !DIExpression(), !1857)
  %_21 = load i8, ptr %result, align 1, !dbg !1858
  %_22 = trunc i32 %radix to i8, !dbg !1859
  %226 = mul i8 %_21, %_22, !dbg !1860
  store i8 %226, ptr %result, align 1, !dbg !1860
  %_25 = load i8, ptr %c47, align 1, !dbg !1861
  %_24 = zext i8 %_25 to i32, !dbg !1862
; call core::char::methods::<impl char>::to_digit
  %227 = call { i32, i32 } @"_ZN4core4char7methods22_$LT$impl$u20$char$GT$8to_digit17h35aa0528be96dcd9E"(i32 %_24, i32 %radix), !dbg !1863
  %228 = extractvalue { i32, i32 } %227, 0, !dbg !1863
  %229 = extractvalue { i32, i32 } %227, 1, !dbg !1863
  store i32 %228, ptr %_23, align 4, !dbg !1863
  %230 = getelementptr inbounds i8, ptr %_23, i64 4, !dbg !1863
  store i32 %229, ptr %230, align 4, !dbg !1863
  %231 = load i32, ptr %_23, align 4, !dbg !1862
  %232 = getelementptr inbounds i8, ptr %_23, i64 4, !dbg !1862
  %233 = load i32, ptr %232, align 4, !dbg !1862
  %_26 = zext i32 %231 to i64, !dbg !1862
  %234 = trunc nuw i64 %_26 to i1, !dbg !1864
  br i1 %234, label %bb19, label %bb18, !dbg !1864

bb19:                                             ; preds = %bb15
  %235 = getelementptr inbounds i8, ptr %_23, i64 4, !dbg !1865
  %x52 = load i32, ptr %235, align 4, !dbg !1865
  store i32 %x52, ptr %x.dbg.spill53, align 4, !dbg !1865
    #dbg_declare(ptr %x.dbg.spill53, !1546, !DIExpression(), !1866)
    #dbg_declare(ptr %x.dbg.spill53, !1548, !DIExpression(), !1867)
  %_28 = load i8, ptr %result, align 1, !dbg !1868
  %_29 = trunc i32 %x52 to i8, !dbg !1869
  %236 = add i8 %_28, %_29, !dbg !1870
  store i8 %236, ptr %result, align 1, !dbg !1870
  store ptr %rest.049, ptr %digits, align 8, !dbg !1871
  %237 = getelementptr inbounds i8, ptr %digits, i64 8, !dbg !1871
  store i64 %rest.150, ptr %237, align 8, !dbg !1871
  br label %bb14, !dbg !1782

bb18:                                             ; preds = %bb15
  store i8 1, ptr %_0, align 1, !dbg !1872
  %238 = getelementptr inbounds i8, ptr %_0, i64 1, !dbg !1872
  store i8 1, ptr %238, align 1, !dbg !1872
  br label %bb46, !dbg !1738

bb17:                                             ; No predecessors!
  unreachable, !dbg !1628
}

; core::num::<impl isize>::unchecked_neg::precondition_check
; Function Attrs: inlinehint nounwind uwtable
define internal void @"_ZN4core3num23_$LT$impl$u20$isize$GT$13unchecked_neg18precondition_check17h19dfcab389ad03c4E"(i64 %lhs, ptr align 8 %0) unnamed_addr #4 !dbg !1873 {
start:
  %pieces.dbg.spill = alloca [8 x i8], align 8
  %b.dbg.spill = alloca [1 x i8], align 1
  %msg.dbg.spill = alloca [16 x i8], align 8
  %lhs.dbg.spill = alloca [8 x i8], align 8
  %_5 = alloca [16 x i8], align 8
  %_3 = alloca [48 x i8], align 8
  store i64 %lhs, ptr %lhs.dbg.spill, align 8
    #dbg_declare(ptr %lhs.dbg.spill, !1878, !DIExpression(), !1881)
    #dbg_declare(ptr %lhs.dbg.spill, !1882, !DIExpression(), !1891)
  store ptr @alloc_dbcce5cb8873847766db4f16f930a00e, ptr %msg.dbg.spill, align 8, !dbg !1894
  %1 = getelementptr inbounds i8, ptr %msg.dbg.spill, i64 8, !dbg !1894
  store i64 186, ptr %1, align 8, !dbg !1894
    #dbg_declare(ptr %msg.dbg.spill, !1879, !DIExpression(), !1894)
  %b = icmp eq i64 %lhs, -9223372036854775808, !dbg !1895
  %2 = zext i1 %b to i8, !dbg !1895
  store i8 %2, ptr %b.dbg.spill, align 1, !dbg !1895
    #dbg_declare(ptr %b.dbg.spill, !1896, !DIExpression(), !1899)
  br i1 %b, label %bb1, label %bb3, !dbg !1901

bb3:                                              ; preds = %start
  ret void, !dbg !1902

bb1:                                              ; preds = %start
  %3 = getelementptr inbounds nuw { ptr, i64 }, ptr %_5, i64 0, !dbg !1903
  store ptr @alloc_dbcce5cb8873847766db4f16f930a00e, ptr %3, align 8, !dbg !1903
  %4 = getelementptr inbounds i8, ptr %3, i64 8, !dbg !1903
  store i64 186, ptr %4, align 8, !dbg !1903
  store ptr %_5, ptr %pieces.dbg.spill, align 8, !dbg !1904
    #dbg_declare(ptr %pieces.dbg.spill, !1905, !DIExpression(), !1908)
  store ptr %_5, ptr %_3, align 8, !dbg !1910
  %5 = getelementptr inbounds i8, ptr %_3, i64 8, !dbg !1910
  store i64 1, ptr %5, align 8, !dbg !1910
  %6 = load ptr, ptr @anon.53f16eec224c883228c428cfded7c828.1, align 8, !dbg !1910
  %7 = load i64, ptr getelementptr inbounds (i8, ptr @anon.53f16eec224c883228c428cfded7c828.1, i64 8), align 8, !dbg !1910
  %8 = getelementptr inbounds i8, ptr %_3, i64 32, !dbg !1910
  store ptr %6, ptr %8, align 8, !dbg !1910
  %9 = getelementptr inbounds i8, ptr %8, i64 8, !dbg !1910
  store i64 %7, ptr %9, align 8, !dbg !1910
  %10 = getelementptr inbounds i8, ptr %_3, i64 16, !dbg !1910
  store ptr inttoptr (i64 8 to ptr), ptr %10, align 8, !dbg !1910
  %11 = getelementptr inbounds i8, ptr %10, i64 8, !dbg !1910
  store i64 0, ptr %11, align 8, !dbg !1910
; call core::panicking::panic_nounwind_fmt
  call void @_ZN4core9panicking18panic_nounwind_fmt17h9825e2aa83719df7E(ptr align 8 %_3, i1 zeroext false, ptr align 8 %0) #16, !dbg !1911
  unreachable, !dbg !1911
}

; core::num::<impl core::str::traits::FromStr for i8>::from_str
; Function Attrs: inlinehint uwtable
define internal { i1, i8 } @"_ZN4core3num59_$LT$impl$u20$core..str..traits..FromStr$u20$for$u20$i8$GT$8from_str17hcfd01236788dd62bE"(ptr align 1 %src.0, i64 %src.1) unnamed_addr #0 !dbg !1912 {
start:
  %radix.dbg.spill = alloca [4 x i8], align 4
  %src.dbg.spill = alloca [16 x i8], align 8
  store ptr %src.0, ptr %src.dbg.spill, align 8
  %0 = getelementptr inbounds i8, ptr %src.dbg.spill, i64 8
  store i64 %src.1, ptr %0, align 8
    #dbg_declare(ptr %src.dbg.spill, !1917, !DIExpression(), !1918)
    #dbg_declare(ptr %src.dbg.spill, !1919, !DIExpression(), !1925)
    #dbg_declare(ptr %src.dbg.spill, !1927, !DIExpression(), !1934)
  store i32 10, ptr %radix.dbg.spill, align 4, !dbg !1936
    #dbg_declare(ptr %radix.dbg.spill, !1924, !DIExpression(), !1936)
; call core::num::<impl i8>::from_ascii_radix
  %1 = call { i1, i8 } @"_ZN4core3num20_$LT$impl$u20$i8$GT$16from_ascii_radix17hc8a102b5e6a6a1a0E"(ptr align 1 %src.0, i64 %src.1, i32 10), !dbg !1937
  %_0.0 = extractvalue { i1, i8 } %1, 0, !dbg !1937
  %_0.1 = extractvalue { i1, i8 } %1, 1, !dbg !1937
  %2 = insertvalue { i1, i8 } poison, i1 %_0.0, 0, !dbg !1938
  %3 = insertvalue { i1, i8 } %2, i8 %_0.1, 1, !dbg !1938
  ret { i1, i8 } %3, !dbg !1938
}

; core::ops::function::FnMut::call_mut
; Function Attrs: inlinehint uwtable
define internal zeroext i1 @_ZN4core3ops8function5FnMut8call_mut17hbbdaa1ac01cd84f7E(ptr align 1 %_1, i32 %0) unnamed_addr #0 !dbg !1939 {
start:
  %_1.dbg.spill = alloca [8 x i8], align 8
  %_2 = alloca [4 x i8], align 4
  store i32 %0, ptr %_2, align 4
  store ptr %_1, ptr %_1.dbg.spill, align 8
    #dbg_declare(ptr %_1.dbg.spill, !1948, !DIExpression(), !1956)
    #dbg_declare(ptr %_2, !1949, !DIExpression(), !1956)
  %1 = load i32, ptr %_2, align 4, !dbg !1956
; call core::char::methods::<impl char>::is_whitespace
  %_0 = call zeroext i1 @"_ZN4core4char7methods22_$LT$impl$u20$char$GT$13is_whitespace17h6dd64746b029838bE"(i32 %1), !dbg !1956
  ret i1 %_0, !dbg !1956
}

; core::ops::function::FnOnce::call_once{{vtable.shim}}
; Function Attrs: inlinehint uwtable
define internal i32 @"_ZN4core3ops8function6FnOnce40call_once$u7b$$u7b$vtable.shim$u7d$$u7d$17hf99265ca0b39d788E"(ptr %_1) unnamed_addr #0 !dbg !1957 {
start:
  %_1.dbg.spill = alloca [8 x i8], align 8
  %_2 = alloca [0 x i8], align 1
  store ptr %_1, ptr %_1.dbg.spill, align 8
    #dbg_declare(ptr %_1.dbg.spill, !1963, !DIExpression(), !1968)
    #dbg_declare(ptr %_2, !1964, !DIExpression(), !1968)
  %0 = load ptr, ptr %_1, align 8, !dbg !1968
; call core::ops::function::FnOnce::call_once
  %_0 = call i32 @_ZN4core3ops8function6FnOnce9call_once17h09288baebc104bcbE(ptr %0), !dbg !1968
  ret i32 %_0, !dbg !1968
}

; core::ops::function::FnOnce::call_once
; Function Attrs: inlinehint uwtable
define internal i32 @_ZN4core3ops8function6FnOnce9call_once17h09288baebc104bcbE(ptr %0) unnamed_addr #0 personality ptr @rust_eh_personality !dbg !1969 {
start:
  %1 = alloca [16 x i8], align 8
  %_2 = alloca [0 x i8], align 1
  %_1 = alloca [8 x i8], align 8
  store ptr %0, ptr %_1, align 8
    #dbg_declare(ptr %_1, !1973, !DIExpression(), !1975)
    #dbg_declare(ptr %_2, !1974, !DIExpression(), !1975)
; invoke std::rt::lang_start::{{closure}}
  %_0 = invoke i32 @"_ZN3std2rt10lang_start28_$u7b$$u7b$closure$u7d$$u7d$17h13baac3a064ccaa7E"(ptr align 8 %_1)
          to label %bb1 unwind label %cleanup, !dbg !1975

bb3:                                              ; preds = %cleanup
  %2 = load ptr, ptr %1, align 8, !dbg !1975
  %3 = getelementptr inbounds i8, ptr %1, i64 8, !dbg !1975
  %4 = load i32, ptr %3, align 8, !dbg !1975
  %5 = insertvalue { ptr, i32 } poison, ptr %2, 0, !dbg !1975
  %6 = insertvalue { ptr, i32 } %5, i32 %4, 1, !dbg !1975
  resume { ptr, i32 } %6, !dbg !1975

cleanup:                                          ; preds = %start
  %7 = landingpad { ptr, i32 }
          cleanup
  %8 = extractvalue { ptr, i32 } %7, 0
  %9 = extractvalue { ptr, i32 } %7, 1
  store ptr %8, ptr %1, align 8
  %10 = getelementptr inbounds i8, ptr %1, i64 8
  store i32 %9, ptr %10, align 8
  br label %bb3

bb1:                                              ; preds = %start
  ret i32 %_0, !dbg !1975
}

; core::ops::function::FnOnce::call_once
; Function Attrs: inlinehint uwtable
define internal void @_ZN4core3ops8function6FnOnce9call_once17h6ddce4726cf2d068E(ptr %_1) unnamed_addr #0 !dbg !1976 {
start:
  %_1.dbg.spill = alloca [8 x i8], align 8
  %_2 = alloca [0 x i8], align 1
  store ptr %_1, ptr %_1.dbg.spill, align 8
    #dbg_declare(ptr %_1.dbg.spill, !1978, !DIExpression(), !1982)
    #dbg_declare(ptr %_2, !1979, !DIExpression(), !1982)
  call void %_1(), !dbg !1982
  ret void, !dbg !1982
}

; core::ptr::drop_in_place<std::io::error::ErrorData<alloc::boxed::Box<std::io::error::Custom>>>
; Function Attrs: uwtable
define internal void @"_ZN4core3ptr101drop_in_place$LT$std..io..error..ErrorData$LT$alloc..boxed..Box$LT$std..io..error..Custom$GT$$GT$$GT$17hd9c124322ec7efc1E"(ptr align 8 %_1) unnamed_addr #1 !dbg !1983 {
start:
  %_1.dbg.spill = alloca [8 x i8], align 8
  store ptr %_1, ptr %_1.dbg.spill, align 8
    #dbg_declare(ptr %_1.dbg.spill, !1989, !DIExpression(), !1990)
  %0 = load i8, ptr %_1, align 8, !dbg !1990
  %_2 = zext i8 %0 to i64, !dbg !1990
  switch i64 %_2, label %bb2 [
    i64 0, label %bb1
    i64 1, label %bb1
    i64 2, label %bb1
  ], !dbg !1990

bb2:                                              ; preds = %start
  %1 = getelementptr inbounds i8, ptr %_1, i64 8, !dbg !1990
; call core::ptr::drop_in_place<alloc::boxed::Box<std::io::error::Custom>>
  call void @"_ZN4core3ptr68drop_in_place$LT$alloc..boxed..Box$LT$std..io..error..Custom$GT$$GT$17h4dc744a935f38c54E"(ptr align 8 %1), !dbg !1990
  br label %bb1, !dbg !1990

bb1:                                              ; preds = %bb2, %start, %start, %start
  ret void, !dbg !1990
}

; core::ptr::drop_in_place<alloc::boxed::Box<dyn core::error::Error+core::marker::Send+core::marker::Sync>>
; Function Attrs: uwtable
define internal void @"_ZN4core3ptr118drop_in_place$LT$alloc..boxed..Box$LT$dyn$u20$core..error..Error$u2b$core..marker..Send$u2b$core..marker..Sync$GT$$GT$17he48dde44788f2338E"(ptr align 8 %_1) unnamed_addr #1 personality ptr @rust_eh_personality !dbg !1991 {
start:
  %0 = alloca [16 x i8], align 8
  %_1.dbg.spill = alloca [8 x i8], align 8
  store ptr %_1, ptr %_1.dbg.spill, align 8
    #dbg_declare(ptr %_1.dbg.spill, !1996, !DIExpression(), !1999)
  %_6.0 = load ptr, ptr %_1, align 8, !dbg !1999
  %1 = getelementptr inbounds i8, ptr %_1, i64 8, !dbg !1999
  %_6.1 = load ptr, ptr %1, align 8, !dbg !1999
  %2 = getelementptr inbounds i8, ptr %_6.1, i64 0, !dbg !1999
  %3 = load ptr, ptr %2, align 8, !dbg !1999, !invariant.load !23
  %4 = icmp ne ptr %3, null, !dbg !1999
  br i1 %4, label %is_not_null, label %bb3, !dbg !1999

is_not_null:                                      ; preds = %start
  invoke void %3(ptr %_6.0)
          to label %bb3 unwind label %cleanup, !dbg !1999

bb3:                                              ; preds = %is_not_null, %start
; call <alloc::boxed::Box<T,A> as core::ops::drop::Drop>::drop
  call void @"_ZN72_$LT$alloc..boxed..Box$LT$T$C$A$GT$$u20$as$u20$core..ops..drop..Drop$GT$4drop17h7960516cb6750bd2E"(ptr align 8 %_1), !dbg !1999
  ret void, !dbg !1999

bb4:                                              ; preds = %cleanup
; invoke <alloc::boxed::Box<T,A> as core::ops::drop::Drop>::drop
  invoke void @"_ZN72_$LT$alloc..boxed..Box$LT$T$C$A$GT$$u20$as$u20$core..ops..drop..Drop$GT$4drop17h7960516cb6750bd2E"(ptr align 8 %_1) #17
          to label %bb1 unwind label %terminate, !dbg !1999

cleanup:                                          ; preds = %is_not_null
  %5 = landingpad { ptr, i32 }
          cleanup
  %6 = extractvalue { ptr, i32 } %5, 0
  %7 = extractvalue { ptr, i32 } %5, 1
  store ptr %6, ptr %0, align 8
  %8 = getelementptr inbounds i8, ptr %0, i64 8
  store i32 %7, ptr %8, align 8
  br label %bb4

terminate:                                        ; preds = %bb4
  %9 = landingpad { ptr, i32 }
          filter [0 x ptr] zeroinitializer
; call core::panicking::panic_in_cleanup
  call void @_ZN4core9panicking16panic_in_cleanup17h957d6ed6f32c031dE() #18, !dbg !1999
  unreachable, !dbg !1999

bb1:                                              ; preds = %bb4
  %10 = load ptr, ptr %0, align 8, !dbg !1999
  %11 = getelementptr inbounds i8, ptr %0, i64 8, !dbg !1999
  %12 = load i32, ptr %11, align 8, !dbg !1999
  %13 = insertvalue { ptr, i32 } poison, ptr %10, 0, !dbg !1999
  %14 = insertvalue { ptr, i32 } %13, i32 %12, 1, !dbg !1999
  resume { ptr, i32 } %14, !dbg !1999
}

; core::ptr::drop_in_place<alloc::string::String>
; Function Attrs: uwtable
define internal void @"_ZN4core3ptr42drop_in_place$LT$alloc..string..String$GT$17h982319cb118168d4E"(ptr align 8 %_1) unnamed_addr #1 !dbg !2000 {
start:
  %_1.dbg.spill = alloca [8 x i8], align 8
  store ptr %_1, ptr %_1.dbg.spill, align 8
    #dbg_declare(ptr %_1.dbg.spill, !2040, !DIExpression(), !2043)
; call core::ptr::drop_in_place<alloc::vec::Vec<u8>>
  call void @"_ZN4core3ptr46drop_in_place$LT$alloc..vec..Vec$LT$u8$GT$$GT$17h13a7d339a0eec657E"(ptr align 8 %_1), !dbg !2043
  ret void, !dbg !2043
}

; core::ptr::drop_in_place<std::io::error::Error>
; Function Attrs: uwtable
define internal void @"_ZN4core3ptr42drop_in_place$LT$std..io..error..Error$GT$17h633266d8559608f2E"(ptr align 8 %_1) unnamed_addr #1 !dbg !2044 {
start:
  %_1.dbg.spill = alloca [8 x i8], align 8
  store ptr %_1, ptr %_1.dbg.spill, align 8
    #dbg_declare(ptr %_1.dbg.spill, !2049, !DIExpression(), !2052)
; call core::ptr::drop_in_place<std::io::error::repr_bitpacked::Repr>
  call void @"_ZN4core3ptr57drop_in_place$LT$std..io..error..repr_bitpacked..Repr$GT$17h6b5d0ea96c7c538aE"(ptr align 8 %_1), !dbg !2052
  ret void, !dbg !2052
}

; core::ptr::drop_in_place<std::io::error::Custom>
; Function Attrs: uwtable
define internal void @"_ZN4core3ptr43drop_in_place$LT$std..io..error..Custom$GT$17h8be45b65763bcc58E"(ptr align 8 %_1) unnamed_addr #1 !dbg !2053 {
start:
  %_1.dbg.spill = alloca [8 x i8], align 8
  store ptr %_1, ptr %_1.dbg.spill, align 8
    #dbg_declare(ptr %_1.dbg.spill, !2057, !DIExpression(), !2060)
; call core::ptr::drop_in_place<alloc::boxed::Box<dyn core::error::Error+core::marker::Send+core::marker::Sync>>
  call void @"_ZN4core3ptr118drop_in_place$LT$alloc..boxed..Box$LT$dyn$u20$core..error..Error$u2b$core..marker..Send$u2b$core..marker..Sync$GT$$GT$17he48dde44788f2338E"(ptr align 8 %_1), !dbg !2060
  ret void, !dbg !2060
}

; core::ptr::drop_in_place<alloc::vec::Vec<u8>>
; Function Attrs: uwtable
define internal void @"_ZN4core3ptr46drop_in_place$LT$alloc..vec..Vec$LT$u8$GT$$GT$17h13a7d339a0eec657E"(ptr align 8 %_1) unnamed_addr #1 personality ptr @rust_eh_personality !dbg !2061 {
start:
  %0 = alloca [16 x i8], align 8
  %_1.dbg.spill = alloca [8 x i8], align 8
  store ptr %_1, ptr %_1.dbg.spill, align 8
    #dbg_declare(ptr %_1.dbg.spill, !2066, !DIExpression(), !2069)
; invoke <alloc::vec::Vec<T,A> as core::ops::drop::Drop>::drop
  invoke void @"_ZN70_$LT$alloc..vec..Vec$LT$T$C$A$GT$$u20$as$u20$core..ops..drop..Drop$GT$4drop17h05f7d087d148fceaE"(ptr align 8 %_1)
          to label %bb4 unwind label %cleanup, !dbg !2069

bb3:                                              ; preds = %cleanup
; invoke core::ptr::drop_in_place<alloc::raw_vec::RawVec<u8>>
  invoke void @"_ZN4core3ptr53drop_in_place$LT$alloc..raw_vec..RawVec$LT$u8$GT$$GT$17hfc0be6901f7ed086E"(ptr align 8 %_1) #17
          to label %bb1 unwind label %terminate, !dbg !2069

cleanup:                                          ; preds = %start
  %1 = landingpad { ptr, i32 }
          cleanup
  %2 = extractvalue { ptr, i32 } %1, 0
  %3 = extractvalue { ptr, i32 } %1, 1
  store ptr %2, ptr %0, align 8
  %4 = getelementptr inbounds i8, ptr %0, i64 8
  store i32 %3, ptr %4, align 8
  br label %bb3

bb4:                                              ; preds = %start
; call core::ptr::drop_in_place<alloc::raw_vec::RawVec<u8>>
  call void @"_ZN4core3ptr53drop_in_place$LT$alloc..raw_vec..RawVec$LT$u8$GT$$GT$17hfc0be6901f7ed086E"(ptr align 8 %_1), !dbg !2069
  ret void, !dbg !2069

terminate:                                        ; preds = %bb3
  %5 = landingpad { ptr, i32 }
          filter [0 x ptr] zeroinitializer
; call core::panicking::panic_in_cleanup
  call void @_ZN4core9panicking16panic_in_cleanup17h957d6ed6f32c031dE() #18, !dbg !2069
  unreachable, !dbg !2069

bb1:                                              ; preds = %bb3
  %6 = load ptr, ptr %0, align 8, !dbg !2069
  %7 = getelementptr inbounds i8, ptr %0, i64 8, !dbg !2069
  %8 = load i32, ptr %7, align 8, !dbg !2069
  %9 = insertvalue { ptr, i32 } poison, ptr %6, 0, !dbg !2069
  %10 = insertvalue { ptr, i32 } %9, i32 %8, 1, !dbg !2069
  resume { ptr, i32 } %10, !dbg !2069
}

; core::ptr::drop_in_place<alloc::raw_vec::RawVec<u8>>
; Function Attrs: uwtable
define internal void @"_ZN4core3ptr53drop_in_place$LT$alloc..raw_vec..RawVec$LT$u8$GT$$GT$17hfc0be6901f7ed086E"(ptr align 8 %_1) unnamed_addr #1 !dbg !2070 {
start:
  %_1.dbg.spill = alloca [8 x i8], align 8
  store ptr %_1, ptr %_1.dbg.spill, align 8
    #dbg_declare(ptr %_1.dbg.spill, !2075, !DIExpression(), !2078)
; call <alloc::raw_vec::RawVec<T,A> as core::ops::drop::Drop>::drop
  call void @"_ZN77_$LT$alloc..raw_vec..RawVec$LT$T$C$A$GT$$u20$as$u20$core..ops..drop..Drop$GT$4drop17h14f8880bce35b8a4E"(ptr align 8 %_1), !dbg !2078
  ret void, !dbg !2078
}

; core::ptr::drop_in_place<std::io::error::repr_bitpacked::Repr>
; Function Attrs: uwtable
define internal void @"_ZN4core3ptr57drop_in_place$LT$std..io..error..repr_bitpacked..Repr$GT$17h6b5d0ea96c7c538aE"(ptr align 8 %_1) unnamed_addr #1 !dbg !2079 {
start:
  %_1.dbg.spill = alloca [8 x i8], align 8
  store ptr %_1, ptr %_1.dbg.spill, align 8
    #dbg_declare(ptr %_1.dbg.spill, !2084, !DIExpression(), !2087)
; call <std::io::error::repr_bitpacked::Repr as core::ops::drop::Drop>::drop
  call void @"_ZN78_$LT$std..io..error..repr_bitpacked..Repr$u20$as$u20$core..ops..drop..Drop$GT$4drop17h2e72cc1a566588caE"(ptr align 8 %_1), !dbg !2087
  ret void, !dbg !2087
}

; core::ptr::drop_in_place<alloc::boxed::Box<std::io::error::Custom>>
; Function Attrs: uwtable
define internal void @"_ZN4core3ptr68drop_in_place$LT$alloc..boxed..Box$LT$std..io..error..Custom$GT$$GT$17h4dc744a935f38c54E"(ptr align 8 %_1) unnamed_addr #1 personality ptr @rust_eh_personality !dbg !2088 {
start:
  %0 = alloca [16 x i8], align 8
  %_1.dbg.spill = alloca [8 x i8], align 8
  store ptr %_1, ptr %_1.dbg.spill, align 8
    #dbg_declare(ptr %_1.dbg.spill, !2093, !DIExpression(), !2096)
  %_6 = load ptr, ptr %_1, align 8, !dbg !2096
; invoke core::ptr::drop_in_place<std::io::error::Custom>
  invoke void @"_ZN4core3ptr43drop_in_place$LT$std..io..error..Custom$GT$17h8be45b65763bcc58E"(ptr align 8 %_6)
          to label %bb3 unwind label %cleanup, !dbg !2096

bb4:                                              ; preds = %cleanup
; invoke <alloc::boxed::Box<T,A> as core::ops::drop::Drop>::drop
  invoke void @"_ZN72_$LT$alloc..boxed..Box$LT$T$C$A$GT$$u20$as$u20$core..ops..drop..Drop$GT$4drop17hb4fc0ca980864fc7E"(ptr align 8 %_1) #17
          to label %bb1 unwind label %terminate, !dbg !2096

cleanup:                                          ; preds = %start
  %1 = landingpad { ptr, i32 }
          cleanup
  %2 = extractvalue { ptr, i32 } %1, 0
  %3 = extractvalue { ptr, i32 } %1, 1
  store ptr %2, ptr %0, align 8
  %4 = getelementptr inbounds i8, ptr %0, i64 8
  store i32 %3, ptr %4, align 8
  br label %bb4

bb3:                                              ; preds = %start
; call <alloc::boxed::Box<T,A> as core::ops::drop::Drop>::drop
  call void @"_ZN72_$LT$alloc..boxed..Box$LT$T$C$A$GT$$u20$as$u20$core..ops..drop..Drop$GT$4drop17hb4fc0ca980864fc7E"(ptr align 8 %_1), !dbg !2096
  ret void, !dbg !2096

terminate:                                        ; preds = %bb4
  %5 = landingpad { ptr, i32 }
          filter [0 x ptr] zeroinitializer
; call core::panicking::panic_in_cleanup
  call void @_ZN4core9panicking16panic_in_cleanup17h957d6ed6f32c031dE() #18, !dbg !2096
  unreachable, !dbg !2096

bb1:                                              ; preds = %bb4
  %6 = load ptr, ptr %0, align 8, !dbg !2096
  %7 = getelementptr inbounds i8, ptr %0, i64 8, !dbg !2096
  %8 = load i32, ptr %7, align 8, !dbg !2096
  %9 = insertvalue { ptr, i32 } poison, ptr %6, 0, !dbg !2096
  %10 = insertvalue { ptr, i32 } %9, i32 %8, 1, !dbg !2096
  resume { ptr, i32 } %10, !dbg !2096
}

; core::ptr::non_null::NonNull<T>::new_unchecked::precondition_check
; Function Attrs: inlinehint nounwind uwtable
define internal void @"_ZN4core3ptr8non_null16NonNull$LT$T$GT$13new_unchecked18precondition_check17h5b1ea590b18a81d0E"(ptr %ptr, ptr align 8 %0) unnamed_addr #4 !dbg !2097 {
start:
  %pieces.dbg.spill = alloca [8 x i8], align 8
  %msg.dbg.spill = alloca [16 x i8], align 8
  %ptr.dbg.spill = alloca [8 x i8], align 8
  %_5 = alloca [16 x i8], align 8
  %_3 = alloca [48 x i8], align 8
  store ptr %ptr, ptr %ptr.dbg.spill, align 8
    #dbg_declare(ptr %ptr.dbg.spill, !2103, !DIExpression(), !2106)
    #dbg_declare(ptr %ptr.dbg.spill, !2107, !DIExpression(), !2112)
  store ptr @alloc_560a59ed819b9d9a5841f6e731c4c8e5, ptr %msg.dbg.spill, align 8, !dbg !2115
  %1 = getelementptr inbounds i8, ptr %msg.dbg.spill, i64 8, !dbg !2115
  store i64 210, ptr %1, align 8, !dbg !2115
    #dbg_declare(ptr %msg.dbg.spill, !2104, !DIExpression(), !2115)
  %_6 = ptrtoint ptr %ptr to i64, !dbg !2116
  %2 = icmp eq i64 %_6, 0, !dbg !2135
  br i1 %2, label %bb1, label %bb2, !dbg !2135

bb1:                                              ; preds = %start
  %3 = getelementptr inbounds nuw { ptr, i64 }, ptr %_5, i64 0, !dbg !2136
  store ptr @alloc_560a59ed819b9d9a5841f6e731c4c8e5, ptr %3, align 8, !dbg !2136
  %4 = getelementptr inbounds i8, ptr %3, i64 8, !dbg !2136
  store i64 210, ptr %4, align 8, !dbg !2136
  store ptr %_5, ptr %pieces.dbg.spill, align 8, !dbg !2137
    #dbg_declare(ptr %pieces.dbg.spill, !2138, !DIExpression(), !2141)
  store ptr %_5, ptr %_3, align 8, !dbg !2143
  %5 = getelementptr inbounds i8, ptr %_3, i64 8, !dbg !2143
  store i64 1, ptr %5, align 8, !dbg !2143
  %6 = load ptr, ptr @anon.53f16eec224c883228c428cfded7c828.1, align 8, !dbg !2143
  %7 = load i64, ptr getelementptr inbounds (i8, ptr @anon.53f16eec224c883228c428cfded7c828.1, i64 8), align 8, !dbg !2143
  %8 = getelementptr inbounds i8, ptr %_3, i64 32, !dbg !2143
  store ptr %6, ptr %8, align 8, !dbg !2143
  %9 = getelementptr inbounds i8, ptr %8, i64 8, !dbg !2143
  store i64 %7, ptr %9, align 8, !dbg !2143
  %10 = getelementptr inbounds i8, ptr %_3, i64 16, !dbg !2143
  store ptr inttoptr (i64 8 to ptr), ptr %10, align 8, !dbg !2143
  %11 = getelementptr inbounds i8, ptr %10, i64 8, !dbg !2143
  store i64 0, ptr %11, align 8, !dbg !2143
; call core::panicking::panic_nounwind_fmt
  call void @_ZN4core9panicking18panic_nounwind_fmt17h9825e2aa83719df7E(ptr align 8 %_3, i1 zeroext false, ptr align 8 %0) #16, !dbg !2144
  unreachable, !dbg !2144

bb2:                                              ; preds = %start
  ret void, !dbg !2145
}

; core::ptr::non_null::NonNull<T>::offset_from_unsigned
; Function Attrs: inlinehint uwtable
define internal i64 @"_ZN4core3ptr8non_null16NonNull$LT$T$GT$20offset_from_unsigned17h75b4dbd3e4f7c47bE"(ptr %self, ptr %subtracted) unnamed_addr #0 !dbg !2146 {
start:
  %0 = alloca [8 x i8], align 8
  %pointee_size.dbg.spill = alloca [8 x i8], align 8
  %self.dbg.spill2 = alloca [8 x i8], align 8
  %origin.dbg.spill = alloca [8 x i8], align 8
  %self.dbg.spill1 = alloca [8 x i8], align 8
  %subtracted.dbg.spill = alloca [8 x i8], align 8
  %self.dbg.spill = alloca [8 x i8], align 8
  store ptr %self, ptr %self.dbg.spill, align 8
    #dbg_declare(ptr %self.dbg.spill, !2151, !DIExpression(), !2153)
    #dbg_declare(ptr %self.dbg.spill, !2154, !DIExpression(), !2157)
  store ptr %subtracted, ptr %subtracted.dbg.spill, align 8
    #dbg_declare(ptr %subtracted.dbg.spill, !2152, !DIExpression(), !2159)
    #dbg_declare(ptr %subtracted.dbg.spill, !2154, !DIExpression(), !2160)
  store ptr %self, ptr %self.dbg.spill1, align 8, !dbg !2162
    #dbg_declare(ptr %self.dbg.spill1, !2163, !DIExpression(), !2169)
  store ptr %subtracted, ptr %origin.dbg.spill, align 8, !dbg !2171
    #dbg_declare(ptr %origin.dbg.spill, !2168, !DIExpression(), !2172)
    #dbg_declare(ptr %origin.dbg.spill, !2173, !DIExpression(), !2181)
  store ptr %self, ptr %self.dbg.spill2, align 8, !dbg !2183
    #dbg_declare(ptr %self.dbg.spill2, !2178, !DIExpression(), !2184)
  br label %bb2, !dbg !2185

bb2:                                              ; preds = %start
; call core::ptr::const_ptr::<impl *const T>::offset_from_unsigned::precondition_check
  call void @"_ZN4core3ptr9const_ptr33_$LT$impl$u20$$BP$const$u20$T$GT$20offset_from_unsigned18precondition_check17h9db451352434e270E"(ptr %self, ptr %subtracted, ptr align 8 @alloc_c59c5181e468637bc22167c4fb380cc9) #14, !dbg !2187
  br label %bb4, !dbg !2188

bb4:                                              ; preds = %bb2
  store i64 1, ptr %pointee_size.dbg.spill, align 8, !dbg !2189
    #dbg_declare(ptr %pointee_size.dbg.spill, !2179, !DIExpression(), !2196)
  br label %bb5, !dbg !2197

bb5:                                              ; preds = %bb4
  br label %bb6, !dbg !2198

bb6:                                              ; preds = %bb5
  %1 = ptrtoint ptr %self to i64, !dbg !2199
  %2 = ptrtoint ptr %subtracted to i64, !dbg !2199
  %3 = sub nuw i64 %1, %2, !dbg !2199
  %4 = udiv exact i64 %3, 1, !dbg !2199
  store i64 %4, ptr %0, align 8, !dbg !2199
  %_0 = load i64, ptr %0, align 8, !dbg !2199
  ret i64 %_0, !dbg !2200

bb7:                                              ; No predecessors!
; call core::panicking::panic
  call void @_ZN4core9panicking5panic17h3c0d0c5e47386e71E(ptr align 1 @alloc_ec595fc0e82ef92fc59bd74f68296eae, i64 73, ptr align 8 @alloc_c59c5181e468637bc22167c4fb380cc9) #15, !dbg !2201
  unreachable, !dbg !2201
}

; core::ptr::drop_in_place<dyn core::error::Error+core::marker::Send+core::marker::Sync>
; Function Attrs: uwtable
define internal void @"_ZN4core3ptr93drop_in_place$LT$dyn$u20$core..error..Error$u2b$core..marker..Send$u2b$core..marker..Sync$GT$17h2a51d15cecde0a81E"(ptr align 1 %_1.0, ptr align 8 %_1.1) unnamed_addr #1 !dbg !2202 {
start:
  %_1.dbg.spill = alloca [16 x i8], align 8
  store ptr %_1.0, ptr %_1.dbg.spill, align 8
  %0 = getelementptr inbounds i8, ptr %_1.dbg.spill, i64 8
  store ptr %_1.1, ptr %0, align 8
    #dbg_declare(ptr %_1.dbg.spill, !2210, !DIExpression(), !2213)
  %1 = getelementptr inbounds i8, ptr %_1.1, i64 0, !dbg !2213
  %2 = load ptr, ptr %1, align 8, !dbg !2213, !invariant.load !23
  %3 = icmp ne ptr %2, null, !dbg !2213
  br i1 %3, label %is_not_null, label %bb1, !dbg !2213

is_not_null:                                      ; preds = %start
  call void %2(ptr %_1.0), !dbg !2213
  br label %bb1, !dbg !2213

bb1:                                              ; preds = %is_not_null, %start
  ret void, !dbg !2213
}

; core::ptr::const_ptr::<impl *const T>::offset_from_unsigned::precondition_check
; Function Attrs: inlinehint nounwind uwtable
define internal void @"_ZN4core3ptr9const_ptr33_$LT$impl$u20$$BP$const$u20$T$GT$20offset_from_unsigned18precondition_check17h9db451352434e270E"(ptr %this, ptr %origin, ptr align 8 %0) unnamed_addr #4 !dbg !2214 {
start:
  %pieces.dbg.spill = alloca [8 x i8], align 8
  %msg.dbg.spill = alloca [16 x i8], align 8
  %origin.dbg.spill = alloca [8 x i8], align 8
  %this.dbg.spill = alloca [8 x i8], align 8
  %_7 = alloca [16 x i8], align 8
  %_5 = alloca [48 x i8], align 8
  store ptr %this, ptr %this.dbg.spill, align 8
    #dbg_declare(ptr %this.dbg.spill, !2219, !DIExpression(), !2223)
    #dbg_declare(ptr %this.dbg.spill, !2224, !DIExpression(), !2230)
  store ptr %origin, ptr %origin.dbg.spill, align 8
    #dbg_declare(ptr %origin.dbg.spill, !2220, !DIExpression(), !2223)
    #dbg_declare(ptr %origin.dbg.spill, !2229, !DIExpression(), !2233)
  store ptr @alloc_de4e626d456b04760e72bc785ed7e52a, ptr %msg.dbg.spill, align 8, !dbg !2234
  %1 = getelementptr inbounds i8, ptr %msg.dbg.spill, i64 8, !dbg !2234
  store i64 201, ptr %1, align 8, !dbg !2234
    #dbg_declare(ptr %msg.dbg.spill, !2221, !DIExpression(), !2234)
  %_3 = icmp uge ptr %this, %origin, !dbg !2235
  br i1 %_3, label %bb1, label %bb2, !dbg !2231

bb2:                                              ; preds = %start
  %2 = getelementptr inbounds nuw { ptr, i64 }, ptr %_7, i64 0, !dbg !2241
  store ptr @alloc_de4e626d456b04760e72bc785ed7e52a, ptr %2, align 8, !dbg !2241
  %3 = getelementptr inbounds i8, ptr %2, i64 8, !dbg !2241
  store i64 201, ptr %3, align 8, !dbg !2241
  store ptr %_7, ptr %pieces.dbg.spill, align 8, !dbg !2242
    #dbg_declare(ptr %pieces.dbg.spill, !2243, !DIExpression(), !2246)
  store ptr %_7, ptr %_5, align 8, !dbg !2248
  %4 = getelementptr inbounds i8, ptr %_5, i64 8, !dbg !2248
  store i64 1, ptr %4, align 8, !dbg !2248
  %5 = load ptr, ptr @anon.53f16eec224c883228c428cfded7c828.1, align 8, !dbg !2248
  %6 = load i64, ptr getelementptr inbounds (i8, ptr @anon.53f16eec224c883228c428cfded7c828.1, i64 8), align 8, !dbg !2248
  %7 = getelementptr inbounds i8, ptr %_5, i64 32, !dbg !2248
  store ptr %5, ptr %7, align 8, !dbg !2248
  %8 = getelementptr inbounds i8, ptr %7, i64 8, !dbg !2248
  store i64 %6, ptr %8, align 8, !dbg !2248
  %9 = getelementptr inbounds i8, ptr %_5, i64 16, !dbg !2248
  store ptr inttoptr (i64 8 to ptr), ptr %9, align 8, !dbg !2248
  %10 = getelementptr inbounds i8, ptr %9, i64 8, !dbg !2248
  store i64 0, ptr %10, align 8, !dbg !2248
; call core::panicking::panic_nounwind_fmt
  call void @_ZN4core9panicking18panic_nounwind_fmt17h9825e2aa83719df7E(ptr align 8 %_5, i1 zeroext false, ptr align 8 %0) #16, !dbg !2249
  unreachable, !dbg !2249

bb1:                                              ; preds = %start
  ret void, !dbg !2250
}

; core::str::validations::next_code_point
; Function Attrs: inlinehint uwtable
define internal { i32, i32 } @_ZN4core3str11validations15next_code_point17h1e264ca60ec248f3E(ptr align 8 %bytes) unnamed_addr #0 !dbg !2251 {
start:
  %w.dbg.spill = alloca [1 x i8], align 1
  %val.dbg.spill10 = alloca [8 x i8], align 8
  %y_z.dbg.spill = alloca [4 x i8], align 4
  %ch.dbg.spill = alloca [4 x i8], align 4
  %z.dbg.spill = alloca [1 x i8], align 1
  %val.dbg.spill7 = alloca [8 x i8], align 8
  %y.dbg.spill = alloca [1 x i8], align 1
  %val.dbg.spill5 = alloca [8 x i8], align 8
  %init.dbg.spill = alloca [4 x i8], align 4
  %x.dbg.spill = alloca [1 x i8], align 1
  %val.dbg.spill = alloca [8 x i8], align 8
  %v.dbg.spill = alloca [8 x i8], align 8
  %width.dbg.spill = alloca [4 x i8], align 4
  %residual.dbg.spill = alloca [0 x i8], align 1
  %bytes.dbg.spill = alloca [8 x i8], align 8
  %self3 = alloca [8 x i8], align 8
  %self2 = alloca [8 x i8], align 8
  %ch = alloca [4 x i8], align 4
  %self1 = alloca [8 x i8], align 8
  %self = alloca [8 x i8], align 8
  %_3 = alloca [8 x i8], align 8
  %_0 = alloca [8 x i8], align 4
  store ptr %bytes, ptr %bytes.dbg.spill, align 8
    #dbg_declare(ptr %bytes.dbg.spill, !2257, !DIExpression(), !2294)
    #dbg_declare(ptr %self, !2295, !DIExpression(), !2320)
    #dbg_declare(ptr %self1, !2322, !DIExpression(), !2334)
    #dbg_declare(ptr %ch, !2284, !DIExpression(), !2336)
    #dbg_declare(ptr %self2, !2322, !DIExpression(), !2337)
    #dbg_declare(ptr %self3, !2322, !DIExpression(), !2339)
    #dbg_declare(ptr %residual.dbg.spill, !2260, !DIExpression(), !2341)
  store i32 2, ptr %width.dbg.spill, align 4, !dbg !2342
    #dbg_declare(ptr %width.dbg.spill, !2348, !DIExpression(), !2342)
; call <core::slice::iter::Iter<T> as core::iter::traits::iterator::Iterator>::next
  %0 = call align 1 ptr @"_ZN91_$LT$core..slice..iter..Iter$LT$T$GT$$u20$as$u20$core..iter..traits..iterator..Iterator$GT$4next17h735c6220f255a67dE"(ptr align 8 %bytes), !dbg !2350
  store ptr %0, ptr %self, align 8, !dbg !2350
  %1 = load ptr, ptr %self, align 8, !dbg !2351
  %2 = ptrtoint ptr %1 to i64, !dbg !2351
  %3 = icmp eq i64 %2, 0, !dbg !2351
  %_29 = select i1 %3, i64 0, i64 1, !dbg !2351
  %4 = trunc nuw i64 %_29 to i1, !dbg !2352
  br i1 %4, label %bb14, label %bb13, !dbg !2352

bb14:                                             ; preds = %start
  %v = load ptr, ptr %self, align 8, !dbg !2353
  store ptr %v, ptr %v.dbg.spill, align 8, !dbg !2353
    #dbg_declare(ptr %v.dbg.spill, !2318, !DIExpression(), !2354)
  store ptr %v, ptr %_3, align 8, !dbg !2355
  %val = load ptr, ptr %_3, align 8, !dbg !2321
  store ptr %val, ptr %val.dbg.spill, align 8, !dbg !2321
    #dbg_declare(ptr %val.dbg.spill, !2278, !DIExpression(), !2356)
  %x = load i8, ptr %val, align 1, !dbg !2357
  store i8 %x, ptr %x.dbg.spill, align 1, !dbg !2357
    #dbg_declare(ptr %x.dbg.spill, !2258, !DIExpression(), !2358)
    #dbg_declare(ptr %x.dbg.spill, !2347, !DIExpression(), !2359)
  %_6 = icmp ult i8 %x, -128, !dbg !2360
  br i1 %_6, label %bb3, label %bb4, !dbg !2360

bb13:                                             ; preds = %start
  %5 = load i32, ptr @anon.53f16eec224c883228c428cfded7c828.3, align 4, !dbg !2361
  %6 = load i32, ptr getelementptr inbounds (i8, ptr @anon.53f16eec224c883228c428cfded7c828.3, i64 4), align 4, !dbg !2361
  store i32 %5, ptr %_0, align 4, !dbg !2361
  %7 = getelementptr inbounds i8, ptr %_0, i64 4, !dbg !2361
  store i32 %6, ptr %7, align 4, !dbg !2361
  br label %bb12, !dbg !2368

bb12:                                             ; preds = %bb3, %bb11, %bb13
  %8 = load i32, ptr %_0, align 4, !dbg !2370
  %9 = getelementptr inbounds i8, ptr %_0, i64 4, !dbg !2370
  %10 = load i32, ptr %9, align 4, !dbg !2370
  %11 = insertvalue { i32, i32 } poison, i32 %8, 0, !dbg !2370
  %12 = insertvalue { i32, i32 } %11, i32 %10, 1, !dbg !2370
  ret { i32, i32 } %12, !dbg !2370

bb4:                                              ; preds = %bb14
  %_31 = and i8 %x, 31, !dbg !2371
  %init = zext i8 %_31 to i32, !dbg !2371
  store i32 %init, ptr %init.dbg.spill, align 4, !dbg !2371
    #dbg_declare(ptr %init.dbg.spill, !2280, !DIExpression(), !2372)
    #dbg_declare(ptr %init.dbg.spill, !2373, !DIExpression(), !2379)
; call <core::slice::iter::Iter<T> as core::iter::traits::iterator::Iterator>::next
  %13 = call align 1 ptr @"_ZN91_$LT$core..slice..iter..Iter$LT$T$GT$$u20$as$u20$core..iter..traits..iterator..Iterator$GT$4next17h735c6220f255a67dE"(ptr align 8 %bytes), !dbg !2381
  store ptr %13, ptr %self1, align 8, !dbg !2381
  %14 = load ptr, ptr %self1, align 8, !dbg !2382
  %15 = ptrtoint ptr %14 to i64, !dbg !2382
  %16 = icmp eq i64 %15, 0, !dbg !2382
  %_32 = select i1 %16, i64 0, i64 1, !dbg !2382
  %17 = trunc nuw i64 %_32 to i1, !dbg !2383
  br i1 %17, label %bb16, label %bb15, !dbg !2383

bb3:                                              ; preds = %bb14
  %_7 = zext i8 %x to i32, !dbg !2384
  %18 = getelementptr inbounds i8, ptr %_0, i64 4, !dbg !2385
  store i32 %_7, ptr %18, align 4, !dbg !2385
  store i32 1, ptr %_0, align 4, !dbg !2385
  br label %bb12, !dbg !2386

bb16:                                             ; preds = %bb4
  %val4 = load ptr, ptr %self1, align 8, !dbg !2388
  store ptr %val4, ptr %val.dbg.spill5, align 8, !dbg !2388
    #dbg_declare(ptr %val.dbg.spill5, !2328, !DIExpression(), !2389)
  %y = load i8, ptr %val4, align 1, !dbg !2390
  store i8 %y, ptr %y.dbg.spill, align 1, !dbg !2390
    #dbg_declare(ptr %y.dbg.spill, !2282, !DIExpression(), !2391)
    #dbg_declare(ptr %y.dbg.spill, !2378, !DIExpression(), !2392)
  %_35 = shl i32 %init, 6, !dbg !2393
  %_37 = and i8 %y, 63, !dbg !2394
  %_36 = zext i8 %_37 to i32, !dbg !2394
  %19 = or i32 %_35, %_36, !dbg !2393
  store i32 %19, ptr %ch, align 4, !dbg !2393
  %_13 = icmp uge i8 %x, -32, !dbg !2395
  br i1 %_13, label %bb6, label %bb11, !dbg !2395

bb15:                                             ; preds = %bb4
; call core::hint::unreachable_unchecked::precondition_check
  call void @_ZN4core4hint21unreachable_unchecked18precondition_check17h5a9e083451ad6e8eE(ptr align 8 @alloc_071cf42067010c03bf9dae9c56bca36a) #14, !dbg !2396
  br label %bb2, !dbg !2396

bb2:                                              ; preds = %bb19, %bb17, %bb15
  unreachable, !dbg !2368

bb11:                                             ; preds = %bb10, %bb16
  %_28 = load i32, ptr %ch, align 4, !dbg !2400
  %20 = getelementptr inbounds i8, ptr %_0, i64 4, !dbg !2401
  store i32 %_28, ptr %20, align 4, !dbg !2401
  store i32 1, ptr %_0, align 4, !dbg !2401
  br label %bb12, !dbg !2370

bb6:                                              ; preds = %bb16
; call <core::slice::iter::Iter<T> as core::iter::traits::iterator::Iterator>::next
  %21 = call align 1 ptr @"_ZN91_$LT$core..slice..iter..Iter$LT$T$GT$$u20$as$u20$core..iter..traits..iterator..Iterator$GT$4next17h735c6220f255a67dE"(ptr align 8 %bytes), !dbg !2402
  store ptr %21, ptr %self2, align 8, !dbg !2402
  %22 = load ptr, ptr %self2, align 8, !dbg !2403
  %23 = ptrtoint ptr %22 to i64, !dbg !2403
  %24 = icmp eq i64 %23, 0, !dbg !2403
  %_38 = select i1 %24, i64 0, i64 1, !dbg !2403
  %25 = trunc nuw i64 %_38 to i1, !dbg !2404
  br i1 %25, label %bb18, label %bb17, !dbg !2404

bb18:                                             ; preds = %bb6
  %val6 = load ptr, ptr %self2, align 8, !dbg !2405
  store ptr %val6, ptr %val.dbg.spill7, align 8, !dbg !2405
    #dbg_declare(ptr %val.dbg.spill7, !2330, !DIExpression(), !2406)
  %z = load i8, ptr %val6, align 1, !dbg !2407
  store i8 %z, ptr %z.dbg.spill, align 1, !dbg !2407
    #dbg_declare(ptr %z.dbg.spill, !2286, !DIExpression(), !2408)
    #dbg_declare(ptr %z.dbg.spill, !2378, !DIExpression(), !2409)
  %_19 = and i8 %y, 63, !dbg !2411
  %ch8 = zext i8 %_19 to i32, !dbg !2411
  store i32 %ch8, ptr %ch.dbg.spill, align 4, !dbg !2411
    #dbg_declare(ptr %ch.dbg.spill, !2373, !DIExpression(), !2412)
  %_41 = shl i32 %ch8, 6, !dbg !2413
  %_43 = and i8 %z, 63, !dbg !2414
  %_42 = zext i8 %_43 to i32, !dbg !2414
  %y_z = or i32 %_41, %_42, !dbg !2413
  store i32 %y_z, ptr %y_z.dbg.spill, align 4, !dbg !2413
    #dbg_declare(ptr %y_z.dbg.spill, !2288, !DIExpression(), !2415)
    #dbg_declare(ptr %y_z.dbg.spill, !2373, !DIExpression(), !2416)
  %_20 = shl i32 %init, 12, !dbg !2418
  %26 = or i32 %_20, %y_z, !dbg !2419
  store i32 %26, ptr %ch, align 4, !dbg !2419
  %_21 = icmp uge i8 %x, -16, !dbg !2420
  br i1 %_21, label %bb8, label %bb10, !dbg !2420

bb17:                                             ; preds = %bb6
; call core::hint::unreachable_unchecked::precondition_check
  call void @_ZN4core4hint21unreachable_unchecked18precondition_check17h5a9e083451ad6e8eE(ptr align 8 @alloc_24952474b46921ac47de533a0657191c) #14, !dbg !2421
  br label %bb2, !dbg !2421

bb10:                                             ; preds = %bb20, %bb18
  br label %bb11, !dbg !2424

bb8:                                              ; preds = %bb18
; call <core::slice::iter::Iter<T> as core::iter::traits::iterator::Iterator>::next
  %27 = call align 1 ptr @"_ZN91_$LT$core..slice..iter..Iter$LT$T$GT$$u20$as$u20$core..iter..traits..iterator..Iterator$GT$4next17h735c6220f255a67dE"(ptr align 8 %bytes), !dbg !2425
  store ptr %27, ptr %self3, align 8, !dbg !2425
  %28 = load ptr, ptr %self3, align 8, !dbg !2426
  %29 = ptrtoint ptr %28 to i64, !dbg !2426
  %30 = icmp eq i64 %29, 0, !dbg !2426
  %_44 = select i1 %30, i64 0, i64 1, !dbg !2426
  %31 = trunc nuw i64 %_44 to i1, !dbg !2427
  br i1 %31, label %bb20, label %bb19, !dbg !2427

bb20:                                             ; preds = %bb8
  %val9 = load ptr, ptr %self3, align 8, !dbg !2428
  store ptr %val9, ptr %val.dbg.spill10, align 8, !dbg !2428
    #dbg_declare(ptr %val.dbg.spill10, !2332, !DIExpression(), !2429)
  %w = load i8, ptr %val9, align 1, !dbg !2430
  store i8 %w, ptr %w.dbg.spill, align 1, !dbg !2430
    #dbg_declare(ptr %w.dbg.spill, !2290, !DIExpression(), !2431)
    #dbg_declare(ptr %w.dbg.spill, !2378, !DIExpression(), !2432)
  %_26 = and i32 %init, 7, !dbg !2433
  %_25 = shl i32 %_26, 18, !dbg !2433
  %_47 = shl i32 %y_z, 6, !dbg !2434
  %_49 = and i8 %w, 63, !dbg !2435
  %_48 = zext i8 %_49 to i32, !dbg !2435
  %_27 = or i32 %_47, %_48, !dbg !2434
  %32 = or i32 %_25, %_27, !dbg !2436
  store i32 %32, ptr %ch, align 4, !dbg !2436
  br label %bb10, !dbg !2437

bb19:                                             ; preds = %bb8
; call core::hint::unreachable_unchecked::precondition_check
  call void @_ZN4core4hint21unreachable_unchecked18precondition_check17h5a9e083451ad6e8eE(ptr align 8 @alloc_8a59a6c75f09b95ae0375bdc01dfa3e9) #14, !dbg !2438
  br label %bb2, !dbg !2438
}

; core::str::validations::next_code_point_reverse
; Function Attrs: inlinehint uwtable
define internal { i32, i32 } @_ZN4core3str11validations23next_code_point_reverse17hbb2f1eea7ed669c4E(ptr align 8 %bytes) unnamed_addr #0 !dbg !2441 {
start:
  %next_byte.dbg.spill = alloca [1 x i8], align 1
  %ch.dbg.spill16 = alloca [4 x i8], align 4
  %ch.dbg.spill14 = alloca [4 x i8], align 4
  %ch.dbg.spill = alloca [4 x i8], align 4
  %x.dbg.spill = alloca [1 x i8], align 1
  %val.dbg.spill11 = alloca [8 x i8], align 8
  %y.dbg.spill = alloca [1 x i8], align 1
  %val.dbg.spill9 = alloca [8 x i8], align 8
  %z.dbg.spill = alloca [1 x i8], align 1
  %val.dbg.spill7 = alloca [8 x i8], align 8
  %w.dbg.spill = alloca [1 x i8], align 1
  %val.dbg.spill = alloca [8 x i8], align 8
  %v.dbg.spill = alloca [8 x i8], align 8
  %width.dbg.spill5 = alloca [4 x i8], align 4
  %width.dbg.spill4 = alloca [4 x i8], align 4
  %width.dbg.spill = alloca [4 x i8], align 4
  %residual.dbg.spill = alloca [0 x i8], align 1
  %bytes.dbg.spill = alloca [8 x i8], align 8
  %self3 = alloca [8 x i8], align 8
  %self2 = alloca [8 x i8], align 8
  %self1 = alloca [8 x i8], align 8
  %ch = alloca [4 x i8], align 4
  %self = alloca [8 x i8], align 8
  %_2 = alloca [8 x i8], align 8
  %_0 = alloca [8 x i8], align 4
  store ptr %bytes, ptr %bytes.dbg.spill, align 8
    #dbg_declare(ptr %bytes.dbg.spill, !2443, !DIExpression(), !2463)
    #dbg_declare(ptr %self, !2464, !DIExpression(), !2469)
    #dbg_declare(ptr %ch, !2455, !DIExpression(), !2471)
    #dbg_declare(ptr %self1, !2472, !DIExpression(), !2481)
    #dbg_declare(ptr %self2, !2472, !DIExpression(), !2483)
    #dbg_declare(ptr %self3, !2472, !DIExpression(), !2485)
    #dbg_declare(ptr %residual.dbg.spill, !2446, !DIExpression(), !2487)
  store i32 2, ptr %width.dbg.spill, align 4, !dbg !2488
    #dbg_declare(ptr %width.dbg.spill, !2492, !DIExpression(), !2488)
  store i32 3, ptr %width.dbg.spill4, align 4, !dbg !2494
    #dbg_declare(ptr %width.dbg.spill4, !2492, !DIExpression(), !2494)
  store i32 4, ptr %width.dbg.spill5, align 4, !dbg !2496
    #dbg_declare(ptr %width.dbg.spill5, !2492, !DIExpression(), !2496)
; call <core::slice::iter::Iter<T> as core::iter::traits::double_ended::DoubleEndedIterator>::next_back
  %0 = call align 1 ptr @"_ZN106_$LT$core..slice..iter..Iter$LT$T$GT$$u20$as$u20$core..iter..traits..double_ended..DoubleEndedIterator$GT$9next_back17h1f73d45037b9477bE"(ptr align 8 %bytes), !dbg !2498
  store ptr %0, ptr %self, align 8, !dbg !2498
  %1 = load ptr, ptr %self, align 8, !dbg !2499
  %2 = ptrtoint ptr %1 to i64, !dbg !2499
  %3 = icmp eq i64 %2, 0, !dbg !2499
  %_31 = select i1 %3, i64 0, i64 1, !dbg !2499
  %4 = trunc nuw i64 %_31 to i1, !dbg !2500
  br i1 %4, label %bb17, label %bb16, !dbg !2500

bb17:                                             ; preds = %start
  %v = load ptr, ptr %self, align 8, !dbg !2501
  store ptr %v, ptr %v.dbg.spill, align 8, !dbg !2501
    #dbg_declare(ptr %v.dbg.spill, !2467, !DIExpression(), !2502)
  store ptr %v, ptr %_2, align 8, !dbg !2503
  %val = load ptr, ptr %_2, align 8, !dbg !2470
  store ptr %val, ptr %val.dbg.spill, align 8, !dbg !2470
    #dbg_declare(ptr %val.dbg.spill, !2448, !DIExpression(), !2504)
    #dbg_declare(ptr %val.dbg.spill, !2452, !DIExpression(), !2505)
  %w = load i8, ptr %val, align 1, !dbg !2506
  store i8 %w, ptr %w.dbg.spill, align 1, !dbg !2506
    #dbg_declare(ptr %w.dbg.spill, !2444, !DIExpression(), !2507)
    #dbg_declare(ptr %w.dbg.spill, !2453, !DIExpression(), !2508)
    #dbg_declare(ptr %w.dbg.spill, !2509, !DIExpression(), !2513)
  %_6 = icmp ult i8 %w, -128, !dbg !2506
  br i1 %_6, label %bb3, label %bb4, !dbg !2506

bb16:                                             ; preds = %start
  %5 = load i32, ptr @anon.53f16eec224c883228c428cfded7c828.3, align 4, !dbg !2515
  %6 = load i32, ptr getelementptr inbounds (i8, ptr @anon.53f16eec224c883228c428cfded7c828.3, i64 4), align 4, !dbg !2515
  store i32 %5, ptr %_0, align 4, !dbg !2515
  %7 = getelementptr inbounds i8, ptr %_0, i64 4, !dbg !2515
  store i32 %6, ptr %7, align 4, !dbg !2515
  br label %bb14, !dbg !2519

bb14:                                             ; preds = %bb3, %bb16
  br label %bb15, !dbg !2521

bb4:                                              ; preds = %bb17
; call <core::slice::iter::Iter<T> as core::iter::traits::double_ended::DoubleEndedIterator>::next_back
  %8 = call align 1 ptr @"_ZN106_$LT$core..slice..iter..Iter$LT$T$GT$$u20$as$u20$core..iter..traits..double_ended..DoubleEndedIterator$GT$9next_back17h1f73d45037b9477bE"(ptr align 8 %bytes), !dbg !2522
  store ptr %8, ptr %self1, align 8, !dbg !2522
  %9 = load ptr, ptr %self1, align 8, !dbg !2523
  %10 = ptrtoint ptr %9 to i64, !dbg !2523
  %11 = icmp eq i64 %10, 0, !dbg !2523
  %_33 = select i1 %11, i64 0, i64 1, !dbg !2523
  %12 = trunc nuw i64 %_33 to i1, !dbg !2524
  br i1 %12, label %bb19, label %bb18, !dbg !2524

bb3:                                              ; preds = %bb17
  %next_byte = load i8, ptr %val, align 1, !dbg !2525
  store i8 %next_byte, ptr %next_byte.dbg.spill, align 1, !dbg !2525
    #dbg_declare(ptr %next_byte.dbg.spill, !2450, !DIExpression(), !2505)
  %_8 = zext i8 %next_byte to i32, !dbg !2526
  %13 = getelementptr inbounds i8, ptr %_0, i64 4, !dbg !2527
  store i32 %_8, ptr %13, align 4, !dbg !2527
  store i32 1, ptr %_0, align 4, !dbg !2527
  br label %bb14, !dbg !2519

bb19:                                             ; preds = %bb4
  %val6 = load ptr, ptr %self1, align 8, !dbg !2528
  store ptr %val6, ptr %val.dbg.spill7, align 8, !dbg !2528
    #dbg_declare(ptr %val.dbg.spill7, !2475, !DIExpression(), !2529)
  %z = load i8, ptr %val6, align 1, !dbg !2530
  store i8 %z, ptr %z.dbg.spill, align 1, !dbg !2530
    #dbg_declare(ptr %z.dbg.spill, !2457, !DIExpression(), !2531)
    #dbg_declare(ptr %z.dbg.spill, !2491, !DIExpression(), !2532)
    #dbg_declare(ptr %z.dbg.spill, !2533, !DIExpression(), !2538)
    #dbg_declare(ptr %z.dbg.spill, !2509, !DIExpression(), !2540)
  %_36 = and i8 %z, 31, !dbg !2542
  %_13 = zext i8 %_36 to i32, !dbg !2542
  store i32 %_13, ptr %ch, align 4, !dbg !2543
  %_14 = icmp slt i8 %z, -64, !dbg !2544
  br i1 %_14, label %bb6, label %bb12, !dbg !2539

bb18:                                             ; preds = %bb4
; call core::hint::unreachable_unchecked::precondition_check
  call void @_ZN4core4hint21unreachable_unchecked18precondition_check17h5a9e083451ad6e8eE(ptr align 8 @alloc_5133ba5ad5e393eb9bbc2d80fdab30c9) #14, !dbg !2545
  br label %bb2, !dbg !2545

bb2:                                              ; preds = %bb22, %bb20, %bb18
  unreachable, !dbg !2519

bb12:                                             ; preds = %bb19
  br label %bb13, !dbg !2549

bb6:                                              ; preds = %bb19
; call <core::slice::iter::Iter<T> as core::iter::traits::double_ended::DoubleEndedIterator>::next_back
  %14 = call align 1 ptr @"_ZN106_$LT$core..slice..iter..Iter$LT$T$GT$$u20$as$u20$core..iter..traits..double_ended..DoubleEndedIterator$GT$9next_back17h1f73d45037b9477bE"(ptr align 8 %bytes), !dbg !2550
  store ptr %14, ptr %self2, align 8, !dbg !2550
  %15 = load ptr, ptr %self2, align 8, !dbg !2551
  %16 = ptrtoint ptr %15 to i64, !dbg !2551
  %17 = icmp eq i64 %16, 0, !dbg !2551
  %_38 = select i1 %17, i64 0, i64 1, !dbg !2551
  %18 = trunc nuw i64 %_38 to i1, !dbg !2552
  br i1 %18, label %bb21, label %bb20, !dbg !2552

bb13:                                             ; preds = %bb11, %bb12
  %ch15 = load i32, ptr %ch, align 4, !dbg !2553
  store i32 %ch15, ptr %ch.dbg.spill16, align 4, !dbg !2553
    #dbg_declare(ptr %ch.dbg.spill16, !2512, !DIExpression(), !2554)
  %_53 = shl i32 %ch15, 6, !dbg !2555
  %_55 = and i8 %w, 63, !dbg !2556
  %_54 = zext i8 %_55 to i32, !dbg !2556
  %_28 = or i32 %_53, %_54, !dbg !2555
  store i32 %_28, ptr %ch, align 4, !dbg !2557
  %_30 = load i32, ptr %ch, align 4, !dbg !2558
  %19 = getelementptr inbounds i8, ptr %_0, i64 4, !dbg !2559
  store i32 %_30, ptr %19, align 4, !dbg !2559
  store i32 1, ptr %_0, align 4, !dbg !2559
  br label %bb15, !dbg !2521

bb21:                                             ; preds = %bb6
  %val8 = load ptr, ptr %self2, align 8, !dbg !2560
  store ptr %val8, ptr %val.dbg.spill9, align 8, !dbg !2560
    #dbg_declare(ptr %val.dbg.spill9, !2477, !DIExpression(), !2561)
  %y = load i8, ptr %val8, align 1, !dbg !2562
  store i8 %y, ptr %y.dbg.spill, align 1, !dbg !2562
    #dbg_declare(ptr %y.dbg.spill, !2459, !DIExpression(), !2563)
    #dbg_declare(ptr %y.dbg.spill, !2491, !DIExpression(), !2564)
    #dbg_declare(ptr %y.dbg.spill, !2533, !DIExpression(), !2565)
    #dbg_declare(ptr %y.dbg.spill, !2509, !DIExpression(), !2567)
  %_41 = and i8 %y, 15, !dbg !2569
  %_18 = zext i8 %_41 to i32, !dbg !2569
  store i32 %_18, ptr %ch, align 4, !dbg !2570
  %_19 = icmp slt i8 %y, -64, !dbg !2571
  br i1 %_19, label %bb8, label %bb10, !dbg !2566

bb20:                                             ; preds = %bb6
; call core::hint::unreachable_unchecked::precondition_check
  call void @_ZN4core4hint21unreachable_unchecked18precondition_check17h5a9e083451ad6e8eE(ptr align 8 @alloc_5444b36b66589b4d5df4d762b2f723e6) #14, !dbg !2572
  br label %bb2, !dbg !2572

bb10:                                             ; preds = %bb21
  br label %bb11, !dbg !2575

bb8:                                              ; preds = %bb21
; call <core::slice::iter::Iter<T> as core::iter::traits::double_ended::DoubleEndedIterator>::next_back
  %20 = call align 1 ptr @"_ZN106_$LT$core..slice..iter..Iter$LT$T$GT$$u20$as$u20$core..iter..traits..double_ended..DoubleEndedIterator$GT$9next_back17h1f73d45037b9477bE"(ptr align 8 %bytes), !dbg !2576
  store ptr %20, ptr %self3, align 8, !dbg !2576
  %21 = load ptr, ptr %self3, align 8, !dbg !2577
  %22 = ptrtoint ptr %21 to i64, !dbg !2577
  %23 = icmp eq i64 %22, 0, !dbg !2577
  %_43 = select i1 %23, i64 0, i64 1, !dbg !2577
  %24 = trunc nuw i64 %_43 to i1, !dbg !2578
  br i1 %24, label %bb23, label %bb22, !dbg !2578

bb11:                                             ; preds = %bb23, %bb10
  %ch13 = load i32, ptr %ch, align 4, !dbg !2579
  store i32 %ch13, ptr %ch.dbg.spill14, align 4, !dbg !2579
    #dbg_declare(ptr %ch.dbg.spill14, !2512, !DIExpression(), !2580)
  %_50 = shl i32 %ch13, 6, !dbg !2581
  %_52 = and i8 %z, 63, !dbg !2582
  %_51 = zext i8 %_52 to i32, !dbg !2582
  %_26 = or i32 %_50, %_51, !dbg !2581
  store i32 %_26, ptr %ch, align 4, !dbg !2583
  br label %bb13, !dbg !2549

bb23:                                             ; preds = %bb8
  %val10 = load ptr, ptr %self3, align 8, !dbg !2584
  store ptr %val10, ptr %val.dbg.spill11, align 8, !dbg !2584
    #dbg_declare(ptr %val.dbg.spill11, !2479, !DIExpression(), !2585)
  %x = load i8, ptr %val10, align 1, !dbg !2586
  store i8 %x, ptr %x.dbg.spill, align 1, !dbg !2586
    #dbg_declare(ptr %x.dbg.spill, !2461, !DIExpression(), !2587)
    #dbg_declare(ptr %x.dbg.spill, !2491, !DIExpression(), !2588)
  %_46 = and i8 %x, 7, !dbg !2589
  %_23 = zext i8 %_46 to i32, !dbg !2589
  store i32 %_23, ptr %ch, align 4, !dbg !2590
  %ch12 = load i32, ptr %ch, align 4, !dbg !2591
  store i32 %ch12, ptr %ch.dbg.spill, align 4, !dbg !2591
    #dbg_declare(ptr %ch.dbg.spill, !2512, !DIExpression(), !2592)
  %_47 = shl i32 %ch12, 6, !dbg !2593
  %_49 = and i8 %y, 63, !dbg !2594
  %_48 = zext i8 %_49 to i32, !dbg !2594
  %_24 = or i32 %_47, %_48, !dbg !2593
  store i32 %_24, ptr %ch, align 4, !dbg !2595
  br label %bb11, !dbg !2575

bb22:                                             ; preds = %bb8
; call core::hint::unreachable_unchecked::precondition_check
  call void @_ZN4core4hint21unreachable_unchecked18precondition_check17h5a9e083451ad6e8eE(ptr align 8 @alloc_afa76ab528796a72d77ef72a0bf590ed) #14, !dbg !2596
  br label %bb2, !dbg !2596

bb15:                                             ; preds = %bb14, %bb13
  %25 = load i32, ptr %_0, align 4, !dbg !2521
  %26 = getelementptr inbounds i8, ptr %_0, i64 4, !dbg !2521
  %27 = load i32, ptr %26, align 4, !dbg !2521
  %28 = insertvalue { i32, i32 } poison, i32 %25, 0, !dbg !2521
  %29 = insertvalue { i32, i32 } %28, i32 %27, 1, !dbg !2521
  ret { i32, i32 } %29, !dbg !2521
}

; core::str::<impl str>::trim_matches
; Function Attrs: uwtable
define internal { ptr, i64 } @"_ZN4core3str21_$LT$impl$u20$str$GT$12trim_matches17h73476240b77c8bfaE"(ptr align 1 %self.0, i64 %self.1) unnamed_addr #1 personality ptr @rust_eh_personality !dbg !2599 {
start:
  %data.dbg.spill = alloca [8 x i8], align 8
  %self.dbg.spill6 = alloca [8 x i8], align 8
  %new_len.dbg.spill = alloca [8 x i8], align 8
  %slice.dbg.spill = alloca [16 x i8], align 8
  %i.dbg.spill5 = alloca [8 x i8], align 8
  %i.dbg.spill = alloca [8 x i8], align 8
  %b.dbg.spill2 = alloca [8 x i8], align 8
  %b.dbg.spill = alloca [8 x i8], align 8
  %a.dbg.spill = alloca [8 x i8], align 8
  %0 = alloca [16 x i8], align 8
  %pat.dbg.spill = alloca [0 x i8], align 1
  %self.dbg.spill = alloca [16 x i8], align 8
  %_11 = alloca [24 x i8], align 8
  %_6 = alloca [24 x i8], align 8
  %matcher = alloca [40 x i8], align 8
  %j = alloca [8 x i8], align 8
  %i = alloca [8 x i8], align 8
  store ptr %self.0, ptr %self.dbg.spill, align 8
  %1 = getelementptr inbounds i8, ptr %self.dbg.spill, i64 8
  store i64 %self.1, ptr %1, align 8
    #dbg_declare(ptr %self.dbg.spill, !2603, !DIExpression(), !2618)
    #dbg_declare(ptr %self.dbg.spill, !2619, !DIExpression(), !2634)
    #dbg_declare(ptr %self.dbg.spill, !2636, !DIExpression(), !2653)
    #dbg_declare(ptr %pat.dbg.spill, !2604, !DIExpression(), !2655)
    #dbg_declare(ptr %i, !2605, !DIExpression(), !2656)
    #dbg_declare(ptr %j, !2607, !DIExpression(), !2657)
    #dbg_declare(ptr %matcher, !2609, !DIExpression(), !2658)
  store i64 0, ptr %i, align 8, !dbg !2659
  store i64 0, ptr %j, align 8, !dbg !2660
; call <F as core::str::pattern::Pattern>::into_searcher
  call void @"_ZN49_$LT$F$u20$as$u20$core..str..pattern..Pattern$GT$13into_searcher17he65f416c3f8cb32eE"(ptr sret([40 x i8]) align 8 %matcher, ptr align 1 %self.0, i64 %self.1), !dbg !2661
; invoke <core::str::pattern::CharPredicateSearcher<F> as core::str::pattern::Searcher>::next_reject
  invoke void @"_ZN99_$LT$core..str..pattern..CharPredicateSearcher$LT$F$GT$$u20$as$u20$core..str..pattern..Searcher$GT$11next_reject17hcb8a8c8d8e2bb251E"(ptr sret([24 x i8]) align 8 %_6, ptr align 8 %matcher)
          to label %bb2 unwind label %cleanup, !dbg !2662

bb11:                                             ; preds = %cleanup
  %2 = load ptr, ptr %0, align 8, !dbg !2663
  %3 = getelementptr inbounds i8, ptr %0, i64 8, !dbg !2663
  %4 = load i32, ptr %3, align 8, !dbg !2663
  %5 = insertvalue { ptr, i32 } poison, ptr %2, 0, !dbg !2663
  %6 = insertvalue { ptr, i32 } %5, i32 %4, 1, !dbg !2663
  resume { ptr, i32 } %6, !dbg !2663

cleanup:                                          ; preds = %bb5, %start
  %7 = landingpad { ptr, i32 }
          cleanup
  %8 = extractvalue { ptr, i32 } %7, 0
  %9 = extractvalue { ptr, i32 } %7, 1
  store ptr %8, ptr %0, align 8
  %10 = getelementptr inbounds i8, ptr %0, i64 8
  store i32 %9, ptr %10, align 8
  br label %bb11

bb2:                                              ; preds = %start
  %_8 = load i64, ptr %_6, align 8, !dbg !2664
  %11 = trunc nuw i64 %_8 to i1, !dbg !2665
  br i1 %11, label %bb3, label %bb4, !dbg !2665

bb3:                                              ; preds = %bb2
  %12 = getelementptr inbounds i8, ptr %_6, i64 8, !dbg !2666
  %a = load i64, ptr %12, align 8, !dbg !2666
  store i64 %a, ptr %a.dbg.spill, align 8, !dbg !2666
    #dbg_declare(ptr %a.dbg.spill, !2611, !DIExpression(), !2666)
  %13 = getelementptr inbounds i8, ptr %_6, i64 8, !dbg !2667
  %14 = getelementptr inbounds i8, ptr %13, i64 8, !dbg !2667
  %b = load i64, ptr %14, align 8, !dbg !2667
  store i64 %b, ptr %b.dbg.spill, align 8, !dbg !2667
    #dbg_declare(ptr %b.dbg.spill, !2613, !DIExpression(), !2667)
  store i64 %a, ptr %i, align 8, !dbg !2668
  store i64 %b, ptr %j, align 8, !dbg !2669
  br label %bb5, !dbg !2670

bb4:                                              ; preds = %bb2
  br label %bb5, !dbg !2670

bb5:                                              ; preds = %bb4, %bb3
; invoke <core::str::pattern::CharPredicateSearcher<F> as core::str::pattern::ReverseSearcher>::next_reject_back
  invoke void @"_ZN106_$LT$core..str..pattern..CharPredicateSearcher$LT$F$GT$$u20$as$u20$core..str..pattern..ReverseSearcher$GT$16next_reject_back17h03a97a719e7b2e6eE"(ptr sret([24 x i8]) align 8 %_11, ptr align 8 %matcher)
          to label %bb6 unwind label %cleanup, !dbg !2671

bb6:                                              ; preds = %bb5
  %_13 = load i64, ptr %_11, align 8, !dbg !2672
  %15 = trunc nuw i64 %_13 to i1, !dbg !2673
  br i1 %15, label %bb7, label %bb8, !dbg !2673

bb7:                                              ; preds = %bb6
  %16 = getelementptr inbounds i8, ptr %_11, i64 8, !dbg !2674
  %17 = getelementptr inbounds i8, ptr %16, i64 8, !dbg !2674
  %b1 = load i64, ptr %17, align 8, !dbg !2674
  store i64 %b1, ptr %b.dbg.spill2, align 8, !dbg !2674
    #dbg_declare(ptr %b.dbg.spill2, !2614, !DIExpression(), !2674)
  store i64 %b1, ptr %j, align 8, !dbg !2675
  br label %bb9, !dbg !2676

bb8:                                              ; preds = %bb6
  br label %bb9, !dbg !2676

bb9:                                              ; preds = %bb8, %bb7
  %i3 = load i64, ptr %i, align 8, !dbg !2677
  store i64 %i3, ptr %i.dbg.spill, align 8, !dbg !2677
    #dbg_declare(ptr %i.dbg.spill, !2631, !DIExpression(DW_OP_LLVM_fragment, 0, 64), !2678)
    #dbg_declare(ptr %i.dbg.spill, !2644, !DIExpression(DW_OP_LLVM_fragment, 0, 64), !2679)
    #dbg_declare(ptr %i.dbg.spill, !2680, !DIExpression(), !2686)
  %i4 = load i64, ptr %j, align 8, !dbg !2688
  store i64 %i4, ptr %i.dbg.spill5, align 8, !dbg !2688
    #dbg_declare(ptr %i.dbg.spill5, !2631, !DIExpression(DW_OP_LLVM_fragment, 64, 64), !2678)
    #dbg_declare(ptr %i.dbg.spill5, !2644, !DIExpression(DW_OP_LLVM_fragment, 64, 64), !2679)
  store ptr %self.0, ptr %slice.dbg.spill, align 8, !dbg !2689
  %18 = getelementptr inbounds i8, ptr %slice.dbg.spill, i64 8, !dbg !2689
  store i64 %self.1, ptr %18, align 8, !dbg !2689
    #dbg_declare(ptr %slice.dbg.spill, !2645, !DIExpression(), !2690)
    #dbg_declare(ptr %slice.dbg.spill, !2691, !DIExpression(), !2697)
    #dbg_declare(ptr %slice.dbg.spill, !2699, !DIExpression(), !2702)
    #dbg_declare(ptr %slice.dbg.spill, !2704, !DIExpression(), !2709)
  br label %bb13, !dbg !2711

bb13:                                             ; preds = %bb9
; call core::str::traits::<impl core::slice::index::SliceIndex<str> for core::ops::range::Range<usize>>::get_unchecked::precondition_check
  call void @"_ZN4core3str6traits108_$LT$impl$u20$core..slice..index..SliceIndex$LT$str$GT$$u20$for$u20$core..ops..range..Range$LT$usize$GT$$GT$13get_unchecked18precondition_check17ha602aa823841a309E"(i64 %i3, i64 %i4, i64 %self.1, ptr align 8 @alloc_e8570cecfb86fbbd456e5d57dc897452) #14, !dbg !2713
  br label %bb15, !dbg !2714

bb15:                                             ; preds = %bb13
  %new_len = sub nuw i64 %i4, %i3, !dbg !2715
  store i64 %new_len, ptr %new_len.dbg.spill, align 8, !dbg !2715
    #dbg_declare(ptr %new_len.dbg.spill, !2651, !DIExpression(), !2716)
    #dbg_declare(ptr %new_len.dbg.spill, !2717, !DIExpression(), !2723)
  store ptr %self.0, ptr %self.dbg.spill6, align 8, !dbg !2725
    #dbg_declare(ptr %self.dbg.spill6, !2685, !DIExpression(), !2726)
  %data = getelementptr inbounds nuw i8, ptr %self.0, i64 %i3, !dbg !2727
  store ptr %data, ptr %data.dbg.spill, align 8, !dbg !2727
    #dbg_declare(ptr %data.dbg.spill, !2722, !DIExpression(), !2728)
    #dbg_declare(ptr %data.dbg.spill, !2729, !DIExpression(), !2734)
  %19 = insertvalue { ptr, i64 } poison, ptr %data, 0, !dbg !2736
  %20 = insertvalue { ptr, i64 } %19, i64 %new_len, 1, !dbg !2736
  ret { ptr, i64 } %20, !dbg !2736

bb16:                                             ; No predecessors!
  unreachable, !dbg !2663
}

; core::str::<impl str>::trim
; Function Attrs: inlinehint uwtable
define internal { ptr, i64 } @"_ZN4core3str21_$LT$impl$u20$str$GT$4trim17h7afb861789abf296E"(ptr align 1 %self.0, i64 %self.1) unnamed_addr #0 !dbg !2737 {
start:
  %self.dbg.spill = alloca [16 x i8], align 8
  store ptr %self.0, ptr %self.dbg.spill, align 8
  %0 = getelementptr inbounds i8, ptr %self.dbg.spill, i64 8
  store i64 %self.1, ptr %0, align 8
    #dbg_declare(ptr %self.dbg.spill, !2741, !DIExpression(), !2742)
; call core::str::<impl str>::trim_matches
  %1 = call { ptr, i64 } @"_ZN4core3str21_$LT$impl$u20$str$GT$12trim_matches17h73476240b77c8bfaE"(ptr align 1 %self.0, i64 %self.1), !dbg !2743
  %_0.0 = extractvalue { ptr, i64 } %1, 0, !dbg !2743
  %_0.1 = extractvalue { ptr, i64 } %1, 1, !dbg !2743
  %2 = insertvalue { ptr, i64 } poison, ptr %_0.0, 0, !dbg !2744
  %3 = insertvalue { ptr, i64 } %2, i64 %_0.1, 1, !dbg !2744
  ret { ptr, i64 } %3, !dbg !2744
}

; core::str::<impl str>::chars
; Function Attrs: inlinehint uwtable
define internal { ptr, ptr } @"_ZN4core3str21_$LT$impl$u20$str$GT$5chars17hbe2b81644cb3ce1dE"(ptr align 1 %self.0, i64 %self.1) unnamed_addr #0 !dbg !2745 {
start:
  %self.dbg.spill = alloca [16 x i8], align 8
  store ptr %self.0, ptr %self.dbg.spill, align 8
  %0 = getelementptr inbounds i8, ptr %self.dbg.spill, i64 8
  store i64 %self.1, ptr %0, align 8
    #dbg_declare(ptr %self.dbg.spill, !2749, !DIExpression(), !2750)
    #dbg_declare(ptr %self.dbg.spill, !2751, !DIExpression(), !2754)
  %_7 = getelementptr inbounds nuw i8, ptr %self.0, i64 %self.1, !dbg !2756
  %1 = insertvalue { ptr, ptr } poison, ptr %self.0, 0, !dbg !2769
  %2 = insertvalue { ptr, ptr } %1, ptr %_7, 1, !dbg !2769
  ret { ptr, ptr } %2, !dbg !2769
}

; core::str::<impl str>::parse
; Function Attrs: inlinehint uwtable
define internal { i1, i8 } @"_ZN4core3str21_$LT$impl$u20$str$GT$5parse17h4f6cc010a0e2e78fE"(ptr align 1 %self.0, i64 %self.1) unnamed_addr #0 !dbg !2770 {
start:
  %self.dbg.spill = alloca [16 x i8], align 8
  store ptr %self.0, ptr %self.dbg.spill, align 8
  %0 = getelementptr inbounds i8, ptr %self.dbg.spill, i64 8
  store i64 %self.1, ptr %0, align 8
    #dbg_declare(ptr %self.dbg.spill, !2772, !DIExpression(), !2775)
; call core::num::<impl core::str::traits::FromStr for i8>::from_str
  %1 = call { i1, i8 } @"_ZN4core3num59_$LT$impl$u20$core..str..traits..FromStr$u20$for$u20$i8$GT$8from_str17hcfd01236788dd62bE"(ptr align 1 %self.0, i64 %self.1), !dbg !2776
  %_0.0 = extractvalue { i1, i8 } %1, 0, !dbg !2776
  %_0.1 = extractvalue { i1, i8 } %1, 1, !dbg !2776
  %2 = insertvalue { i1, i8 } poison, i1 %_0.0, 0, !dbg !2777
  %3 = insertvalue { i1, i8 } %2, i8 %_0.1, 1, !dbg !2777
  ret { i1, i8 } %3, !dbg !2777
}

; core::str::traits::<impl core::slice::index::SliceIndex<str> for core::ops::range::Range<usize>>::get_unchecked::precondition_check
; Function Attrs: inlinehint nounwind uwtable
define internal void @"_ZN4core3str6traits108_$LT$impl$u20$core..slice..index..SliceIndex$LT$str$GT$$u20$for$u20$core..ops..range..Range$LT$usize$GT$$GT$13get_unchecked18precondition_check17ha602aa823841a309E"(i64 %start1, i64 %end, i64 %len, ptr align 8 %0) unnamed_addr #4 !dbg !2778 {
start:
  %pieces.dbg.spill = alloca [8 x i8], align 8
  %msg.dbg.spill = alloca [16 x i8], align 8
  %len.dbg.spill = alloca [8 x i8], align 8
  %end.dbg.spill = alloca [8 x i8], align 8
  %start.dbg.spill = alloca [8 x i8], align 8
  %_9 = alloca [16 x i8], align 8
  %_7 = alloca [48 x i8], align 8
  store i64 %start1, ptr %start.dbg.spill, align 8
    #dbg_declare(ptr %start.dbg.spill, !2783, !DIExpression(), !2788)
  store i64 %end, ptr %end.dbg.spill, align 8
    #dbg_declare(ptr %end.dbg.spill, !2784, !DIExpression(), !2788)
  store i64 %len, ptr %len.dbg.spill, align 8
    #dbg_declare(ptr %len.dbg.spill, !2785, !DIExpression(), !2788)
  store ptr @alloc_91f2a00ff2cd9cdc4bb205a66832e2bb, ptr %msg.dbg.spill, align 8, !dbg !2789
  %1 = getelementptr inbounds i8, ptr %msg.dbg.spill, i64 8, !dbg !2789
  store i64 219, ptr %1, align 8, !dbg !2789
    #dbg_declare(ptr %msg.dbg.spill, !2786, !DIExpression(), !2789)
  %_4 = icmp uge i64 %end, %start1, !dbg !2790
  br i1 %_4, label %bb1, label %bb3, !dbg !2790

bb3:                                              ; preds = %bb1, %start
  %2 = getelementptr inbounds nuw { ptr, i64 }, ptr %_9, i64 0, !dbg !2792
  store ptr @alloc_91f2a00ff2cd9cdc4bb205a66832e2bb, ptr %2, align 8, !dbg !2792
  %3 = getelementptr inbounds i8, ptr %2, i64 8, !dbg !2792
  store i64 219, ptr %3, align 8, !dbg !2792
  store ptr %_9, ptr %pieces.dbg.spill, align 8, !dbg !2793
    #dbg_declare(ptr %pieces.dbg.spill, !2794, !DIExpression(), !2797)
  store ptr %_9, ptr %_7, align 8, !dbg !2799
  %4 = getelementptr inbounds i8, ptr %_7, i64 8, !dbg !2799
  store i64 1, ptr %4, align 8, !dbg !2799
  %5 = load ptr, ptr @anon.53f16eec224c883228c428cfded7c828.1, align 8, !dbg !2799
  %6 = load i64, ptr getelementptr inbounds (i8, ptr @anon.53f16eec224c883228c428cfded7c828.1, i64 8), align 8, !dbg !2799
  %7 = getelementptr inbounds i8, ptr %_7, i64 32, !dbg !2799
  store ptr %5, ptr %7, align 8, !dbg !2799
  %8 = getelementptr inbounds i8, ptr %7, i64 8, !dbg !2799
  store i64 %6, ptr %8, align 8, !dbg !2799
  %9 = getelementptr inbounds i8, ptr %_7, i64 16, !dbg !2799
  store ptr inttoptr (i64 8 to ptr), ptr %9, align 8, !dbg !2799
  %10 = getelementptr inbounds i8, ptr %9, i64 8, !dbg !2799
  store i64 0, ptr %10, align 8, !dbg !2799
; call core::panicking::panic_nounwind_fmt
  call void @_ZN4core9panicking18panic_nounwind_fmt17h9825e2aa83719df7E(ptr align 8 %_7, i1 zeroext false, ptr align 8 %0) #16, !dbg !2800
  unreachable, !dbg !2800

bb1:                                              ; preds = %start
  %_5 = icmp ule i64 %end, %len, !dbg !2801
  br i1 %_5, label %bb2, label %bb3, !dbg !2801

bb2:                                              ; preds = %bb1
  ret void, !dbg !2802
}

; core::str::pattern::ReverseSearcher::next_reject_back
; Function Attrs: inlinehint uwtable
define internal void @_ZN4core3str7pattern15ReverseSearcher16next_reject_back17ha9eea31c29d51556E(ptr sret([24 x i8]) align 8 %_0, ptr align 8 %self) unnamed_addr #0 !dbg !2803 {
start:
  %b.dbg.spill = alloca [8 x i8], align 8
  %a.dbg.spill = alloca [8 x i8], align 8
  %self.dbg.spill = alloca [8 x i8], align 8
  %_2 = alloca [24 x i8], align 8
  store ptr %self, ptr %self.dbg.spill, align 8
    #dbg_declare(ptr %self.dbg.spill, !2808, !DIExpression(), !2814)
  br label %bb1, !dbg !2815

bb1:                                              ; preds = %bb5, %start
; call <core::str::pattern::MultiCharEqSearcher<C> as core::str::pattern::ReverseSearcher>::next_back
  call void @"_ZN104_$LT$core..str..pattern..MultiCharEqSearcher$LT$C$GT$$u20$as$u20$core..str..pattern..ReverseSearcher$GT$9next_back17hda08b978e75038c3E"(ptr sret([24 x i8]) align 8 %_2, ptr align 8 %self), !dbg !2816
  %_3 = load i64, ptr %_2, align 8, !dbg !2817
  switch i64 %_3, label %bb7 [
    i64 1, label %bb4
    i64 2, label %bb3
    i64 0, label %bb5
  ], !dbg !2818

bb7:                                              ; preds = %bb1
  unreachable, !dbg !2819

bb4:                                              ; preds = %bb1
  %0 = getelementptr inbounds i8, ptr %_2, i64 8, !dbg !2820
  %a = load i64, ptr %0, align 8, !dbg !2820
  store i64 %a, ptr %a.dbg.spill, align 8, !dbg !2820
    #dbg_declare(ptr %a.dbg.spill, !2809, !DIExpression(), !2821)
  %1 = getelementptr inbounds i8, ptr %_2, i64 16, !dbg !2822
  %b = load i64, ptr %1, align 8, !dbg !2822
  store i64 %b, ptr %b.dbg.spill, align 8, !dbg !2822
    #dbg_declare(ptr %b.dbg.spill, !2811, !DIExpression(), !2823)
  %2 = getelementptr inbounds i8, ptr %_0, i64 8, !dbg !2824
  store i64 %a, ptr %2, align 8, !dbg !2824
  %3 = getelementptr inbounds i8, ptr %2, i64 8, !dbg !2824
  store i64 %b, ptr %3, align 8, !dbg !2824
  store i64 1, ptr %_0, align 8, !dbg !2824
  br label %bb6, !dbg !2825

bb3:                                              ; preds = %bb1
  store i64 0, ptr %_0, align 8, !dbg !2827
  br label %bb6, !dbg !2828

bb5:                                              ; preds = %bb1
  br label %bb1, !dbg !2825

bb6:                                              ; preds = %bb3, %bb4
  ret void, !dbg !2829
}

; core::str::pattern::Searcher::next_reject
; Function Attrs: inlinehint uwtable
define internal void @_ZN4core3str7pattern8Searcher11next_reject17h34172ba3b22e1f2dE(ptr sret([24 x i8]) align 8 %_0, ptr align 8 %self) unnamed_addr #0 !dbg !2830 {
start:
  %b.dbg.spill = alloca [8 x i8], align 8
  %a.dbg.spill = alloca [8 x i8], align 8
  %self.dbg.spill = alloca [8 x i8], align 8
  %_2 = alloca [24 x i8], align 8
  store ptr %self, ptr %self.dbg.spill, align 8
    #dbg_declare(ptr %self.dbg.spill, !2833, !DIExpression(), !2837)
  br label %bb1, !dbg !2838

bb1:                                              ; preds = %bb5, %start
; call <core::str::pattern::MultiCharEqSearcher<C> as core::str::pattern::Searcher>::next
  call void @"_ZN97_$LT$core..str..pattern..MultiCharEqSearcher$LT$C$GT$$u20$as$u20$core..str..pattern..Searcher$GT$4next17h950e8cf708fe47d9E"(ptr sret([24 x i8]) align 8 %_2, ptr align 8 %self), !dbg !2839
  %_3 = load i64, ptr %_2, align 8, !dbg !2840
  switch i64 %_3, label %bb7 [
    i64 1, label %bb4
    i64 2, label %bb3
    i64 0, label %bb5
  ], !dbg !2841

bb7:                                              ; preds = %bb1
  unreachable, !dbg !2842

bb4:                                              ; preds = %bb1
  %0 = getelementptr inbounds i8, ptr %_2, i64 8, !dbg !2843
  %a = load i64, ptr %0, align 8, !dbg !2843
  store i64 %a, ptr %a.dbg.spill, align 8, !dbg !2843
    #dbg_declare(ptr %a.dbg.spill, !2834, !DIExpression(), !2844)
  %1 = getelementptr inbounds i8, ptr %_2, i64 16, !dbg !2845
  %b = load i64, ptr %1, align 8, !dbg !2845
  store i64 %b, ptr %b.dbg.spill, align 8, !dbg !2845
    #dbg_declare(ptr %b.dbg.spill, !2836, !DIExpression(), !2846)
  %2 = getelementptr inbounds i8, ptr %_0, i64 8, !dbg !2847
  store i64 %a, ptr %2, align 8, !dbg !2847
  %3 = getelementptr inbounds i8, ptr %2, i64 8, !dbg !2847
  store i64 %b, ptr %3, align 8, !dbg !2847
  store i64 1, ptr %_0, align 8, !dbg !2847
  br label %bb6, !dbg !2848

bb3:                                              ; preds = %bb1
  store i64 0, ptr %_0, align 8, !dbg !2850
  br label %bb6, !dbg !2851

bb5:                                              ; preds = %bb1
  br label %bb1, !dbg !2848

bb6:                                              ; preds = %bb3, %bb4
  ret void, !dbg !2852
}

; core::char::convert::from_u32_unchecked::precondition_check
; Function Attrs: inlinehint nounwind uwtable
define internal void @_ZN4core4char7convert18from_u32_unchecked18precondition_check17h9ff169789a399f00E(i32 %i, ptr align 8 %0) unnamed_addr #4 !dbg !2853 {
start:
  %pieces.dbg.spill = alloca [8 x i8], align 8
  %self.dbg.spill1 = alloca [8 x i8], align 8
  %self.dbg.spill = alloca [4 x i8], align 4
  %rhs.dbg.spill = alloca [4 x i8], align 4
  %msg.dbg.spill = alloca [16 x i8], align 8
  %i.dbg.spill = alloca [4 x i8], align 4
  %_7 = alloca [16 x i8], align 8
  %_5 = alloca [48 x i8], align 8
  %_3 = alloca [4 x i8], align 4
  store i32 %i, ptr %i.dbg.spill, align 4
    #dbg_declare(ptr %i.dbg.spill, !2858, !DIExpression(), !2861)
    #dbg_declare(ptr %i.dbg.spill, !2862, !DIExpression(), !2885)
  store ptr @alloc_4dc07e69e5d34e9d1484dfbbef0bb9b1, ptr %msg.dbg.spill, align 8, !dbg !2888
  %1 = getelementptr inbounds i8, ptr %msg.dbg.spill, i64 8, !dbg !2888
  store i64 174, ptr %1, align 8, !dbg !2888
    #dbg_declare(ptr %msg.dbg.spill, !2859, !DIExpression(), !2888)
  store i32 2048, ptr %rhs.dbg.spill, align 4, !dbg !2889
    #dbg_declare(ptr %rhs.dbg.spill, !2897, !DIExpression(), !2889)
  %self = xor i32 %i, 55296, !dbg !2899
  store i32 %self, ptr %self.dbg.spill, align 4, !dbg !2899
    #dbg_declare(ptr %self.dbg.spill, !2896, !DIExpression(), !2900)
  %_9 = sub i32 %self, 2048, !dbg !2901
  %_8 = icmp uge i32 %_9, 1112064, !dbg !2899
  br i1 %_8, label %bb3, label %bb4, !dbg !2899

bb4:                                              ; preds = %start
  store i32 %i, ptr %_3, align 4, !dbg !2902
  br label %bb5, !dbg !2903

bb3:                                              ; preds = %start
  store i32 1114112, ptr %_3, align 4, !dbg !2904
  br label %bb5, !dbg !2903

bb5:                                              ; preds = %bb3, %bb4
  store ptr %_3, ptr %self.dbg.spill1, align 8, !dbg !2886
    #dbg_declare(ptr %self.dbg.spill1, !2905, !DIExpression(), !2913)
  %2 = load i32, ptr %_3, align 4, !dbg !2915
  %3 = icmp eq i32 %2, 1114112, !dbg !2915
  %_12 = select i1 %3, i64 1, i64 0, !dbg !2915
  %4 = icmp eq i64 %_12, 0, !dbg !2886
  br i1 %4, label %bb1, label %bb2, !dbg !2886

bb1:                                              ; preds = %bb5
  ret void, !dbg !2916

bb2:                                              ; preds = %bb5
  %5 = getelementptr inbounds nuw { ptr, i64 }, ptr %_7, i64 0, !dbg !2917
  store ptr @alloc_4dc07e69e5d34e9d1484dfbbef0bb9b1, ptr %5, align 8, !dbg !2917
  %6 = getelementptr inbounds i8, ptr %5, i64 8, !dbg !2917
  store i64 174, ptr %6, align 8, !dbg !2917
  store ptr %_7, ptr %pieces.dbg.spill, align 8, !dbg !2918
    #dbg_declare(ptr %pieces.dbg.spill, !2919, !DIExpression(), !2922)
  store ptr %_7, ptr %_5, align 8, !dbg !2924
  %7 = getelementptr inbounds i8, ptr %_5, i64 8, !dbg !2924
  store i64 1, ptr %7, align 8, !dbg !2924
  %8 = load ptr, ptr @anon.53f16eec224c883228c428cfded7c828.1, align 8, !dbg !2924
  %9 = load i64, ptr getelementptr inbounds (i8, ptr @anon.53f16eec224c883228c428cfded7c828.1, i64 8), align 8, !dbg !2924
  %10 = getelementptr inbounds i8, ptr %_5, i64 32, !dbg !2924
  store ptr %8, ptr %10, align 8, !dbg !2924
  %11 = getelementptr inbounds i8, ptr %10, i64 8, !dbg !2924
  store i64 %9, ptr %11, align 8, !dbg !2924
  %12 = getelementptr inbounds i8, ptr %_5, i64 16, !dbg !2924
  store ptr inttoptr (i64 8 to ptr), ptr %12, align 8, !dbg !2924
  %13 = getelementptr inbounds i8, ptr %12, i64 8, !dbg !2924
  store i64 0, ptr %13, align 8, !dbg !2924
; call core::panicking::panic_nounwind_fmt
  call void @_ZN4core9panicking18panic_nounwind_fmt17h9825e2aa83719df7E(ptr align 8 %_5, i1 zeroext false, ptr align 8 %0) #16, !dbg !2925
  unreachable, !dbg !2925
}

; core::char::methods::<impl char>::is_whitespace
; Function Attrs: inlinehint uwtable
define internal zeroext i1 @"_ZN4core4char7methods22_$LT$impl$u20$char$GT$13is_whitespace17h6dd64746b029838bE"(i32 %self) unnamed_addr #0 !dbg !2926 {
start:
  %self.dbg.spill = alloca [4 x i8], align 4
  %_0 = alloca [1 x i8], align 1
  store i32 %self, ptr %self.dbg.spill, align 4
    #dbg_declare(ptr %self.dbg.spill, !2928, !DIExpression(), !2931)
    #dbg_declare(ptr %self.dbg.spill, !2929, !DIExpression(), !2932)
  %0 = icmp eq i32 %self, 32, !dbg !2933
  br i1 %0, label %bb4, label %bb2, !dbg !2933

bb4:                                              ; preds = %bb3, %start
  store i8 1, ptr %_0, align 1, !dbg !2934
  br label %bb8, !dbg !2934

bb2:                                              ; preds = %start
  %_2 = icmp ule i32 9, %self, !dbg !2935
  br i1 %_2, label %bb3, label %bb1, !dbg !2935

bb1:                                              ; preds = %bb3, %bb2
  %_4 = icmp ugt i32 %self, 127, !dbg !2936
  br i1 %_4, label %bb5, label %bb6, !dbg !2936

bb3:                                              ; preds = %bb2
  %_3 = icmp ule i32 %self, 13, !dbg !2935
  br i1 %_3, label %bb4, label %bb1, !dbg !2935

bb6:                                              ; preds = %bb1
  store i8 0, ptr %_0, align 1, !dbg !2936
  br label %bb7, !dbg !2936

bb5:                                              ; preds = %bb1
; call core::unicode::unicode_data::white_space::lookup
  %1 = call zeroext i1 @_ZN4core7unicode12unicode_data11white_space6lookup17he28332f63bf269b1E(i32 %self), !dbg !2937
  %2 = zext i1 %1 to i8, !dbg !2937
  store i8 %2, ptr %_0, align 1, !dbg !2937
  br label %bb7, !dbg !2937

bb7:                                              ; preds = %bb5, %bb6
  br label %bb8, !dbg !2938

bb8:                                              ; preds = %bb4, %bb7
  %3 = load i8, ptr %_0, align 1, !dbg !2939
  %4 = trunc nuw i8 %3 to i1, !dbg !2939
  ret i1 %4, !dbg !2939
}

; core::char::methods::<impl char>::to_digit
; Function Attrs: inlinehint uwtable
define internal { i32, i32 } @"_ZN4core4char7methods22_$LT$impl$u20$char$GT$8to_digit17h35aa0528be96dcd9E"(i32 %self, i32 %radix) unnamed_addr #0 !dbg !2940 {
start:
  %self.dbg.spill3 = alloca [4 x i8], align 4
  %self.dbg.spill2 = alloca [4 x i8], align 4
  %rhs.dbg.spill1 = alloca [4 x i8], align 4
  %rhs.dbg.spill = alloca [4 x i8], align 4
  %pieces.dbg.spill = alloca [8 x i8], align 8
  %radix.dbg.spill = alloca [4 x i8], align 4
  %self.dbg.spill = alloca [4 x i8], align 4
  %value = alloca [4 x i8], align 4
  %_6 = alloca [48 x i8], align 8
  %_0 = alloca [8 x i8], align 4
  store i32 %self, ptr %self.dbg.spill, align 4
    #dbg_declare(ptr %self.dbg.spill, !2944, !DIExpression(), !2948)
  store i32 %radix, ptr %radix.dbg.spill, align 4
    #dbg_declare(ptr %radix.dbg.spill, !2945, !DIExpression(), !2949)
    #dbg_declare(ptr %value, !2946, !DIExpression(), !2950)
  store ptr @alloc_708eb9f2492b697e0d761b647be5d46c, ptr %pieces.dbg.spill, align 8, !dbg !2951
    #dbg_declare(ptr %pieces.dbg.spill, !2954, !DIExpression(), !2951)
  store i32 65, ptr %rhs.dbg.spill, align 4, !dbg !2956
    #dbg_declare(ptr %rhs.dbg.spill, !2960, !DIExpression(), !2956)
  store i32 48, ptr %rhs.dbg.spill1, align 4, !dbg !2962
    #dbg_declare(ptr %rhs.dbg.spill1, !2960, !DIExpression(), !2962)
  %_3 = icmp uge i32 %radix, 2, !dbg !2964
  br i1 %_3, label %bb1, label %bb3, !dbg !2964

bb3:                                              ; preds = %bb1, %start
  store ptr @alloc_708eb9f2492b697e0d761b647be5d46c, ptr %_6, align 8, !dbg !2965
  %0 = getelementptr inbounds i8, ptr %_6, i64 8, !dbg !2965
  store i64 1, ptr %0, align 8, !dbg !2965
  %1 = load ptr, ptr @anon.53f16eec224c883228c428cfded7c828.1, align 8, !dbg !2965
  %2 = load i64, ptr getelementptr inbounds (i8, ptr @anon.53f16eec224c883228c428cfded7c828.1, i64 8), align 8, !dbg !2965
  %3 = getelementptr inbounds i8, ptr %_6, i64 32, !dbg !2965
  store ptr %1, ptr %3, align 8, !dbg !2965
  %4 = getelementptr inbounds i8, ptr %3, i64 8, !dbg !2965
  store i64 %2, ptr %4, align 8, !dbg !2965
  %5 = getelementptr inbounds i8, ptr %_6, i64 16, !dbg !2965
  store ptr inttoptr (i64 8 to ptr), ptr %5, align 8, !dbg !2965
  %6 = getelementptr inbounds i8, ptr %5, i64 8, !dbg !2965
  store i64 0, ptr %6, align 8, !dbg !2965
; call core::panicking::panic_fmt
  call void @_ZN4core9panicking9panic_fmt17h477ff48eff31ffa4E(ptr align 8 %_6, ptr align 8 @alloc_2b5d5bf234d2a0bc8869f694d29cb0be) #15, !dbg !2955
  unreachable, !dbg !2955

bb1:                                              ; preds = %start
  %_4 = icmp ule i32 %radix, 36, !dbg !2966
  br i1 %_4, label %bb2, label %bb3, !dbg !2966

bb2:                                              ; preds = %bb1
  %_8 = icmp ugt i32 %self, 57, !dbg !2967
  br i1 %_8, label %bb4, label %bb6, !dbg !2967

bb6:                                              ; preds = %bb4, %bb2
  store i32 %self, ptr %self.dbg.spill2, align 4, !dbg !2968
    #dbg_declare(ptr %self.dbg.spill2, !2959, !DIExpression(), !2969)
  %7 = sub i32 %self, 48, !dbg !2970
  store i32 %7, ptr %value, align 4, !dbg !2970
  br label %bb7, !dbg !2971

bb4:                                              ; preds = %bb2
  %_9 = icmp ugt i32 %radix, 10, !dbg !2972
  br i1 %_9, label %bb5, label %bb6, !dbg !2972

bb5:                                              ; preds = %bb4
  store i32 %self, ptr %self.dbg.spill3, align 4, !dbg !2973
    #dbg_declare(ptr %self.dbg.spill3, !2959, !DIExpression(), !2974)
  %_11 = sub i32 %self, 65, !dbg !2975
  %_10 = and i32 %_11, -33, !dbg !2976
  %8 = add i32 %_10, 10, !dbg !2976
  store i32 %8, ptr %value, align 4, !dbg !2976
  br label %bb7, !dbg !2971

bb7:                                              ; preds = %bb5, %bb6
  %_15 = load i32, ptr %value, align 4, !dbg !2977
  %_14 = icmp ult i32 %_15, %radix, !dbg !2977
  br i1 %_14, label %bb8, label %bb9, !dbg !2977

bb9:                                              ; preds = %bb7
  %9 = load i32, ptr @anon.53f16eec224c883228c428cfded7c828.3, align 4, !dbg !2978
  %10 = load i32, ptr getelementptr inbounds (i8, ptr @anon.53f16eec224c883228c428cfded7c828.3, i64 4), align 4, !dbg !2978
  store i32 %9, ptr %_0, align 4, !dbg !2978
  %11 = getelementptr inbounds i8, ptr %_0, i64 4, !dbg !2978
  store i32 %10, ptr %11, align 4, !dbg !2978
  br label %bb10, !dbg !2979

bb8:                                              ; preds = %bb7
  %_16 = load i32, ptr %value, align 4, !dbg !2980
  %12 = getelementptr inbounds i8, ptr %_0, i64 4, !dbg !2981
  store i32 %_16, ptr %12, align 4, !dbg !2981
  store i32 1, ptr %_0, align 4, !dbg !2981
  br label %bb10, !dbg !2979

bb10:                                             ; preds = %bb8, %bb9
  %13 = load i32, ptr %_0, align 4, !dbg !2982
  %14 = getelementptr inbounds i8, ptr %_0, i64 4, !dbg !2982
  %15 = load i32, ptr %14, align 4, !dbg !2982
  %16 = insertvalue { i32, i32 } poison, i32 %13, 0, !dbg !2982
  %17 = insertvalue { i32, i32 } %16, i32 %15, 1, !dbg !2982
  ret { i32, i32 } %17, !dbg !2982
}

; core::hint::unreachable_unchecked::precondition_check
; Function Attrs: inlinehint nounwind uwtable
define internal void @_ZN4core4hint21unreachable_unchecked18precondition_check17h5a9e083451ad6e8eE(ptr align 8 %0) unnamed_addr #4 !dbg !2983 {
start:
  %pieces.dbg.spill = alloca [8 x i8], align 8
  %msg.dbg.spill = alloca [16 x i8], align 8
  %_4 = alloca [16 x i8], align 8
  %_2 = alloca [48 x i8], align 8
  store ptr @alloc_75fb06c2453febd814e73f5f2e72ae38, ptr %msg.dbg.spill, align 8, !dbg !2988
  %1 = getelementptr inbounds i8, ptr %msg.dbg.spill, i64 8, !dbg !2988
  store i64 199, ptr %1, align 8, !dbg !2988
    #dbg_declare(ptr %msg.dbg.spill, !2986, !DIExpression(), !2988)
  %2 = getelementptr inbounds nuw { ptr, i64 }, ptr %_4, i64 0, !dbg !2989
  store ptr @alloc_75fb06c2453febd814e73f5f2e72ae38, ptr %2, align 8, !dbg !2989
  %3 = getelementptr inbounds i8, ptr %2, i64 8, !dbg !2989
  store i64 199, ptr %3, align 8, !dbg !2989
  store ptr %_4, ptr %pieces.dbg.spill, align 8, !dbg !2990
    #dbg_declare(ptr %pieces.dbg.spill, !2991, !DIExpression(), !2994)
  store ptr %_4, ptr %_2, align 8, !dbg !2996
  %4 = getelementptr inbounds i8, ptr %_2, i64 8, !dbg !2996
  store i64 1, ptr %4, align 8, !dbg !2996
  %5 = load ptr, ptr @anon.53f16eec224c883228c428cfded7c828.1, align 8, !dbg !2996
  %6 = load i64, ptr getelementptr inbounds (i8, ptr @anon.53f16eec224c883228c428cfded7c828.1, i64 8), align 8, !dbg !2996
  %7 = getelementptr inbounds i8, ptr %_2, i64 32, !dbg !2996
  store ptr %5, ptr %7, align 8, !dbg !2996
  %8 = getelementptr inbounds i8, ptr %7, i64 8, !dbg !2996
  store i64 %6, ptr %8, align 8, !dbg !2996
  %9 = getelementptr inbounds i8, ptr %_2, i64 16, !dbg !2996
  store ptr inttoptr (i64 8 to ptr), ptr %9, align 8, !dbg !2996
  %10 = getelementptr inbounds i8, ptr %9, i64 8, !dbg !2996
  store i64 0, ptr %10, align 8, !dbg !2996
; call core::panicking::panic_nounwind_fmt
  call void @_ZN4core9panicking18panic_nounwind_fmt17h9825e2aa83719df7E(ptr align 8 %_2, i1 zeroext false, ptr align 8 %0) #16, !dbg !2997
  unreachable, !dbg !2997
}

; core::alloc::layout::Layout::from_size_align_unchecked::precondition_check
; Function Attrs: inlinehint nounwind uwtable
define internal void @_ZN4core5alloc6layout6Layout25from_size_align_unchecked18precondition_check17h5a6cc8f6e893372bE(i64 %size, i64 %align, ptr align 8 %0) unnamed_addr #4 personality ptr @rust_eh_personality !dbg !2998 {
start:
  %pieces.dbg.spill = alloca [8 x i8], align 8
  %msg.dbg.spill = alloca [16 x i8], align 8
  %align.dbg.spill = alloca [8 x i8], align 8
  %size.dbg.spill = alloca [8 x i8], align 8
  %_7 = alloca [16 x i8], align 8
  %_5 = alloca [48 x i8], align 8
  store i64 %size, ptr %size.dbg.spill, align 8
    #dbg_declare(ptr %size.dbg.spill, !3006, !DIExpression(), !3010)
  store i64 %align, ptr %align.dbg.spill, align 8
    #dbg_declare(ptr %align.dbg.spill, !3007, !DIExpression(), !3010)
  store ptr @alloc_1be5ea12ba708d9a11b6e93a7d387a75, ptr %msg.dbg.spill, align 8, !dbg !3011
  %1 = getelementptr inbounds i8, ptr %msg.dbg.spill, i64 8, !dbg !3011
  store i64 281, ptr %1, align 8, !dbg !3011
    #dbg_declare(ptr %msg.dbg.spill, !3008, !DIExpression(), !3011)
; invoke core::alloc::layout::Layout::is_size_align_valid
  %_3 = invoke zeroext i1 @_ZN4core5alloc6layout6Layout19is_size_align_valid17h0906d6515b34e52cE(i64 %size, i64 %align)
          to label %bb1 unwind label %terminate, !dbg !3012

terminate:                                        ; preds = %start
  %2 = landingpad { ptr, i32 }
          filter [0 x ptr] zeroinitializer
; call core::panicking::panic_cannot_unwind
  call void @_ZN4core9panicking19panic_cannot_unwind17ha4e3ecab6cb0371cE() #18, !dbg !3015
  unreachable, !dbg !3015

bb1:                                              ; preds = %start
  br i1 %_3, label %bb2, label %bb3, !dbg !3012

bb3:                                              ; preds = %bb1
  %3 = getelementptr inbounds nuw { ptr, i64 }, ptr %_7, i64 0, !dbg !3016
  store ptr @alloc_1be5ea12ba708d9a11b6e93a7d387a75, ptr %3, align 8, !dbg !3016
  %4 = getelementptr inbounds i8, ptr %3, i64 8, !dbg !3016
  store i64 281, ptr %4, align 8, !dbg !3016
  store ptr %_7, ptr %pieces.dbg.spill, align 8, !dbg !3017
    #dbg_declare(ptr %pieces.dbg.spill, !3018, !DIExpression(), !3021)
  store ptr %_7, ptr %_5, align 8, !dbg !3023
  %5 = getelementptr inbounds i8, ptr %_5, i64 8, !dbg !3023
  store i64 1, ptr %5, align 8, !dbg !3023
  %6 = load ptr, ptr @anon.53f16eec224c883228c428cfded7c828.1, align 8, !dbg !3023
  %7 = load i64, ptr getelementptr inbounds (i8, ptr @anon.53f16eec224c883228c428cfded7c828.1, i64 8), align 8, !dbg !3023
  %8 = getelementptr inbounds i8, ptr %_5, i64 32, !dbg !3023
  store ptr %6, ptr %8, align 8, !dbg !3023
  %9 = getelementptr inbounds i8, ptr %8, i64 8, !dbg !3023
  store i64 %7, ptr %9, align 8, !dbg !3023
  %10 = getelementptr inbounds i8, ptr %_5, i64 16, !dbg !3023
  store ptr inttoptr (i64 8 to ptr), ptr %10, align 8, !dbg !3023
  %11 = getelementptr inbounds i8, ptr %10, i64 8, !dbg !3023
  store i64 0, ptr %11, align 8, !dbg !3023
; call core::panicking::panic_nounwind_fmt
  call void @_ZN4core9panicking18panic_nounwind_fmt17h9825e2aa83719df7E(ptr align 8 %_5, i1 zeroext false, ptr align 8 %0) #16, !dbg !3024
  unreachable, !dbg !3024

bb2:                                              ; preds = %bb1
  ret void, !dbg !3025
}

; core::slice::raw::from_raw_parts::precondition_check
; Function Attrs: inlinehint nounwind uwtable
define internal void @_ZN4core5slice3raw14from_raw_parts18precondition_check17hfda6d83edd11e2a3E(ptr %data, i64 %size, i64 %align, i64 %len, ptr align 8 %0) unnamed_addr #4 personality ptr @rust_eh_personality !dbg !3026 {
start:
  %pieces.dbg.spill1 = alloca [8 x i8], align 8
  %1 = alloca [4 x i8], align 4
  %ptr.dbg.spill = alloca [8 x i8], align 8
  %pieces.dbg.spill = alloca [8 x i8], align 8
  %is_zst.dbg.spill = alloca [1 x i8], align 1
  %msg.dbg.spill = alloca [16 x i8], align 8
  %len.dbg.spill = alloca [8 x i8], align 8
  %align.dbg.spill = alloca [8 x i8], align 8
  %size.dbg.spill = alloca [8 x i8], align 8
  %data.dbg.spill = alloca [8 x i8], align 8
  %max_len = alloca [8 x i8], align 8
  %_14 = alloca [48 x i8], align 8
  %_11 = alloca [16 x i8], align 8
  %_9 = alloca [48 x i8], align 8
  store ptr %data, ptr %data.dbg.spill, align 8
    #dbg_declare(ptr %data.dbg.spill, !3032, !DIExpression(), !3038)
  store i64 %size, ptr %size.dbg.spill, align 8
    #dbg_declare(ptr %size.dbg.spill, !3033, !DIExpression(), !3038)
    #dbg_declare(ptr %size.dbg.spill, !3039, !DIExpression(), !3048)
  store i64 %align, ptr %align.dbg.spill, align 8
    #dbg_declare(ptr %align.dbg.spill, !3034, !DIExpression(), !3038)
    #dbg_declare(ptr %align.dbg.spill, !3052, !DIExpression(), !3059)
    #dbg_declare(ptr %align.dbg.spill, !3061, !DIExpression(), !3067)
    #dbg_declare(ptr %align.dbg.spill, !3069, !DIExpression(), !3074)
    #dbg_declare(ptr %align.dbg.spill, !3077, !DIExpression(), !3081)
    #dbg_declare(ptr %align.dbg.spill, !3084, !DIExpression(), !3090)
    #dbg_declare(ptr %align.dbg.spill, !3092, !DIExpression(), !3097)
  store i64 %len, ptr %len.dbg.spill, align 8
    #dbg_declare(ptr %len.dbg.spill, !3035, !DIExpression(), !3038)
    #dbg_declare(ptr %len.dbg.spill, !3045, !DIExpression(), !3099)
    #dbg_declare(ptr %max_len, !3046, !DIExpression(), !3100)
  store ptr @alloc_a28e8c8fd5088943a8b5d44af697ff83, ptr %msg.dbg.spill, align 8, !dbg !3101
  %2 = getelementptr inbounds i8, ptr %msg.dbg.spill, i64 8, !dbg !3101
  store i64 279, ptr %2, align 8, !dbg !3101
    #dbg_declare(ptr %msg.dbg.spill, !3036, !DIExpression(), !3101)
  store i8 0, ptr %is_zst.dbg.spill, align 1, !dbg !3102
    #dbg_declare(ptr %is_zst.dbg.spill, !3058, !DIExpression(), !3102)
  store ptr @alloc_e92e94d0ff530782b571cfd99ec66aef, ptr %pieces.dbg.spill, align 8, !dbg !3103
    #dbg_declare(ptr %pieces.dbg.spill, !3106, !DIExpression(), !3103)
  store ptr %data, ptr %ptr.dbg.spill, align 8, !dbg !3109
    #dbg_declare(ptr %ptr.dbg.spill, !3057, !DIExpression(), !3110)
    #dbg_declare(ptr %ptr.dbg.spill, !3066, !DIExpression(), !3111)
    #dbg_declare(ptr %ptr.dbg.spill, !3073, !DIExpression(), !3074)
    #dbg_declare(ptr %ptr.dbg.spill, !3080, !DIExpression(), !3112)
    #dbg_declare(ptr %ptr.dbg.spill, !3113, !DIExpression(), !3118)
    #dbg_declare(ptr %ptr.dbg.spill, !3120, !DIExpression(), !3126)
    #dbg_declare(ptr %ptr.dbg.spill, !3128, !DIExpression(), !3131)
  %3 = call i64 @llvm.ctpop.i64(i64 %align), !dbg !3133
  %4 = trunc i64 %3 to i32, !dbg !3133
  store i32 %4, ptr %1, align 4, !dbg !3133
  %_18 = load i32, ptr %1, align 4, !dbg !3133
  %5 = icmp eq i32 %_18, 1, !dbg !3134
  br i1 %5, label %bb8, label %bb9, !dbg !3134

bb8:                                              ; preds = %start
  %_16 = ptrtoint ptr %data to i64, !dbg !3135
  %_17 = sub i64 %align, 1, !dbg !3136
  %_15 = and i64 %_16, %_17, !dbg !3137
  %6 = icmp eq i64 %_15, 0, !dbg !3068
  br i1 %6, label %bb6, label %bb7, !dbg !3068

bb9:                                              ; preds = %start
  store ptr @alloc_e92e94d0ff530782b571cfd99ec66aef, ptr %_14, align 8, !dbg !3138
  %7 = getelementptr inbounds i8, ptr %_14, i64 8, !dbg !3138
  store i64 1, ptr %7, align 8, !dbg !3138
  %8 = load ptr, ptr @anon.53f16eec224c883228c428cfded7c828.1, align 8, !dbg !3138
  %9 = load i64, ptr getelementptr inbounds (i8, ptr @anon.53f16eec224c883228c428cfded7c828.1, i64 8), align 8, !dbg !3138
  %10 = getelementptr inbounds i8, ptr %_14, i64 32, !dbg !3138
  store ptr %8, ptr %10, align 8, !dbg !3138
  %11 = getelementptr inbounds i8, ptr %10, i64 8, !dbg !3138
  store i64 %9, ptr %11, align 8, !dbg !3138
  %12 = getelementptr inbounds i8, ptr %_14, i64 16, !dbg !3138
  store ptr inttoptr (i64 8 to ptr), ptr %12, align 8, !dbg !3138
  %13 = getelementptr inbounds i8, ptr %12, i64 8, !dbg !3138
  store i64 0, ptr %13, align 8, !dbg !3138
; invoke core::panicking::panic_fmt
  invoke void @_ZN4core9panicking9panic_fmt17h477ff48eff31ffa4E(ptr align 8 %_14, ptr align 8 @alloc_863114602ff53edf107e51a9c9035fa2) #15
          to label %unreachable unwind label %terminate, !dbg !3108

bb6:                                              ; preds = %bb8
  %_12 = icmp eq i64 %_16, 0, !dbg !3139
  %_5 = xor i1 %_12, true, !dbg !3145
  br i1 %_5, label %bb1, label %bb4, !dbg !3060

bb7:                                              ; preds = %bb8
  br label %bb4, !dbg !3060

bb4:                                              ; preds = %bb7, %bb6
  br label %bb5, !dbg !3146

bb1:                                              ; preds = %bb6
  %_22 = icmp eq i64 %size, 0, !dbg !3148
  %14 = icmp eq i64 %size, 0, !dbg !3148
  br i1 %14, label %bb11, label %bb12, !dbg !3148

bb11:                                             ; preds = %bb1
  store i64 -1, ptr %max_len, align 8, !dbg !3149
  br label %bb14, !dbg !3150

bb12:                                             ; preds = %bb1
  br i1 %_22, label %panic, label %bb13, !dbg !3151

bb14:                                             ; preds = %bb13, %bb11
  %_23 = load i64, ptr %max_len, align 8, !dbg !3152
  %_7 = icmp ule i64 %len, %_23, !dbg !3153
  br i1 %_7, label %bb2, label %bb3, !dbg !3049

bb13:                                             ; preds = %bb12
  %15 = udiv i64 9223372036854775807, %size, !dbg !3151
  store i64 %15, ptr %max_len, align 8, !dbg !3151
  br label %bb14, !dbg !3150

panic:                                            ; preds = %bb12
; invoke core::panicking::panic_const::panic_const_div_by_zero
  invoke void @_ZN4core9panicking11panic_const23panic_const_div_by_zero17hbfd106e67d83d7baE(ptr align 8 @alloc_c546c23a9ba92cfed6659b88891d1475) #15
          to label %unreachable unwind label %terminate, !dbg !3151

terminate:                                        ; preds = %bb9, %panic
  %16 = landingpad { ptr, i32 }
          filter [0 x ptr] zeroinitializer
; call core::panicking::panic_cannot_unwind
  call void @_ZN4core9panicking19panic_cannot_unwind17ha4e3ecab6cb0371cE() #18, !dbg !3154
  unreachable, !dbg !3154

unreachable:                                      ; preds = %bb9, %panic
  unreachable

bb3:                                              ; preds = %bb14
  br label %bb5, !dbg !3146

bb2:                                              ; preds = %bb14
  ret void, !dbg !3155

bb5:                                              ; preds = %bb4, %bb3
  %17 = getelementptr inbounds nuw { ptr, i64 }, ptr %_11, i64 0, !dbg !3156
  store ptr @alloc_a28e8c8fd5088943a8b5d44af697ff83, ptr %17, align 8, !dbg !3156
  %18 = getelementptr inbounds i8, ptr %17, i64 8, !dbg !3156
  store i64 279, ptr %18, align 8, !dbg !3156
  store ptr %_11, ptr %pieces.dbg.spill1, align 8, !dbg !3157
    #dbg_declare(ptr %pieces.dbg.spill1, !3107, !DIExpression(), !3158)
  store ptr %_11, ptr %_9, align 8, !dbg !3160
  %19 = getelementptr inbounds i8, ptr %_9, i64 8, !dbg !3160
  store i64 1, ptr %19, align 8, !dbg !3160
  %20 = load ptr, ptr @anon.53f16eec224c883228c428cfded7c828.1, align 8, !dbg !3160
  %21 = load i64, ptr getelementptr inbounds (i8, ptr @anon.53f16eec224c883228c428cfded7c828.1, i64 8), align 8, !dbg !3160
  %22 = getelementptr inbounds i8, ptr %_9, i64 32, !dbg !3160
  store ptr %20, ptr %22, align 8, !dbg !3160
  %23 = getelementptr inbounds i8, ptr %22, i64 8, !dbg !3160
  store i64 %21, ptr %23, align 8, !dbg !3160
  %24 = getelementptr inbounds i8, ptr %_9, i64 16, !dbg !3160
  store ptr inttoptr (i64 8 to ptr), ptr %24, align 8, !dbg !3160
  %25 = getelementptr inbounds i8, ptr %24, i64 8, !dbg !3160
  store i64 0, ptr %25, align 8, !dbg !3160
; call core::panicking::panic_nounwind_fmt
  call void @_ZN4core9panicking18panic_nounwind_fmt17h9825e2aa83719df7E(ptr align 8 %_9, i1 zeroext false, ptr align 8 %0) #16, !dbg !3161
  unreachable, !dbg !3161
}

; core::result::Result<T,E>::expect
; Function Attrs: inlinehint uwtable
define internal i64 @"_ZN4core6result19Result$LT$T$C$E$GT$6expect17h48b547e238bfdb1bE"(i64 %0, ptr %1, ptr align 1 %msg.0, i64 %msg.1, ptr align 8 %2) unnamed_addr #0 personality ptr @rust_eh_personality !dbg !3162 {
start:
  %3 = alloca [16 x i8], align 8
  %t.dbg.spill = alloca [8 x i8], align 8
  %msg.dbg.spill = alloca [16 x i8], align 8
  %e = alloca [8 x i8], align 8
  %self = alloca [16 x i8], align 8
  store i64 %0, ptr %self, align 8
  %4 = getelementptr inbounds i8, ptr %self, i64 8
  store ptr %1, ptr %4, align 8
    #dbg_declare(ptr %self, !3183, !DIExpression(), !3189)
  store ptr %msg.0, ptr %msg.dbg.spill, align 8
  %5 = getelementptr inbounds i8, ptr %msg.dbg.spill, i64 8
  store i64 %msg.1, ptr %5, align 8
    #dbg_declare(ptr %msg.dbg.spill, !3184, !DIExpression(), !3190)
    #dbg_declare(ptr %e, !3187, !DIExpression(), !3191)
  %_3 = load i64, ptr %self, align 8, !dbg !3192
  %6 = getelementptr inbounds i8, ptr %self, i64 8, !dbg !3192
  %7 = load ptr, ptr %6, align 8, !dbg !3192
  %8 = trunc nuw i64 %_3 to i1, !dbg !3193
  br i1 %8, label %bb2, label %bb3, !dbg !3193

bb2:                                              ; preds = %start
  %9 = getelementptr inbounds i8, ptr %self, i64 8, !dbg !3194
  %10 = load ptr, ptr %9, align 8, !dbg !3194
  store ptr %10, ptr %e, align 8, !dbg !3194
; invoke core::result::unwrap_failed
  invoke void @_ZN4core6result13unwrap_failed17h61c3c2f1df5908ffE(ptr align 1 %msg.0, i64 %msg.1, ptr align 1 %e, ptr align 8 @vtable.1, ptr align 8 %2) #15
          to label %unreachable unwind label %cleanup, !dbg !3195

bb3:                                              ; preds = %start
  %11 = getelementptr inbounds i8, ptr %self, i64 8, !dbg !3196
  %t = load i64, ptr %11, align 8, !dbg !3196
  store i64 %t, ptr %t.dbg.spill, align 8, !dbg !3196
    #dbg_declare(ptr %t.dbg.spill, !3185, !DIExpression(), !3197)
  ret i64 %t, !dbg !3198

bb4:                                              ; preds = %cleanup
; invoke core::ptr::drop_in_place<std::io::error::Error>
  invoke void @"_ZN4core3ptr42drop_in_place$LT$std..io..error..Error$GT$17h633266d8559608f2E"(ptr align 8 %e) #17
          to label %bb5 unwind label %terminate, !dbg !3199

cleanup:                                          ; preds = %bb2
  %12 = landingpad { ptr, i32 }
          cleanup
  %13 = extractvalue { ptr, i32 } %12, 0
  %14 = extractvalue { ptr, i32 } %12, 1
  store ptr %13, ptr %3, align 8
  %15 = getelementptr inbounds i8, ptr %3, i64 8
  store i32 %14, ptr %15, align 8
  br label %bb4

unreachable:                                      ; preds = %bb2
  unreachable

terminate:                                        ; preds = %bb4
  %16 = landingpad { ptr, i32 }
          filter [0 x ptr] zeroinitializer
; call core::panicking::panic_in_cleanup
  call void @_ZN4core9panicking16panic_in_cleanup17h957d6ed6f32c031dE() #18, !dbg !3200
  unreachable, !dbg !3200

bb5:                                              ; preds = %bb4
  %17 = load ptr, ptr %3, align 8, !dbg !3200
  %18 = getelementptr inbounds i8, ptr %3, i64 8, !dbg !3200
  %19 = load i32, ptr %18, align 8, !dbg !3200
  %20 = insertvalue { ptr, i32 } poison, ptr %17, 0, !dbg !3200
  %21 = insertvalue { ptr, i32 } %20, i32 %19, 1, !dbg !3200
  resume { ptr, i32 } %21, !dbg !3200

bb1:                                              ; No predecessors!
  unreachable, !dbg !3192
}

; core::unicode::unicode_data::white_space::lookup
; Function Attrs: inlinehint uwtable
define internal zeroext i1 @_ZN4core7unicode12unicode_data11white_space6lookup17he28332f63bf269b1E(i32 %c) unnamed_addr #0 !dbg !3201 {
start:
  %c.dbg.spill = alloca [4 x i8], align 4
  %_0 = alloca [1 x i8], align 1
  store i32 %c, ptr %c.dbg.spill, align 4
    #dbg_declare(ptr %c.dbg.spill, !3207, !DIExpression(), !3208)
  %_2 = lshr i32 %c, 8, !dbg !3209
  switch i32 %_2, label %bb1 [
    i32 0, label %bb5
    i32 22, label %bb4
    i32 32, label %bb3
    i32 48, label %bb2
  ], !dbg !3210

bb1:                                              ; preds = %start
  store i8 0, ptr %_0, align 1, !dbg !3211
  br label %bb8, !dbg !3211

bb5:                                              ; preds = %start
  %_8 = zext i32 %c to i64, !dbg !3212
  %_7 = and i64 %_8, 255, !dbg !3212
  %_9 = icmp ult i64 %_7, 256, !dbg !3213
  br i1 %_9, label %bb6, label %panic, !dbg !3213

bb4:                                              ; preds = %start
  %0 = icmp eq i32 %c, 5760, !dbg !3214
  %1 = zext i1 %0 to i8, !dbg !3214
  store i8 %1, ptr %_0, align 1, !dbg !3214
  br label %bb8, !dbg !3215

bb3:                                              ; preds = %start
  %_14 = zext i32 %c to i64, !dbg !3216
  %_13 = and i64 %_14, 255, !dbg !3216
  %_15 = icmp ult i64 %_13, 256, !dbg !3217
  br i1 %_15, label %bb7, label %panic1, !dbg !3217

bb2:                                              ; preds = %start
  %2 = icmp eq i32 %c, 12288, !dbg !3218
  %3 = zext i1 %2 to i8, !dbg !3218
  store i8 %3, ptr %_0, align 1, !dbg !3218
  br label %bb8, !dbg !3219

bb6:                                              ; preds = %bb5
  %4 = getelementptr inbounds nuw i8, ptr @_ZN4core7unicode12unicode_data11white_space14WHITESPACE_MAP17h43e66ed630d2090cE, i64 %_7, !dbg !3213
  %_5 = load i8, ptr %4, align 1, !dbg !3213
  %_4 = and i8 %_5, 1, !dbg !3213
  %5 = icmp ne i8 %_4, 0, !dbg !3213
  %6 = zext i1 %5 to i8, !dbg !3213
  store i8 %6, ptr %_0, align 1, !dbg !3213
  br label %bb8, !dbg !3220

panic:                                            ; preds = %bb5
; call core::panicking::panic_bounds_check
  call void @_ZN4core9panicking18panic_bounds_check17h0b28316d3be9e695E(i64 %_7, i64 256, ptr align 8 @alloc_22ebefee4fc041da99009613d5bd0d3e) #15, !dbg !3213
  unreachable, !dbg !3213

bb8:                                              ; preds = %bb1, %bb2, %bb7, %bb4, %bb6
  %7 = load i8, ptr %_0, align 1, !dbg !3221
  %8 = trunc nuw i8 %7 to i1, !dbg !3221
  ret i1 %8, !dbg !3221

bb7:                                              ; preds = %bb3
  %9 = getelementptr inbounds nuw i8, ptr @_ZN4core7unicode12unicode_data11white_space14WHITESPACE_MAP17h43e66ed630d2090cE, i64 %_13, !dbg !3217
  %_11 = load i8, ptr %9, align 1, !dbg !3217
  %_10 = and i8 %_11, 2, !dbg !3217
  %10 = icmp ne i8 %_10, 0, !dbg !3217
  %11 = zext i1 %10 to i8, !dbg !3217
  store i8 %11, ptr %_0, align 1, !dbg !3217
  br label %bb8, !dbg !3222

panic1:                                           ; preds = %bb3
; call core::panicking::panic_bounds_check
  call void @_ZN4core9panicking18panic_bounds_check17h0b28316d3be9e695E(i64 %_13, i64 256, ptr align 8 @alloc_edf41c7cec8c6693bbe35c0ff2ce4689) #15, !dbg !3217
  unreachable, !dbg !3217
}

; <F as core::str::pattern::MultiCharEq>::matches
; Function Attrs: inlinehint uwtable
define internal zeroext i1 @"_ZN53_$LT$F$u20$as$u20$core..str..pattern..MultiCharEq$GT$7matches17hab4a2eac2cd6a4b1E"(ptr align 1 %self, i32 %c) unnamed_addr #0 !dbg !3223 {
start:
  %c.dbg.spill = alloca [4 x i8], align 4
  %self.dbg.spill = alloca [8 x i8], align 8
  store ptr %self, ptr %self.dbg.spill, align 8
    #dbg_declare(ptr %self.dbg.spill, !3226, !DIExpression(), !3228)
  store i32 %c, ptr %c.dbg.spill, align 4
    #dbg_declare(ptr %c.dbg.spill, !3227, !DIExpression(), !3229)
; call core::ops::function::FnMut::call_mut
  %_0 = call zeroext i1 @_ZN4core3ops8function5FnMut8call_mut17hbbdaa1ac01cd84f7E(ptr align 1 %self, i32 %c), !dbg !3230
  ret i1 %_0, !dbg !3231
}

; <() as std::process::Termination>::report
; Function Attrs: inlinehint uwtable
define internal i8 @"_ZN54_$LT$$LP$$RP$$u20$as$u20$std..process..Termination$GT$6report17hdff07968b15f5192E"() unnamed_addr #0 !dbg !3232 {
start:
  %_1.dbg.spill = alloca [0 x i8], align 1
    #dbg_declare(ptr %_1.dbg.spill, !3237, !DIExpression(), !3238)
  ret i8 0, !dbg !3239
}

; alloc::string::String::new
; Function Attrs: inlinehint uwtable
define internal void @_ZN5alloc6string6String3new17hf54dab5cd7478af2E(ptr sret([24 x i8]) align 8 %_0) unnamed_addr #0 !dbg !3240 {
start:
  %_1 = alloca [24 x i8], align 8
  store i64 0, ptr %_1, align 8, !dbg !3245
  %0 = getelementptr inbounds i8, ptr %_1, i64 8, !dbg !3245
  store ptr inttoptr (i64 1 to ptr), ptr %0, align 8, !dbg !3245
  %1 = getelementptr inbounds i8, ptr %_1, i64 16, !dbg !3245
  store i64 0, ptr %1, align 8, !dbg !3245
  call void @llvm.memcpy.p0.p0.i64(ptr align 8 %_0, ptr align 8 %_1, i64 24, i1 false), !dbg !3252
  ret void, !dbg !3253
}

; alloc::string::String::as_str
; Function Attrs: inlinehint uwtable
define internal { ptr, i64 } @_ZN5alloc6string6String6as_str17h0f5aa183e73b651cE(ptr align 8 %self) unnamed_addr #0 !dbg !3254 {
start:
  %v.dbg.spill = alloca [16 x i8], align 8
  %len.dbg.spill = alloca [8 x i8], align 8
  %data.dbg.spill = alloca [8 x i8], align 8
  %self.dbg.spill1 = alloca [8 x i8], align 8
  %self.dbg.spill = alloca [8 x i8], align 8
  store ptr %self, ptr %self.dbg.spill, align 8
    #dbg_declare(ptr %self.dbg.spill, !3260, !DIExpression(), !3261)
  store ptr %self, ptr %self.dbg.spill1, align 8, !dbg !3262
    #dbg_declare(ptr %self.dbg.spill1, !3263, !DIExpression(), !3270)
    #dbg_declare(ptr %self.dbg.spill1, !3272, !DIExpression(), !3278)
  %0 = getelementptr inbounds i8, ptr %self, i64 8, !dbg !3280
  %_6 = load ptr, ptr %0, align 8, !dbg !3280
  store ptr %_6, ptr %data.dbg.spill, align 8, !dbg !3300
    #dbg_declare(ptr %data.dbg.spill, !3301, !DIExpression(), !3307)
    #dbg_declare(ptr %data.dbg.spill, !3309, !DIExpression(), !3313)
    #dbg_declare(ptr %data.dbg.spill, !3315, !DIExpression(), !3318)
  %1 = getelementptr inbounds i8, ptr %self, i64 16, !dbg !3320
  %len = load i64, ptr %1, align 8, !dbg !3320
  store i64 %len, ptr %len.dbg.spill, align 8, !dbg !3320
    #dbg_declare(ptr %len.dbg.spill, !3306, !DIExpression(), !3321)
    #dbg_declare(ptr %len.dbg.spill, !3312, !DIExpression(), !3322)
  br label %bb1, !dbg !3323

bb1:                                              ; preds = %start
; call core::slice::raw::from_raw_parts::precondition_check
  call void @_ZN4core5slice3raw14from_raw_parts18precondition_check17hfda6d83edd11e2a3E(ptr %_6, i64 1, i64 1, i64 %len, ptr align 8 @alloc_40c560344f81f2dece7a8bb81f255148) #14, !dbg !3325
  br label %bb3, !dbg !3326

bb3:                                              ; preds = %bb1
  store ptr %_6, ptr %v.dbg.spill, align 8, !dbg !3327
  %2 = getelementptr inbounds i8, ptr %v.dbg.spill, i64 8, !dbg !3327
  store i64 %len, ptr %2, align 8, !dbg !3327
    #dbg_declare(ptr %v.dbg.spill, !3328, !DIExpression(), !3335)
  %3 = insertvalue { ptr, i64 } poison, ptr %_6, 0, !dbg !3337
  %4 = insertvalue { ptr, i64 } %3, i64 %len, 1, !dbg !3337
  ret { ptr, i64 } %4, !dbg !3337
}

; <alloc::alloc::Global as core::alloc::Allocator>::deallocate
; Function Attrs: inlinehint uwtable
define internal void @"_ZN63_$LT$alloc..alloc..Global$u20$as$u20$core..alloc..Allocator$GT$10deallocate17h57ee0904f9533c57E"(ptr align 1 %self, ptr %ptr, i64 %0, i64 %1) unnamed_addr #0 !dbg !3338 {
start:
  %self.dbg.spill5 = alloca [8 x i8], align 8
  %self.dbg.spill4 = alloca [8 x i8], align 8
  %ptr.dbg.spill3 = alloca [8 x i8], align 8
  %self.dbg.spill2 = alloca [8 x i8], align 8
  %ptr.dbg.spill = alloca [8 x i8], align 8
  %self.dbg.spill = alloca [8 x i8], align 8
  %layout1 = alloca [16 x i8], align 8
  %layout = alloca [16 x i8], align 8
  store i64 %0, ptr %layout, align 8
  %2 = getelementptr inbounds i8, ptr %layout, i64 8
  store i64 %1, ptr %2, align 8
  store ptr %self, ptr %self.dbg.spill, align 8
    #dbg_declare(ptr %self.dbg.spill, !3352, !DIExpression(), !3355)
  store ptr %ptr, ptr %ptr.dbg.spill, align 8
    #dbg_declare(ptr %ptr.dbg.spill, !3353, !DIExpression(), !3356)
    #dbg_declare(ptr %ptr.dbg.spill, !3357, !DIExpression(), !3360)
    #dbg_declare(ptr %layout, !3354, !DIExpression(), !3362)
    #dbg_declare(ptr %layout1, !3363, !DIExpression(), !3369)
  store ptr %layout, ptr %self.dbg.spill2, align 8, !dbg !3371
    #dbg_declare(ptr %self.dbg.spill2, !3372, !DIExpression(), !3379)
  %3 = getelementptr inbounds i8, ptr %layout, i64 8, !dbg !3381
  %_4 = load i64, ptr %3, align 8, !dbg !3381
  %4 = icmp eq i64 %_4, 0, !dbg !3371
  br i1 %4, label %bb2, label %bb1, !dbg !3371

bb2:                                              ; preds = %bb1, %start
  ret void, !dbg !3382

bb1:                                              ; preds = %start
  store ptr %ptr, ptr %ptr.dbg.spill3, align 8, !dbg !3383
    #dbg_declare(ptr %ptr.dbg.spill3, !3368, !DIExpression(), !3384)
  %5 = load i64, ptr %layout, align 8, !dbg !3385
  %6 = getelementptr inbounds i8, ptr %layout, i64 8, !dbg !3385
  %7 = load i64, ptr %6, align 8, !dbg !3385
  store i64 %5, ptr %layout1, align 8, !dbg !3385
  %8 = getelementptr inbounds i8, ptr %layout1, i64 8, !dbg !3385
  store i64 %7, ptr %8, align 8, !dbg !3385
  store ptr %layout1, ptr %self.dbg.spill4, align 8, !dbg !3386
    #dbg_declare(ptr %self.dbg.spill4, !3372, !DIExpression(), !3387)
  store ptr %layout1, ptr %self.dbg.spill5, align 8, !dbg !3389
    #dbg_declare(ptr %self.dbg.spill5, !3390, !DIExpression(), !3394)
  %_12 = load i64, ptr %layout, align 8, !dbg !3396
; call __rustc::__rust_dealloc
  call void @_RNvCsj4CZ6flxxfE_7___rustc14___rust_dealloc(ptr %ptr, i64 %_4, i64 %_12) #14, !dbg !3397
  br label %bb2, !dbg !3398
}

; <alloc::string::String as core::ops::deref::Deref>::deref
; Function Attrs: inlinehint uwtable
define internal { ptr, i64 } @"_ZN65_$LT$alloc..string..String$u20$as$u20$core..ops..deref..Deref$GT$5deref17h94b789fc78e17bccE"(ptr align 8 %self) unnamed_addr #0 !dbg !3399 {
start:
  %self.dbg.spill = alloca [8 x i8], align 8
  store ptr %self, ptr %self.dbg.spill, align 8
    #dbg_declare(ptr %self.dbg.spill, !3402, !DIExpression(), !3403)
; call alloc::string::String::as_str
  %0 = call { ptr, i64 } @_ZN5alloc6string6String6as_str17h0f5aa183e73b651cE(ptr align 8 %self), !dbg !3404
  %_0.0 = extractvalue { ptr, i64 } %0, 0, !dbg !3404
  %_0.1 = extractvalue { ptr, i64 } %0, 1, !dbg !3404
  %1 = insertvalue { ptr, i64 } poison, ptr %_0.0, 0, !dbg !3405
  %2 = insertvalue { ptr, i64 } %1, i64 %_0.1, 1, !dbg !3405
  ret { ptr, i64 } %2, !dbg !3405
}

; <alloc::boxed::Box<T,A> as core::ops::drop::Drop>::drop
; Function Attrs: inlinehint uwtable
define internal void @"_ZN72_$LT$alloc..boxed..Box$LT$T$C$A$GT$$u20$as$u20$core..ops..drop..Drop$GT$4drop17h7960516cb6750bd2E"(ptr align 8 %self) unnamed_addr #0 !dbg !3406 {
start:
  %unique.dbg.spill = alloca [8 x i8], align 8
  %self.dbg.spill1 = alloca [8 x i8], align 8
  %align.dbg.spill = alloca [8 x i8], align 8
  %0 = alloca [8 x i8], align 8
  %size.dbg.spill = alloca [8 x i8], align 8
  %1 = alloca [8 x i8], align 8
  %t.dbg.spill = alloca [16 x i8], align 8
  %ptr.dbg.spill = alloca [16 x i8], align 8
  %self.dbg.spill = alloca [8 x i8], align 8
  %layout = alloca [16 x i8], align 8
  store ptr %self, ptr %self.dbg.spill, align 8
    #dbg_declare(ptr %self.dbg.spill, !3414, !DIExpression(), !3432)
    #dbg_declare(ptr %layout, !3429, !DIExpression(), !3433)
  %ptr.0 = load ptr, ptr %self, align 8, !dbg !3434
  %2 = getelementptr inbounds i8, ptr %self, i64 8, !dbg !3434
  %ptr.1 = load ptr, ptr %2, align 8, !dbg !3434
  store ptr %ptr.0, ptr %ptr.dbg.spill, align 8, !dbg !3434
  %3 = getelementptr inbounds i8, ptr %ptr.dbg.spill, i64 8, !dbg !3434
  store ptr %ptr.1, ptr %3, align 8, !dbg !3434
    #dbg_declare(ptr %ptr.dbg.spill, !3415, !DIExpression(), !3435)
    #dbg_declare(ptr %ptr.dbg.spill, !3436, !DIExpression(), !3443)
    #dbg_declare(ptr %ptr.dbg.spill, !3445, !DIExpression(), !3452)
  store ptr %ptr.0, ptr %t.dbg.spill, align 8, !dbg !3454
  %4 = getelementptr inbounds i8, ptr %t.dbg.spill, i64 8, !dbg !3454
  store ptr %ptr.1, ptr %4, align 8, !dbg !3454
    #dbg_declare(ptr %t.dbg.spill, !3455, !DIExpression(), !3464)
    #dbg_declare(ptr %t.dbg.spill, !3466, !DIExpression(), !3471)
    #dbg_declare(ptr %t.dbg.spill, !3473, !DIExpression(), !3476)
  %5 = getelementptr inbounds i8, ptr %ptr.1, i64 8, !dbg !3478
  %6 = load i64, ptr %5, align 8, !dbg !3478, !invariant.load !23
  %7 = getelementptr inbounds i8, ptr %ptr.1, i64 16, !dbg !3478
  %8 = load i64, ptr %7, align 8, !dbg !3478, !invariant.load !23
  store i64 %6, ptr %1, align 8, !dbg !3478
  %size = load i64, ptr %1, align 8, !dbg !3478
  store i64 %size, ptr %size.dbg.spill, align 8, !dbg !3478
    #dbg_declare(ptr %size.dbg.spill, !3461, !DIExpression(), !3479)
    #dbg_declare(ptr %size.dbg.spill, !3480, !DIExpression(), !3487)
  %9 = getelementptr inbounds i8, ptr %ptr.1, i64 8, !dbg !3489
  %10 = load i64, ptr %9, align 8, !dbg !3489, !invariant.load !23
  %11 = getelementptr inbounds i8, ptr %ptr.1, i64 16, !dbg !3489
  %12 = load i64, ptr %11, align 8, !dbg !3489, !invariant.load !23
  store i64 %12, ptr %0, align 8, !dbg !3489
  %align = load i64, ptr %0, align 8, !dbg !3489
  store i64 %align, ptr %align.dbg.spill, align 8, !dbg !3489
    #dbg_declare(ptr %align.dbg.spill, !3463, !DIExpression(), !3490)
    #dbg_declare(ptr %align.dbg.spill, !3486, !DIExpression(), !3491)
  br label %bb6, !dbg !3492

bb6:                                              ; preds = %start
; call core::alloc::layout::Layout::from_size_align_unchecked::precondition_check
  call void @_ZN4core5alloc6layout6Layout25from_size_align_unchecked18precondition_check17h5a6cc8f6e893372bE(i64 %size, i64 %align, ptr align 8 @alloc_094e93743ac0ceab7dadd432fb3bc99a) #14, !dbg !3494
  br label %bb7, !dbg !3494

bb7:                                              ; preds = %bb6
  %13 = getelementptr inbounds i8, ptr %layout, i64 8, !dbg !3495
  store i64 %size, ptr %13, align 8, !dbg !3495
  store i64 %align, ptr %layout, align 8, !dbg !3495
  store ptr %layout, ptr %self.dbg.spill1, align 8, !dbg !3496
    #dbg_declare(ptr %self.dbg.spill1, !3497, !DIExpression(), !3500)
  %14 = icmp eq i64 %size, 0, !dbg !3496
  br i1 %14, label %bb3, label %bb1, !dbg !3496

bb3:                                              ; preds = %bb1, %bb7
  ret void, !dbg !3502

bb1:                                              ; preds = %bb7
  %_7 = getelementptr inbounds i8, ptr %self, i64 16, !dbg !3503
  store ptr %ptr.0, ptr %unique.dbg.spill, align 8, !dbg !3504
    #dbg_declare(ptr %unique.dbg.spill, !3510, !DIExpression(), !3516)
  %15 = load i64, ptr %layout, align 8, !dbg !3503
  %16 = getelementptr inbounds i8, ptr %layout, i64 8, !dbg !3503
  %17 = load i64, ptr %16, align 8, !dbg !3503
; call <alloc::alloc::Global as core::alloc::Allocator>::deallocate
  call void @"_ZN63_$LT$alloc..alloc..Global$u20$as$u20$core..alloc..Allocator$GT$10deallocate17h57ee0904f9533c57E"(ptr align 1 %_7, ptr %ptr.0, i64 %15, i64 %17), !dbg !3518
  br label %bb3, !dbg !3519
}

; <alloc::boxed::Box<T,A> as core::ops::drop::Drop>::drop
; Function Attrs: inlinehint uwtable
define internal void @"_ZN72_$LT$alloc..boxed..Box$LT$T$C$A$GT$$u20$as$u20$core..ops..drop..Drop$GT$4drop17hb4fc0ca980864fc7E"(ptr align 8 %self) unnamed_addr #0 !dbg !3520 {
start:
  %unique.dbg.spill = alloca [8 x i8], align 8
  %self.dbg.spill1 = alloca [8 x i8], align 8
  %align.dbg.spill = alloca [8 x i8], align 8
  %0 = alloca [8 x i8], align 8
  %size.dbg.spill = alloca [8 x i8], align 8
  %1 = alloca [8 x i8], align 8
  %t.dbg.spill = alloca [8 x i8], align 8
  %ptr.dbg.spill = alloca [8 x i8], align 8
  %self.dbg.spill = alloca [8 x i8], align 8
  %layout = alloca [16 x i8], align 8
  store ptr %self, ptr %self.dbg.spill, align 8
    #dbg_declare(ptr %self.dbg.spill, !3525, !DIExpression(), !3540)
    #dbg_declare(ptr %layout, !3537, !DIExpression(), !3541)
  %ptr = load ptr, ptr %self, align 8, !dbg !3542
  store ptr %ptr, ptr %ptr.dbg.spill, align 8, !dbg !3542
    #dbg_declare(ptr %ptr.dbg.spill, !3526, !DIExpression(), !3543)
    #dbg_declare(ptr %ptr.dbg.spill, !3544, !DIExpression(), !3550)
    #dbg_declare(ptr %ptr.dbg.spill, !3552, !DIExpression(), !3559)
  store ptr %ptr, ptr %t.dbg.spill, align 8, !dbg !3561
    #dbg_declare(ptr %t.dbg.spill, !3562, !DIExpression(), !3571)
    #dbg_declare(ptr %t.dbg.spill, !3573, !DIExpression(), !3578)
    #dbg_declare(ptr %t.dbg.spill, !3580, !DIExpression(), !3583)
  store i64 24, ptr %1, align 8, !dbg !3585
  %size = load i64, ptr %1, align 8, !dbg !3585
  store i64 %size, ptr %size.dbg.spill, align 8, !dbg !3585
    #dbg_declare(ptr %size.dbg.spill, !3568, !DIExpression(), !3586)
    #dbg_declare(ptr %size.dbg.spill, !3587, !DIExpression(), !3591)
  store i64 8, ptr %0, align 8, !dbg !3593
  %align = load i64, ptr %0, align 8, !dbg !3593
  store i64 %align, ptr %align.dbg.spill, align 8, !dbg !3593
    #dbg_declare(ptr %align.dbg.spill, !3570, !DIExpression(), !3594)
    #dbg_declare(ptr %align.dbg.spill, !3590, !DIExpression(), !3595)
  br label %bb6, !dbg !3596

bb6:                                              ; preds = %start
; call core::alloc::layout::Layout::from_size_align_unchecked::precondition_check
  call void @_ZN4core5alloc6layout6Layout25from_size_align_unchecked18precondition_check17h5a6cc8f6e893372bE(i64 %size, i64 %align, ptr align 8 @alloc_094e93743ac0ceab7dadd432fb3bc99a) #14, !dbg !3598
  br label %bb7, !dbg !3598

bb7:                                              ; preds = %bb6
  %2 = getelementptr inbounds i8, ptr %layout, i64 8, !dbg !3599
  store i64 %size, ptr %2, align 8, !dbg !3599
  store i64 %align, ptr %layout, align 8, !dbg !3599
  store ptr %layout, ptr %self.dbg.spill1, align 8, !dbg !3600
    #dbg_declare(ptr %self.dbg.spill1, !3601, !DIExpression(), !3604)
  %3 = icmp eq i64 %size, 0, !dbg !3600
  br i1 %3, label %bb3, label %bb1, !dbg !3600

bb3:                                              ; preds = %bb1, %bb7
  ret void, !dbg !3606

bb1:                                              ; preds = %bb7
  %_7 = getelementptr inbounds i8, ptr %self, i64 8, !dbg !3607
  store ptr %ptr, ptr %unique.dbg.spill, align 8, !dbg !3608
    #dbg_declare(ptr %unique.dbg.spill, !3614, !DIExpression(), !3617)
  %4 = load i64, ptr %layout, align 8, !dbg !3607
  %5 = getelementptr inbounds i8, ptr %layout, i64 8, !dbg !3607
  %6 = load i64, ptr %5, align 8, !dbg !3607
; call <alloc::alloc::Global as core::alloc::Allocator>::deallocate
  call void @"_ZN63_$LT$alloc..alloc..Global$u20$as$u20$core..alloc..Allocator$GT$10deallocate17h57ee0904f9533c57E"(ptr align 1 %_7, ptr %ptr, i64 %4, i64 %6), !dbg !3619
  br label %bb3, !dbg !3620
}

; <std::io::error::repr_bitpacked::Repr as core::ops::drop::Drop>::drop
; Function Attrs: inlinehint uwtable
define internal void @"_ZN78_$LT$std..io..error..repr_bitpacked..Repr$u20$as$u20$core..ops..drop..Drop$GT$4drop17h2e72cc1a566588caE"(ptr align 8 %self) unnamed_addr #0 !dbg !3621 {
start:
  %self.dbg.spill = alloca [8 x i8], align 8
  %_2 = alloca [16 x i8], align 8
  store ptr %self, ptr %self.dbg.spill, align 8
    #dbg_declare(ptr %self.dbg.spill, !3626, !DIExpression(), !3627)
  %_3 = load ptr, ptr %self, align 8, !dbg !3628
; call std::io::error::repr_bitpacked::decode_repr
  call void @_ZN3std2io5error14repr_bitpacked11decode_repr17h2ee2e66c0c611753E(ptr sret([16 x i8]) align 8 %_2, ptr %_3), !dbg !3629
; call core::ptr::drop_in_place<std::io::error::ErrorData<alloc::boxed::Box<std::io::error::Custom>>>
  call void @"_ZN4core3ptr101drop_in_place$LT$std..io..error..ErrorData$LT$alloc..boxed..Box$LT$std..io..error..Custom$GT$$GT$$GT$17hd9c124322ec7efc1E"(ptr align 8 %_2), !dbg !3630
  ret void, !dbg !3631
}

; <std::io::error::repr_bitpacked::Repr as core::ops::drop::Drop>::drop::{{closure}}
; Function Attrs: inlinehint uwtable
define internal align 8 ptr @"_ZN78_$LT$std..io..error..repr_bitpacked..Repr$u20$as$u20$core..ops..drop..Drop$GT$4drop28_$u7b$$u7b$closure$u7d$$u7d$17hd45a90c9ff447499E"(ptr %p) unnamed_addr #0 !dbg !3632 {
start:
  %alloc.dbg.spill = alloca [0 x i8], align 1
  %p.dbg.spill = alloca [8 x i8], align 8
  %_1.dbg.spill = alloca [0 x i8], align 1
    #dbg_declare(ptr %_1.dbg.spill, !3637, !DIExpression(), !3638)
  store ptr %p, ptr %p.dbg.spill, align 8
    #dbg_declare(ptr %p.dbg.spill, !3636, !DIExpression(), !3639)
    #dbg_declare(ptr %p.dbg.spill, !3640, !DIExpression(), !3646)
    #dbg_declare(ptr %p.dbg.spill, !3648, !DIExpression(), !3655)
    #dbg_declare(ptr %p.dbg.spill, !3657, !DIExpression(), !3663)
    #dbg_declare(ptr %p.dbg.spill, !3665, !DIExpression(), !3671)
    #dbg_declare(ptr %alloc.dbg.spill, !3654, !DIExpression(), !3673)
  br label %bb1, !dbg !3674

bb1:                                              ; preds = %start
; call core::ptr::non_null::NonNull<T>::new_unchecked::precondition_check
  call void @"_ZN4core3ptr8non_null16NonNull$LT$T$GT$13new_unchecked18precondition_check17h5b1ea590b18a81d0E"(ptr %p, ptr align 8 @alloc_bc704b58ff50e4ee5adaad05a93e255b) #14, !dbg !3676
  br label %bb3, !dbg !3677

bb3:                                              ; preds = %bb1
  ret ptr %p, !dbg !3678
}

; <core::str::iter::CharIndices as core::iter::traits::iterator::Iterator>::next
; Function Attrs: inlinehint uwtable
define internal { i64, i32 } @"_ZN87_$LT$core..str..iter..CharIndices$u20$as$u20$core..iter..traits..iterator..Iterator$GT$4next17h273f670f3ec441b2E"(ptr align 8 %self) unnamed_addr #0 !dbg !3679 {
start:
  %len.dbg.spill = alloca [8 x i8], align 8
  %end.dbg.spill5 = alloca [8 x i8], align 8
  %self.dbg.spill4 = alloca [8 x i8], align 8
  %index.dbg.spill = alloca [8 x i8], align 8
  %ch.dbg.spill = alloca [4 x i8], align 4
  %x.dbg.spill = alloca [4 x i8], align 4
  %self.dbg.spill3 = alloca [8 x i8], align 8
  %pre_len.dbg.spill = alloca [8 x i8], align 8
  %end.dbg.spill = alloca [8 x i8], align 8
  %self.dbg.spill2 = alloca [8 x i8], align 8
  %f.dbg.spill = alloca [0 x i8], align 1
  %self.dbg.spill = alloca [8 x i8], align 8
  %self1 = alloca [8 x i8], align 4
  %_4 = alloca [4 x i8], align 4
  %_0 = alloca [16 x i8], align 8
  store ptr %self, ptr %self.dbg.spill, align 8
    #dbg_declare(ptr %self.dbg.spill, !3682, !DIExpression(), !3691)
    #dbg_declare(ptr %self1, !3692, !DIExpression(), !3706)
    #dbg_declare(ptr %f.dbg.spill, !3703, !DIExpression(), !3712)
  store ptr %self, ptr %self.dbg.spill2, align 8, !dbg !3713
    #dbg_declare(ptr %self.dbg.spill2, !3714, !DIExpression(), !3725)
  %0 = getelementptr inbounds i8, ptr %self, i64 8, !dbg !3727
  %_15 = load ptr, ptr %0, align 8, !dbg !3727
  store ptr %_15, ptr %end.dbg.spill, align 8, !dbg !3728
    #dbg_declare(ptr %end.dbg.spill, !3719, !DIExpression(), !3729)
  %_16 = load ptr, ptr %self, align 8, !dbg !3730
; call core::ptr::non_null::NonNull<T>::offset_from_unsigned
  %pre_len = call i64 @"_ZN4core3ptr8non_null16NonNull$LT$T$GT$20offset_from_unsigned17h75b4dbd3e4f7c47bE"(ptr %_15, ptr %_16), !dbg !3731
  store i64 %pre_len, ptr %pre_len.dbg.spill, align 8, !dbg !3731
    #dbg_declare(ptr %pre_len.dbg.spill, !3683, !DIExpression(), !3732)
  store ptr %self, ptr %self.dbg.spill3, align 8, !dbg !3733
    #dbg_declare(ptr %self.dbg.spill3, !3710, !DIExpression(), !3734)
; call core::str::validations::next_code_point
  %1 = call { i32, i32 } @_ZN4core3str11validations15next_code_point17h1e264ca60ec248f3E(ptr align 8 %self), !dbg !3735
  %2 = extractvalue { i32, i32 } %1, 0, !dbg !3735
  %3 = extractvalue { i32, i32 } %1, 1, !dbg !3735
  store i32 %2, ptr %self1, align 4, !dbg !3735
  %4 = getelementptr inbounds i8, ptr %self1, i64 4, !dbg !3735
  store i32 %3, ptr %4, align 4, !dbg !3735
  %5 = load i32, ptr %self1, align 4, !dbg !3736
  %6 = getelementptr inbounds i8, ptr %self1, i64 4, !dbg !3736
  %7 = load i32, ptr %6, align 4, !dbg !3736
  %_19 = zext i32 %5 to i64, !dbg !3736
  %8 = trunc nuw i64 %_19 to i1, !dbg !3737
  br i1 %8, label %bb6, label %bb5, !dbg !3737

bb6:                                              ; preds = %start
  %9 = getelementptr inbounds i8, ptr %self1, i64 4, !dbg !3738
  %x = load i32, ptr %9, align 4, !dbg !3738
  store i32 %x, ptr %x.dbg.spill, align 4, !dbg !3738
    #dbg_declare(ptr %x.dbg.spill, !3704, !DIExpression(), !3739)
    #dbg_declare(ptr %x.dbg.spill, !3740, !DIExpression(), !3745)
    #dbg_declare(ptr %x.dbg.spill, !3747, !DIExpression(), !3750)
    #dbg_declare(ptr %x.dbg.spill, !3752, !DIExpression(), !3755)
  br label %bb7, !dbg !3757

bb5:                                              ; preds = %start
  %10 = load i64, ptr @anon.53f16eec224c883228c428cfded7c828.0, align 8, !dbg !3759
  %11 = load i32, ptr getelementptr inbounds (i8, ptr @anon.53f16eec224c883228c428cfded7c828.0, i64 8), align 8, !dbg !3759
  store i64 %10, ptr %_0, align 8, !dbg !3759
  %12 = getelementptr inbounds i8, ptr %_0, i64 8, !dbg !3759
  store i32 %11, ptr %12, align 8, !dbg !3759
  br label %bb2, !dbg !3759

bb2:                                              ; preds = %bb8, %bb5
  %13 = load i64, ptr %_0, align 8, !dbg !3760
  %14 = getelementptr inbounds i8, ptr %_0, i64 8, !dbg !3760
  %15 = load i32, ptr %14, align 8, !dbg !3760
  %16 = insertvalue { i64, i32 } poison, i64 %13, 0, !dbg !3760
  %17 = insertvalue { i64, i32 } %16, i32 %15, 1, !dbg !3760
  ret { i64, i32 } %17, !dbg !3760

bb7:                                              ; preds = %bb6
; call core::char::convert::from_u32_unchecked::precondition_check
  call void @_ZN4core4char7convert18from_u32_unchecked18precondition_check17h9ff169789a399f00E(i32 %x, ptr align 8 @alloc_1a66b4c24260c53aa7ec954e29b224e5) #14, !dbg !3761
  br label %bb8, !dbg !3761

bb8:                                              ; preds = %bb7
  store i32 %x, ptr %_4, align 4, !dbg !3762
  %ch = load i32, ptr %_4, align 4, !dbg !3763
  store i32 %ch, ptr %ch.dbg.spill, align 4, !dbg !3763
    #dbg_declare(ptr %ch.dbg.spill, !3685, !DIExpression(), !3764)
  %18 = getelementptr inbounds i8, ptr %self, i64 16, !dbg !3765
  %index = load i64, ptr %18, align 8, !dbg !3765
  store i64 %index, ptr %index.dbg.spill, align 8, !dbg !3765
    #dbg_declare(ptr %index.dbg.spill, !3687, !DIExpression(), !3766)
  store ptr %self, ptr %self.dbg.spill4, align 8, !dbg !3767
    #dbg_declare(ptr %self.dbg.spill4, !3714, !DIExpression(), !3768)
  %19 = getelementptr inbounds i8, ptr %self, i64 8, !dbg !3770
  %_27 = load ptr, ptr %19, align 8, !dbg !3770
  store ptr %_27, ptr %end.dbg.spill5, align 8, !dbg !3771
    #dbg_declare(ptr %end.dbg.spill5, !3723, !DIExpression(), !3772)
  %_28 = load ptr, ptr %self, align 8, !dbg !3773
; call core::ptr::non_null::NonNull<T>::offset_from_unsigned
  %len = call i64 @"_ZN4core3ptr8non_null16NonNull$LT$T$GT$20offset_from_unsigned17h75b4dbd3e4f7c47bE"(ptr %_27, ptr %_28), !dbg !3774
  store i64 %len, ptr %len.dbg.spill, align 8, !dbg !3774
    #dbg_declare(ptr %len.dbg.spill, !3689, !DIExpression(), !3775)
  %_10 = sub i64 %pre_len, %len, !dbg !3776
  %20 = getelementptr inbounds i8, ptr %self, i64 16, !dbg !3777
  %21 = getelementptr inbounds i8, ptr %self, i64 16, !dbg !3777
  %22 = load i64, ptr %21, align 8, !dbg !3777
  %23 = add i64 %22, %_10, !dbg !3777
  store i64 %23, ptr %20, align 8, !dbg !3777
  store i64 %index, ptr %_0, align 8, !dbg !3778
  %24 = getelementptr inbounds i8, ptr %_0, i64 8, !dbg !3778
  store i32 %ch, ptr %24, align 8, !dbg !3778
  br label %bb2, !dbg !3779

bb1:                                              ; No predecessors!
  unreachable, !dbg !3780
}

; <core::slice::iter::Iter<T> as core::iter::traits::iterator::Iterator>::next
; Function Attrs: inlinehint uwtable
define internal align 1 ptr @"_ZN91_$LT$core..slice..iter..Iter$LT$T$GT$$u20$as$u20$core..iter..traits..iterator..Iterator$GT$4next17h735c6220f255a67dE"(ptr align 8 %self) unnamed_addr #0 !dbg !3782 {
start:
  %self.dbg.spill2 = alloca [8 x i8], align 8
  %other.dbg.spill = alloca [8 x i8], align 8
  %self.dbg.spill1 = alloca [8 x i8], align 8
  %end_or_len.dbg.spill = alloca [8 x i8], align 8
  %count.dbg.spill = alloca [8 x i8], align 8
  %rhs.dbg.spill = alloca [8 x i8], align 8
  %self.dbg.spill = alloca [8 x i8], align 8
  %_13 = alloca [8 x i8], align 8
  %_9 = alloca [8 x i8], align 8
  %ptr = alloca [8 x i8], align 8
  %_0 = alloca [8 x i8], align 8
  store ptr %self, ptr %self.dbg.spill, align 8
    #dbg_declare(ptr %self.dbg.spill, !3785, !DIExpression(), !3792)
    #dbg_declare(ptr %ptr, !3786, !DIExpression(), !3793)
    #dbg_declare(ptr %ptr, !3794, !DIExpression(), !3799)
  store i64 1, ptr %rhs.dbg.spill, align 8, !dbg !3801
    #dbg_declare(ptr %rhs.dbg.spill, !3807, !DIExpression(), !3801)
  store i64 1, ptr %count.dbg.spill, align 8, !dbg !3809
    #dbg_declare(ptr %count.dbg.spill, !3798, !DIExpression(), !3809)
  %0 = load ptr, ptr %self, align 8, !dbg !3810
  store ptr %0, ptr %ptr, align 8, !dbg !3810
  %1 = getelementptr inbounds i8, ptr %self, i64 8, !dbg !3811
  %end_or_len = load ptr, ptr %1, align 8, !dbg !3811
  store ptr %end_or_len, ptr %end_or_len.dbg.spill, align 8, !dbg !3811
    #dbg_declare(ptr %end_or_len.dbg.spill, !3788, !DIExpression(), !3812)
    #dbg_declare(ptr %end_or_len.dbg.spill, !3813, !DIExpression(), !3816)
    #dbg_declare(ptr %end_or_len.dbg.spill, !3818, !DIExpression(), !3823)
  br label %bb4, !dbg !3825

bb4:                                              ; preds = %start
  store ptr %ptr, ptr %self.dbg.spill1, align 8, !dbg !3826
    #dbg_declare(ptr %self.dbg.spill1, !3827, !DIExpression(), !3831)
  store ptr %end_or_len, ptr %_9, align 8, !dbg !3832
  store ptr %_9, ptr %other.dbg.spill, align 8, !dbg !3832
    #dbg_declare(ptr %other.dbg.spill, !3830, !DIExpression(), !3833)
  %_16 = load ptr, ptr %ptr, align 8, !dbg !3834
  %_17 = load ptr, ptr %_9, align 8, !dbg !3837
  %_6 = icmp eq ptr %_16, %_17, !dbg !3839
  br i1 %_6, label %bb5, label %bb6, !dbg !3826

bb6:                                              ; preds = %bb4
  %_19 = load ptr, ptr %ptr, align 8, !dbg !3840
  %_18 = getelementptr inbounds nuw i8, ptr %_19, i64 1, !dbg !3841
  store ptr %_18, ptr %self, align 8, !dbg !3842
  br label %bb7, !dbg !3843

bb5:                                              ; preds = %bb4
  store ptr null, ptr %_0, align 8, !dbg !3844
  br label %bb8, !dbg !3845

bb7:                                              ; preds = %bb6
  %2 = load ptr, ptr %ptr, align 8, !dbg !3847
  store ptr %2, ptr %_13, align 8, !dbg !3847
  store ptr %_13, ptr %self.dbg.spill2, align 8, !dbg !3848
    #dbg_declare(ptr %self.dbg.spill2, !3849, !DIExpression(), !3852)
  %_20 = load ptr, ptr %ptr, align 8, !dbg !3854
  store ptr %_20, ptr %_0, align 8, !dbg !3859
  br label %bb9, !dbg !3860

bb9:                                              ; preds = %bb8, %bb7
  %3 = load ptr, ptr %_0, align 8, !dbg !3860
  ret ptr %3, !dbg !3860

bb8:                                              ; preds = %bb5
  br label %bb9, !dbg !3860

bb1:                                              ; No predecessors!
  unreachable

bb2:                                              ; No predecessors!
  unreachable

bb3:                                              ; No predecessors!
  unreachable

bb10:                                             ; No predecessors!
  unreachable

bb11:                                             ; No predecessors!
  unreachable
}

; <core::str::pattern::MultiCharEqPattern<C> as core::str::pattern::Pattern>::into_searcher
; Function Attrs: inlinehint uwtable
define internal void @"_ZN95_$LT$core..str..pattern..MultiCharEqPattern$LT$C$GT$$u20$as$u20$core..str..pattern..Pattern$GT$13into_searcher17h7c3e5705ddfeebd3E"(ptr sret([40 x i8]) align 8 %_0, ptr align 1 %haystack.0, i64 %haystack.1) unnamed_addr #0 personality ptr @rust_eh_personality !dbg !3861 {
start:
  %0 = alloca [16 x i8], align 8
  %haystack.dbg.spill = alloca [16 x i8], align 8
  %self.dbg.spill = alloca [0 x i8], align 1
  %_4 = alloca [24 x i8], align 8
    #dbg_declare(ptr %self.dbg.spill, !3869, !DIExpression(), !3871)
  store ptr %haystack.0, ptr %haystack.dbg.spill, align 8
  %1 = getelementptr inbounds i8, ptr %haystack.dbg.spill, i64 8
  store i64 %haystack.1, ptr %1, align 8
    #dbg_declare(ptr %haystack.dbg.spill, !3870, !DIExpression(), !3872)
    #dbg_declare(ptr %haystack.dbg.spill, !3873, !DIExpression(), !3878)
; invoke core::str::<impl str>::chars
