; ModuleID = 'shadow.74bed3875d2cb7de-cgu.0'
source_filename = "shadow.74bed3875d2cb7de-cgu.0"
target datalayout = "e-m:o-p270:32:32-p271:32:32-p272:64:64-i64:64-i128:128-n32:64-S128-Fn32"
target triple = "arm64-apple-macosx11.0.0"

%"core::fmt::rt::Argument<'_>" = type { %"core::fmt::rt::ArgumentType<'_>" }
%"core::fmt::rt::ArgumentType<'_>" = type { ptr, [1 x i64] }

@vtable.0 = private constant <{ [24 x i8], ptr, ptr, ptr }> <{ [24 x i8] c"\00\00\00\00\00\00\00\00\08\00\00\00\00\00\00\00\08\00\00\00\00\00\00\00", ptr @"_ZN4core3ops8function6FnOnce40call_once$u7b$$u7b$vtable.shim$u7d$$u7d$17hdb07b58052ec0c1bE", ptr @"_ZN3std2rt10lang_start28_$u7b$$u7b$closure$u7d$$u7d$17h4819d7d7de2f5ed0E", ptr @"_ZN3std2rt10lang_start28_$u7b$$u7b$closure$u7d$$u7d$17h4819d7d7de2f5ed0E" }>, align 8, !dbg !0
@alloc_ae6dc619079e3c3b08144a35532ecff7 = private unnamed_addr constant [2 x i8] c"()", align 1
@anon.0708bd2454ad289a73a64e34329909be.0 = private unnamed_addr constant <{ [8 x i8], [8 x i8] }> <{ [8 x i8] zeroinitializer, [8 x i8] undef }>, align 8
@alloc_fe2ddbdc622a788f5416063d1e8d8ad4 = private unnamed_addr constant [3 x i8] c" { ", align 1
@alloc_94b00be069aafad82a2c6df764237b82 = private unnamed_addr constant [2 x i8] c", ", align 1
@alloc_556e4180596b5b612bb6ed6c0cbb55e1 = private unnamed_addr constant [2 x i8] c": ", align 1
@alloc_3690db001d3db01550bdb6f3f450de28 = private unnamed_addr constant [3 x i8] c" {\0A", align 1
@alloc_f7ac0c356c6ac6fcd03badb685e09ca2 = private unnamed_addr constant [2 x i8] c",\0A", align 1
@alloc_bd3468a7b96187f70c1ce98a3e7a63bf = private unnamed_addr constant [283 x i8] c"unsafe precondition(s) violated: ptr::copy_nonoverlapping requires that both pointer arguments are aligned and non-null and the specified memory ranges do not overlap\0A\0AThis indicates a bug in the program. This Undefined Behavior check is optional, and cannot be relied on for safety.", align 1
@alloc_fad0cd83b7d1858a846a172eb260e593 = private unnamed_addr constant [42 x i8] c"is_aligned_to: align is not a power-of-two", align 1
@alloc_e92e94d0ff530782b571cfd99ec66aef = private unnamed_addr constant <{ ptr, [8 x i8] }> <{ ptr @alloc_fad0cd83b7d1858a846a172eb260e593, [8 x i8] c"*\00\00\00\00\00\00\00" }>, align 8
@alloc_e3122ba88327f96970ccc11fb79a6996 = private unnamed_addr constant [82 x i8] c"/rustc/1159e78c4747b02ef996e55082b704c09b970588/library/core/src/ptr/const_ptr.rs\00", align 1
@alloc_863114602ff53edf107e51a9c9035fa2 = private unnamed_addr constant <{ ptr, [16 x i8] }> <{ ptr @alloc_e3122ba88327f96970ccc11fb79a6996, [16 x i8] c"Q\00\00\00\00\00\00\00\92\05\00\00\0D\00\00\00" }>, align 8
@alloc_560a59ed819b9d9a5841f6e731c4c8e5 = private unnamed_addr constant [210 x i8] c"unsafe precondition(s) violated: NonNull::new_unchecked requires that the pointer is non-null\0A\0AThis indicates a bug in the program. This Undefined Behavior check is optional, and cannot be relied on for safety.", align 1
@alloc_64e308ef4babfeb8b6220184de794a17 = private unnamed_addr constant [221 x i8] c"unsafe precondition(s) violated: hint::assert_unchecked must never be called when the condition is false\0A\0AThis indicates a bug in the program. This Undefined Behavior check is optional, and cannot be relied on for safety.", align 1
@alloc_1be5ea12ba708d9a11b6e93a7d387a75 = private unnamed_addr constant [281 x i8] c"unsafe precondition(s) violated: Layout::from_size_align_unchecked requires that align is a power of 2 and the rounded-up allocation size does not exceed isize::MAX\0A\0AThis indicates a bug in the program. This Undefined Behavior check is optional, and cannot be relied on for safety.", align 1
@alloc_a28e8c8fd5088943a8b5d44af697ff83 = private unnamed_addr constant [279 x i8] c"unsafe precondition(s) violated: slice::from_raw_parts requires the pointer to be aligned and non-null, and the total size of the slice not to exceed `isize::MAX`\0A\0AThis indicates a bug in the program. This Undefined Behavior check is optional, and cannot be relied on for safety.", align 1
@alloc_f7192d85903faa6e3e7a0ae26b7c40f8 = private unnamed_addr constant [78 x i8] c"/rustc/1159e78c4747b02ef996e55082b704c09b970588/library/core/src/ub_checks.rs\00", align 1
@alloc_c546c23a9ba92cfed6659b88891d1475 = private unnamed_addr constant <{ ptr, [16 x i8] }> <{ ptr @alloc_f7192d85903faa6e3e7a0ae26b7c40f8, [16 x i8] c"M\00\00\00\00\00\00\00\94\00\00\006\00\00\00" }>, align 8
@alloc_763310d78c99c2c1ad3f8a9821e942f3 = private unnamed_addr constant [61 x i8] c"is_nonoverlapping: `size_of::<T>() * count` overflows a usize", align 1
@alloc_ce241a11b15bddb1715fb336b57443fe = private unnamed_addr constant [7 x i8] c"Pointer", align 1
@alloc_54a7bb754f73cc19a80f411dbaeede2b = private unnamed_addr constant [4 x i8] c"addr", align 1
@vtable.1 = private constant <{ [24 x i8], ptr }> <{ [24 x i8] c"\00\00\00\00\00\00\00\00\00\00\00\00\00\00\00\00\01\00\00\00\00\00\00\00", ptr @"_ZN45_$LT$$LP$$RP$$u20$as$u20$core..fmt..Debug$GT$3fmt17h132ccd0e26061777E" }>, align 8, !dbg !24
@alloc_670772c5db542b0dbf2f0a341c0a82f0 = private unnamed_addr constant [8 x i8] c"metadata", align 1
@alloc_57d70e9d94c65ecfc15225d29a5ed72b = private unnamed_addr constant [198 x i8] c"unsafe precondition(s) violated: Vec::set_len requires that new_len <= capacity()\0A\0AThis indicates a bug in the program. This Undefined Behavior check is optional, and cannot be relied on for safety.", align 1
@alloc_e4a41f3244bedccdc1cc07eda892a496 = private unnamed_addr constant [75 x i8] c"/rustc/1159e78c4747b02ef996e55082b704c09b970588/library/alloc/src/alloc.rs\00", align 1
@alloc_95ca2ad551daf17833facdb122ad62f2 = private unnamed_addr constant <{ ptr, [16 x i8] }> <{ ptr @alloc_e4a41f3244bedccdc1cc07eda892a496, [16 x i8] c"J\00\00\00\00\00\00\00^\01\00\00\1B\00\00\00" }>, align 8
@alloc_52d95b50b454bcb389e2cb9db2f24cf0 = private unnamed_addr constant [81 x i8] c"/rustc/1159e78c4747b02ef996e55082b704c09b970588/library/core/src/ptr/non_null.rs\00", align 1
@alloc_827fc580ae74785f56b1507bfd6b2422 = private unnamed_addr constant <{ ptr, [16 x i8] }> <{ ptr @alloc_52d95b50b454bcb389e2cb9db2f24cf0, [16 x i8] c"P\00\00\00\00\00\00\00l\05\00\00\12\00\00\00" }>, align 8
@alloc_8e97afaeee774873d13f09bb95d8211a = private unnamed_addr constant <{ ptr, [16 x i8] }> <{ ptr @alloc_52d95b50b454bcb389e2cb9db2f24cf0, [16 x i8] c"P\00\00\00\00\00\00\00\09\01\00\00\1B\00\00\00" }>, align 8
@alloc_1ed849c6ee52a8526306210aa0274020 = private unnamed_addr constant [77 x i8] c"/rustc/1159e78c4747b02ef996e55082b704c09b970588/library/alloc/src/vec/mod.rs\00", align 1
@alloc_40c560344f81f2dece7a8bb81f255148 = private unnamed_addr constant <{ ptr, [16 x i8] }> <{ ptr @alloc_1ed849c6ee52a8526306210aa0274020, [16 x i8] c"L\00\00\00\00\00\00\00j\06\00\00\12\00\00\00" }>, align 8
@alloc_fcfc72ba160b068cd397c5f3b5c50193 = private unnamed_addr constant [81 x i8] c"/rustc/1159e78c4747b02ef996e55082b704c09b970588/library/core/src/alloc/layout.rs\00", align 1
@alloc_094e93743ac0ceab7dadd432fb3bc99a = private unnamed_addr constant <{ ptr, [16 x i8] }> <{ ptr @alloc_fcfc72ba160b068cd397c5f3b5c50193, [16 x i8] c"P\00\00\00\00\00\00\00\E0\00\00\00\12\00\00\00" }>, align 8
@alloc_eb34a3a01ab804c1efbce667169ab494 = private unnamed_addr constant [75 x i8] c"/rustc/1159e78c4747b02ef996e55082b704c09b970588/library/alloc/src/slice.rs\00", align 1
@alloc_048d413691dbde40f1831c2aaf433342 = private unnamed_addr constant <{ ptr, [16 x i8] }> <{ ptr @alloc_eb34a3a01ab804c1efbce667169ab494, [16 x i8] c"J\00\00\00\00\00\00\00\BD\01\00\00\1D\00\00\00" }>, align 8
@alloc_6e55a9a35d865776db17ea7feabc5377 = private unnamed_addr constant [76 x i8] c"/rustc/1159e78c4747b02ef996e55082b704c09b970588/library/core/src/ptr/mod.rs\00", align 1
@alloc_5cdae0d4da70f085aa332804c095a7c9 = private unnamed_addr constant <{ ptr, [16 x i8] }> <{ ptr @alloc_6e55a9a35d865776db17ea7feabc5377, [16 x i8] c"K\00\00\00\00\00\00\00\0F\02\00\00\05\00\00\00" }>, align 8
@alloc_81dd7074769da6af462bf33ddde4a5c5 = private unnamed_addr constant <{ ptr, [16 x i8] }> <{ ptr @alloc_1ed849c6ee52a8526306210aa0274020, [16 x i8] c"L\00\00\00\00\00\00\00\AB\07\00\00\09\00\00\00" }>, align 8
@alloc_e48a5f21f06fded264852b32fd45d475 = private unnamed_addr constant [23 x i8] c"Exp 1: Basic Shadowing\0A", align 1
@alloc_08030170e0d23b3811d1d7b267639e12 = private unnamed_addr constant <{ ptr, [8 x i8] }> <{ ptr @alloc_e48a5f21f06fded264852b32fd45d475, [8 x i8] c"\17\00\00\00\00\00\00\00" }>, align 8
@alloc_50bcceb34c831125275ced8f9558e49e = private unnamed_addr constant [5 x i8] c"x  = ", align 1
@alloc_f5e1be6cf655c4aa5604c81c9e9477d0 = private unnamed_addr constant [4 x i8] c" at ", align 1
@alloc_49a1e817e911805af64bbc7efb390101 = private unnamed_addr constant [1 x i8] c"\0A", align 1
@alloc_6433fcb1a08629203d1fb07847024550 = private unnamed_addr constant <{ ptr, [8 x i8], ptr, [8 x i8], ptr, [8 x i8] }> <{ ptr @alloc_50bcceb34c831125275ced8f9558e49e, [8 x i8] c"\05\00\00\00\00\00\00\00", ptr @alloc_f5e1be6cf655c4aa5604c81c9e9477d0, [8 x i8] c"\04\00\00\00\00\00\00\00", ptr @alloc_49a1e817e911805af64bbc7efb390101, [8 x i8] c"\01\00\00\00\00\00\00\00" }>, align 8
@alloc_1a2b9f3efbe1a8edd339fa75af2334ed = private unnamed_addr constant [5 x i8] c"hello", align 1
@alloc_f41b74fc21c5c4bd31db20307a35b921 = private unnamed_addr constant [40 x i8] c"\0A Exp 2: Shadowing with heap allocation\0A", align 1
@alloc_fc1a78462e66ca0b743c8bd1e4b9a0fb = private unnamed_addr constant <{ ptr, [8 x i8] }> <{ ptr @alloc_f41b74fc21c5c4bd31db20307a35b921, [8 x i8] c"(\00\00\00\00\00\00\00" }>, align 8
@alloc_7a6d018950358e84f3ee288cd08fb455 = private unnamed_addr constant [5 x i8] c"stack", align 1
@alloc_fd8f1a72f2a1cc0fd077141ff330b17e = private unnamed_addr constant [5 x i8] c"s  = ", align 1
@alloc_8a07db2bfa91aa967d13c2c1235a80fe = private unnamed_addr constant [10 x i8] c", data at ", align 1
@alloc_00b7e1dfaccb120a0feb31f2ac1d9d5e = private unnamed_addr constant <{ ptr, [8 x i8], ptr, [8 x i8], ptr, [8 x i8], ptr, [8 x i8] }> <{ ptr @alloc_fd8f1a72f2a1cc0fd077141ff330b17e, [8 x i8] c"\05\00\00\00\00\00\00\00", ptr @alloc_f5e1be6cf655c4aa5604c81c9e9477d0, [8 x i8] c"\04\00\00\00\00\00\00\00", ptr @alloc_8a07db2bfa91aa967d13c2c1235a80fe, [8 x i8] c"\0A\00\00\00\00\00\00\00", ptr @alloc_49a1e817e911805af64bbc7efb390101, [8 x i8] c"\01\00\00\00\00\00\00\00" }>, align 8
@alloc_6c342f467cee9eb46aaa013cf1ccd49c = private unnamed_addr constant [5 x i8] c"inner", align 1
@alloc_4da0a8b401c9f860895211594281f3c0 = private unnamed_addr constant [4 x i8] c"s = ", align 1
@alloc_115842cda7f2974d7a0eab79e5eb2b9b = private unnamed_addr constant <{ ptr, [8 x i8], ptr, [8 x i8], ptr, [8 x i8], ptr, [8 x i8] }> <{ ptr @alloc_4da0a8b401c9f860895211594281f3c0, [8 x i8] c"\04\00\00\00\00\00\00\00", ptr @alloc_f5e1be6cf655c4aa5604c81c9e9477d0, [8 x i8] c"\04\00\00\00\00\00\00\00", ptr @alloc_8a07db2bfa91aa967d13c2c1235a80fe, [8 x i8] c"\0A\00\00\00\00\00\00\00", ptr @alloc_49a1e817e911805af64bbc7efb390101, [8 x i8] c"\01\00\00\00\00\00\00\00" }>, align 8
@alloc_4f01bed6220fba9c00d616e19c7c8258 = private unnamed_addr constant [27 x i8] c"\0A Exp 3: Shadow v Mutation\0A", align 1
@alloc_d4bbdf5278c356450999f3f9bde1e44a = private unnamed_addr constant <{ ptr, [8 x i8] }> <{ ptr @alloc_4f01bed6220fba9c00d616e19c7c8258, [8 x i8] c"\1B\00\00\00\00\00\00\00" }>, align 8
@alloc_470eab1f382f91b3faf6426dc82dc607 = private unnamed_addr constant [5 x i8] c"y  = ", align 1
@alloc_3c82e4f54be5c2fcbb8d6eb26b24a238 = private unnamed_addr constant <{ ptr, [8 x i8], ptr, [8 x i8], ptr, [8 x i8] }> <{ ptr @alloc_470eab1f382f91b3faf6426dc82dc607, [8 x i8] c"\05\00\00\00\00\00\00\00", ptr @alloc_f5e1be6cf655c4aa5604c81c9e9477d0, [8 x i8] c"\04\00\00\00\00\00\00\00", ptr @alloc_49a1e817e911805af64bbc7efb390101, [8 x i8] c"\01\00\00\00\00\00\00\00" }>, align 8
@alloc_2247fc738941c262ef62e4aa817147ad = private unnamed_addr constant [4 x i8] c"y = ", align 1
@alloc_899199cfa8f54e81058bf97680c6f87c = private unnamed_addr constant <{ ptr, [8 x i8], ptr, [8 x i8], ptr, [8 x i8] }> <{ ptr @alloc_2247fc738941c262ef62e4aa817147ad, [8 x i8] c"\04\00\00\00\00\00\00\00", ptr @alloc_f5e1be6cf655c4aa5604c81c9e9477d0, [8 x i8] c"\04\00\00\00\00\00\00\00", ptr @alloc_49a1e817e911805af64bbc7efb390101, [8 x i8] c"\01\00\00\00\00\00\00\00" }>, align 8
@alloc_a305b74beced121e4075d51dd6ad1f95 = private unnamed_addr constant [45 x i8] c"\0AExp 4: multiple shadows with the same scope\0A", align 1
@alloc_6c6bdefbd842ba3dc50cd2f5db157016 = private unnamed_addr constant <{ ptr, [8 x i8] }> <{ ptr @alloc_a305b74beced121e4075d51dd6ad1f95, [8 x i8] c"-\00\00\00\00\00\00\00" }>, align 8
@alloc_4e9c92ba35fdea34e7b6b6df873407e2 = private unnamed_addr constant [4 x i8] c"z = ", align 1
@alloc_6b1ceeaed28f077b883eb203cab62afd = private unnamed_addr constant <{ ptr, [8 x i8], ptr, [8 x i8], ptr, [8 x i8] }> <{ ptr @alloc_4e9c92ba35fdea34e7b6b6df873407e2, [8 x i8] c"\04\00\00\00\00\00\00\00", ptr @alloc_f5e1be6cf655c4aa5604c81c9e9477d0, [8 x i8] c"\04\00\00\00\00\00\00\00", ptr @alloc_49a1e817e911805af64bbc7efb390101, [8 x i8] c"\01\00\00\00\00\00\00\00" }>, align 8
@alloc_37d9fee80e8576d4d2681c9a368d7789 = private unnamed_addr constant [10 x i8] c"shadow.rs\00", align 1
@alloc_a4c7cf1ed35704d01c7e55b343360c02 = private unnamed_addr constant <{ ptr, [16 x i8] }> <{ ptr @alloc_37d9fee80e8576d4d2681c9a368d7789, [16 x i8] c"\09\00\00\00\00\00\00\00)\00\00\00\0D\00\00\00" }>, align 8
@alloc_79e197c80deb5bed49100307adf6a43a = private unnamed_addr constant <{ ptr, [16 x i8] }> <{ ptr @alloc_37d9fee80e8576d4d2681c9a368d7789, [16 x i8] c"\09\00\00\00\00\00\00\00+\00\00\00\0D\00\00\00" }>, align 8
@alloc_6446f9a84172965548392f731ccdef36 = private unnamed_addr constant [22 x i8] c"\0AExp 5: Nested scopes\0A", align 1
@alloc_f37decbb4b2898bdaad668fe41934911 = private unnamed_addr constant <{ ptr, [8 x i8] }> <{ ptr @alloc_6446f9a84172965548392f731ccdef36, [8 x i8] c"\16\00\00\00\00\00\00\00" }>, align 8
@alloc_185a669e6d3e8d7cf32aeeb23b058449 = private unnamed_addr constant <{ ptr, [16 x i8] }> <{ ptr @alloc_37d9fee80e8576d4d2681c9a368d7789, [16 x i8] c"\09\00\00\00\00\00\00\000\00\00\005\00\00\00" }>, align 8
@alloc_66901017638c0826d2d953b30e5c72d8 = private unnamed_addr constant [4 x i8] c"a = ", align 1
@alloc_e794e9840ce3a754f13ca0d70e0e3b50 = private unnamed_addr constant [10 x i8] c", head at ", align 1
@alloc_fea79b716cf5168377b4f6f17fc0761f = private unnamed_addr constant <{ ptr, [8 x i8], ptr, [8 x i8], ptr, [8 x i8], ptr, [8 x i8] }> <{ ptr @alloc_66901017638c0826d2d953b30e5c72d8, [8 x i8] c"\04\00\00\00\00\00\00\00", ptr @alloc_f5e1be6cf655c4aa5604c81c9e9477d0, [8 x i8] c"\04\00\00\00\00\00\00\00", ptr @alloc_e794e9840ce3a754f13ca0d70e0e3b50, [8 x i8] c"\0A\00\00\00\00\00\00\00", ptr @alloc_49a1e817e911805af64bbc7efb390101, [8 x i8] c"\01\00\00\00\00\00\00\00" }>, align 8
@alloc_cf4cf9eb5952ac3bc50c39f3fa94d699 = private unnamed_addr constant <{ ptr, [16 x i8] }> <{ ptr @alloc_37d9fee80e8576d4d2681c9a368d7789, [16 x i8] c"\09\00\00\00\00\00\00\003\00\00\009\00\00\00" }>, align 8
@alloc_b6feaea8f8f295c8656542c626475ec8 = private unnamed_addr constant [10 x i8] c", heap at ", align 1
@alloc_66bdc1c2709d52034bf7051088e537fd = private unnamed_addr constant <{ ptr, [8 x i8], ptr, [8 x i8], ptr, [8 x i8], ptr, [8 x i8] }> <{ ptr @alloc_66901017638c0826d2d953b30e5c72d8, [8 x i8] c"\04\00\00\00\00\00\00\00", ptr @alloc_f5e1be6cf655c4aa5604c81c9e9477d0, [8 x i8] c"\04\00\00\00\00\00\00\00", ptr @alloc_b6feaea8f8f295c8656542c626475ec8, [8 x i8] c"\0A\00\00\00\00\00\00\00", ptr @alloc_49a1e817e911805af64bbc7efb390101, [8 x i8] c"\01\00\00\00\00\00\00\00" }>, align 8
@alloc_225f900d678eb2e2232df8017e6c030f = private unnamed_addr constant <{ ptr, [16 x i8] }> <{ ptr @alloc_37d9fee80e8576d4d2681c9a368d7789, [16 x i8] c"\09\00\00\00\00\00\00\006\00\00\00>\00\00\00" }>, align 8
@alloc_c77e37e2c6041c98e7d8400cfad3aec2 = private unnamed_addr constant [5 x i8] c" a = ", align 1
@alloc_035839373bcccbc1c38d98ca6585cb50 = private unnamed_addr constant <{ ptr, [8 x i8], ptr, [8 x i8], ptr, [8 x i8], ptr, [8 x i8] }> <{ ptr @alloc_c77e37e2c6041c98e7d8400cfad3aec2, [8 x i8] c"\05\00\00\00\00\00\00\00", ptr @alloc_f5e1be6cf655c4aa5604c81c9e9477d0, [8 x i8] c"\04\00\00\00\00\00\00\00", ptr @alloc_b6feaea8f8f295c8656542c626475ec8, [8 x i8] c"\0A\00\00\00\00\00\00\00", ptr @alloc_49a1e817e911805af64bbc7efb390101, [8 x i8] c"\01\00\00\00\00\00\00\00" }>, align 8
@alloc_f37700bf7413bd2e0e10071f7c4960c0 = private unnamed_addr constant <{ ptr, [16 x i8] }> <{ ptr @alloc_37d9fee80e8576d4d2681c9a368d7789, [16 x i8] c"\09\00\00\00\00\00\00\008\00\00\00:\00\00\00" }>, align 8
@alloc_def45e0da57d290a70d5640abdcadacb = private unnamed_addr constant <{ ptr, [16 x i8] }> <{ ptr @alloc_37d9fee80e8576d4d2681c9a368d7789, [16 x i8] c"\09\00\00\00\00\00\00\00:\00\00\005\00\00\00" }>, align 8

; std::rt::lang_start
; Function Attrs: uwtable
define hidden i64 @_ZN3std2rt10lang_start17h895725266745d8dcE(ptr %main, i64 %argc, ptr %argv, i8 %sigpipe) unnamed_addr #0 !dbg !111 {
start:
  %sigpipe.dbg.spill = alloca [1 x i8], align 1
  %argv.dbg.spill = alloca [8 x i8], align 8
  %argc.dbg.spill = alloca [8 x i8], align 8
  %main.dbg.spill = alloca [8 x i8], align 8
  %_7 = alloca [8 x i8], align 8
  store ptr %main, ptr %main.dbg.spill, align 8
    #dbg_declare(ptr %main.dbg.spill, !120, !DIExpression(), !126)
  store i64 %argc, ptr %argc.dbg.spill, align 8
    #dbg_declare(ptr %argc.dbg.spill, !121, !DIExpression(), !127)
  store ptr %argv, ptr %argv.dbg.spill, align 8
    #dbg_declare(ptr %argv.dbg.spill, !122, !DIExpression(), !128)
  store i8 %sigpipe, ptr %sigpipe.dbg.spill, align 1
    #dbg_declare(ptr %sigpipe.dbg.spill, !123, !DIExpression(), !129)
  store ptr %main, ptr %_7, align 8, !dbg !130
; call std::rt::lang_start_internal
  %_0 = call i64 @_ZN3std2rt19lang_start_internal17hdb28e94b6865fa11E(ptr align 1 %_7, ptr align 8 @vtable.0, i64 %argc, ptr %argv, i8 %sigpipe), !dbg !131
  ret i64 %_0, !dbg !132
}

; std::rt::lang_start::{{closure}}
; Function Attrs: inlinehint uwtable
define internal i32 @"_ZN3std2rt10lang_start28_$u7b$$u7b$closure$u7d$$u7d$17h4819d7d7de2f5ed0E"(ptr align 8 %_1) unnamed_addr #1 !dbg !133 {
start:
  %self.dbg.spill = alloca [1 x i8], align 1
  %_1.dbg.spill = alloca [8 x i8], align 8
  store ptr %_1, ptr %_1.dbg.spill, align 8
    #dbg_declare(ptr %_1.dbg.spill, !139, !DIExpression(DW_OP_deref), !140)
  %_4 = load ptr, ptr %_1, align 8, !dbg !141
; call std::sys::backtrace::__rust_begin_short_backtrace
  call void @_ZN3std3sys9backtrace28__rust_begin_short_backtrace17h5234fe36b5b8a542E(ptr %_4), !dbg !142
; call <() as std::process::Termination>::report
  %self = call i8 @"_ZN54_$LT$$LP$$RP$$u20$as$u20$std..process..Termination$GT$6report17h557aedde7ef21472E"(), !dbg !143
  store i8 %self, ptr %self.dbg.spill, align 1, !dbg !143
    #dbg_declare(ptr %self.dbg.spill, !144, !DIExpression(), !162)
  %_0 = zext i8 %self to i32, !dbg !164
  ret i32 %_0, !dbg !172
}

; std::sys::backtrace::__rust_begin_short_backtrace
; Function Attrs: noinline uwtable
define internal void @_ZN3std3sys9backtrace28__rust_begin_short_backtrace17h5234fe36b5b8a542E(ptr %f) unnamed_addr #2 !dbg !173 {
start:
  %dummy.dbg.spill = alloca [0 x i8], align 1
  %f.dbg.spill = alloca [8 x i8], align 8
  %result.dbg.spill = alloca [0 x i8], align 1
    #dbg_declare(ptr %result.dbg.spill, !180, !DIExpression(), !184)
  store ptr %f, ptr %f.dbg.spill, align 8
    #dbg_declare(ptr %f.dbg.spill, !179, !DIExpression(), !185)
    #dbg_declare(ptr %dummy.dbg.spill, !186, !DIExpression(), !193)
; call core::ops::function::FnOnce::call_once
  call void @_ZN4core3ops8function6FnOnce9call_once17h34d17c87d3ac2bf3E(ptr %f), !dbg !195
  call void asm sideeffect "", "~{memory}"(), !dbg !196, !srcloc !197
  ret void, !dbg !198
}

; <&T as core::fmt::Pointer>::fmt
; Function Attrs: uwtable
define internal zeroext i1 @"_ZN44_$LT$$RF$T$u20$as$u20$core..fmt..Pointer$GT$3fmt17h60c0f984a12b02a8E"(ptr align 8 %self, ptr align 8 %f) unnamed_addr #0 !dbg !199 {
start:
  %f.dbg.spill = alloca [8 x i8], align 8
  %self.dbg.spill = alloca [8 x i8], align 8
  %_4 = alloca [8 x i8], align 8
  store ptr %self, ptr %self.dbg.spill, align 8
    #dbg_declare(ptr %self.dbg.spill, !248, !DIExpression(), !252)
  store ptr %f, ptr %f.dbg.spill, align 8
    #dbg_declare(ptr %f.dbg.spill, !249, !DIExpression(), !253)
  %_5 = load ptr, ptr %self, align 8, !dbg !254
  store ptr %_5, ptr %_4, align 8, !dbg !254
; call <*const T as core::fmt::Pointer>::fmt
  %_0 = call zeroext i1 @"_ZN54_$LT$$BP$const$u20$T$u20$as$u20$core..fmt..Pointer$GT$3fmt17h0a7083c70afc999aE"(ptr align 8 %_4, ptr align 8 %f), !dbg !255
  ret i1 %_0, !dbg !256
}

; <&T as core::fmt::Pointer>::fmt
; Function Attrs: uwtable
define internal zeroext i1 @"_ZN44_$LT$$RF$T$u20$as$u20$core..fmt..Pointer$GT$3fmt17h698f414f66c06d80E"(ptr align 8 %self, ptr align 8 %f) unnamed_addr #0 !dbg !257 {
start:
  %f.dbg.spill = alloca [8 x i8], align 8
  %self.dbg.spill = alloca [8 x i8], align 8
  %_4 = alloca [8 x i8], align 8
  store ptr %self, ptr %self.dbg.spill, align 8
    #dbg_declare(ptr %self.dbg.spill, !263, !DIExpression(), !267)
  store ptr %f, ptr %f.dbg.spill, align 8
    #dbg_declare(ptr %f.dbg.spill, !264, !DIExpression(), !268)
  %_5 = load ptr, ptr %self, align 8, !dbg !269
  store ptr %_5, ptr %_4, align 8, !dbg !269
; call <*const T as core::fmt::Pointer>::fmt
  %_0 = call zeroext i1 @"_ZN54_$LT$$BP$const$u20$T$u20$as$u20$core..fmt..Pointer$GT$3fmt17h6df6c427a5bc55f1E"(ptr align 8 %_4, ptr align 8 %f), !dbg !270
  ret i1 %_0, !dbg !271
}

; <&T as core::fmt::Pointer>::fmt
; Function Attrs: uwtable
define internal zeroext i1 @"_ZN44_$LT$$RF$T$u20$as$u20$core..fmt..Pointer$GT$3fmt17h6d4adc6ce433aae6E"(ptr align 8 %self, ptr align 8 %f) unnamed_addr #0 !dbg !272 {
start:
  %f.dbg.spill = alloca [8 x i8], align 8
  %self.dbg.spill = alloca [8 x i8], align 8
  %_4 = alloca [8 x i8], align 8
  store ptr %self, ptr %self.dbg.spill, align 8
    #dbg_declare(ptr %self.dbg.spill, !283, !DIExpression(), !287)
  store ptr %f, ptr %f.dbg.spill, align 8
    #dbg_declare(ptr %f.dbg.spill, !284, !DIExpression(), !288)
  %_5 = load ptr, ptr %self, align 8, !dbg !289
  store ptr %_5, ptr %_4, align 8, !dbg !289
; call <*const T as core::fmt::Pointer>::fmt
  %_0 = call zeroext i1 @"_ZN54_$LT$$BP$const$u20$T$u20$as$u20$core..fmt..Pointer$GT$3fmt17h434f4e5e7f958482E"(ptr align 8 %_4, ptr align 8 %f), !dbg !290
  ret i1 %_0, !dbg !291
}

; <&T as core::fmt::Pointer>::fmt
; Function Attrs: uwtable
define internal zeroext i1 @"_ZN44_$LT$$RF$T$u20$as$u20$core..fmt..Pointer$GT$3fmt17hb89f71b1678268ddE"(ptr align 8 %self, ptr align 8 %f) unnamed_addr #0 !dbg !292 {
start:
  %f.dbg.spill = alloca [8 x i8], align 8
  %self.dbg.spill = alloca [8 x i8], align 8
  %_4 = alloca [8 x i8], align 8
  store ptr %self, ptr %self.dbg.spill, align 8
    #dbg_declare(ptr %self.dbg.spill, !341, !DIExpression(), !345)
  store ptr %f, ptr %f.dbg.spill, align 8
    #dbg_declare(ptr %f.dbg.spill, !342, !DIExpression(), !346)
  %_5 = load ptr, ptr %self, align 8, !dbg !347
  store ptr %_5, ptr %_4, align 8, !dbg !347
; call <*const T as core::fmt::Pointer>::fmt
  %_0 = call zeroext i1 @"_ZN54_$LT$$BP$const$u20$T$u20$as$u20$core..fmt..Pointer$GT$3fmt17h146981daddaa65d0E"(ptr align 8 %_4, ptr align 8 %f), !dbg !348
  ret i1 %_0, !dbg !349
}

; <() as core::fmt::Debug>::fmt
; Function Attrs: inlinehint uwtable
define internal zeroext i1 @"_ZN45_$LT$$LP$$RP$$u20$as$u20$core..fmt..Debug$GT$3fmt17h132ccd0e26061777E"(ptr align 1 %self, ptr align 8 %f) unnamed_addr #1 !dbg !350 {
start:
  %f.dbg.spill = alloca [8 x i8], align 8
  %self.dbg.spill = alloca [8 x i8], align 8
  store ptr %self, ptr %self.dbg.spill, align 8
    #dbg_declare(ptr %self.dbg.spill, !356, !DIExpression(), !358)
  store ptr %f, ptr %f.dbg.spill, align 8
    #dbg_declare(ptr %f.dbg.spill, !357, !DIExpression(), !359)
; call core::fmt::Formatter::pad
  %_0 = call zeroext i1 @_ZN4core3fmt9Formatter3pad17h8c5dc16d83018a81E(ptr align 8 %f, ptr align 1 @alloc_ae6dc619079e3c3b08144a35532ecff7, i64 2), !dbg !360
  ret i1 %_0, !dbg !361
}

; <() as core::unit::IsUnit>::is_unit
; Function Attrs: uwtable
define internal zeroext i1 @"_ZN47_$LT$$LP$$RP$$u20$as$u20$core..unit..IsUnit$GT$7is_unit17hefe2e1bd2f018f1bE"() unnamed_addr #0 !dbg !362 {
start:
  ret i1 true, !dbg !369
}

; core::intrinsics::cold_path
; Function Attrs: cold nounwind uwtable
define internal void @_ZN4core10intrinsics9cold_path17hbf32fa6eeac6178bE() unnamed_addr #3 !dbg !370 {
start:
  ret void, !dbg !373
}

; core::fmt::rt::<impl core::fmt::Arguments>::new_v1
; Function Attrs: inlinehint uwtable
define internal void @"_ZN4core3fmt2rt38_$LT$impl$u20$core..fmt..Arguments$GT$6new_v117h4c88263289ca6bf0E"(ptr sret([48 x i8]) align 8 %_0, ptr align 8 %pieces, ptr align 8 %args) unnamed_addr #1 !dbg !374 {
start:
  %args.dbg.spill = alloca [8 x i8], align 8
  %pieces.dbg.spill = alloca [8 x i8], align 8
  store ptr %pieces, ptr %pieces.dbg.spill, align 8
    #dbg_declare(ptr %pieces.dbg.spill, !471, !DIExpression(), !473)
  store ptr %args, ptr %args.dbg.spill, align 8
    #dbg_declare(ptr %args.dbg.spill, !472, !DIExpression(), !474)
  store ptr %pieces, ptr %_0, align 8, !dbg !475
  %0 = getelementptr inbounds i8, ptr %_0, i64 8, !dbg !475
  store i64 4, ptr %0, align 8, !dbg !475
  %1 = load ptr, ptr @anon.0708bd2454ad289a73a64e34329909be.0, align 8, !dbg !475
  %2 = load i64, ptr getelementptr inbounds (i8, ptr @anon.0708bd2454ad289a73a64e34329909be.0, i64 8), align 8, !dbg !475
  %3 = getelementptr inbounds i8, ptr %_0, i64 32, !dbg !475
  store ptr %1, ptr %3, align 8, !dbg !475
  %4 = getelementptr inbounds i8, ptr %3, i64 8, !dbg !475
  store i64 %2, ptr %4, align 8, !dbg !475
  %5 = getelementptr inbounds i8, ptr %_0, i64 16, !dbg !475
  store ptr %args, ptr %5, align 8, !dbg !475
  %6 = getelementptr inbounds i8, ptr %5, i64 8, !dbg !475
  store i64 3, ptr %6, align 8, !dbg !475
  ret void, !dbg !476
}

; core::fmt::rt::<impl core::fmt::Arguments>::new_v1
; Function Attrs: inlinehint uwtable
define internal void @"_ZN4core3fmt2rt38_$LT$impl$u20$core..fmt..Arguments$GT$6new_v117hc6b860fe3c1a5be0E"(ptr sret([48 x i8]) align 8 %_0, ptr align 8 %pieces, ptr align 8 %args) unnamed_addr #1 !dbg !477 {
start:
  %args.dbg.spill = alloca [8 x i8], align 8
  %pieces.dbg.spill = alloca [8 x i8], align 8
  store ptr %pieces, ptr %pieces.dbg.spill, align 8
    #dbg_declare(ptr %pieces.dbg.spill, !488, !DIExpression(), !490)
  store ptr %args, ptr %args.dbg.spill, align 8
    #dbg_declare(ptr %args.dbg.spill, !489, !DIExpression(), !491)
  store ptr %pieces, ptr %_0, align 8, !dbg !492
  %0 = getelementptr inbounds i8, ptr %_0, i64 8, !dbg !492
  store i64 3, ptr %0, align 8, !dbg !492
  %1 = load ptr, ptr @anon.0708bd2454ad289a73a64e34329909be.0, align 8, !dbg !492
  %2 = load i64, ptr getelementptr inbounds (i8, ptr @anon.0708bd2454ad289a73a64e34329909be.0, i64 8), align 8, !dbg !492
  %3 = getelementptr inbounds i8, ptr %_0, i64 32, !dbg !492
  store ptr %1, ptr %3, align 8, !dbg !492
  %4 = getelementptr inbounds i8, ptr %3, i64 8, !dbg !492
  store i64 %2, ptr %4, align 8, !dbg !492
  %5 = getelementptr inbounds i8, ptr %_0, i64 16, !dbg !492
  store ptr %args, ptr %5, align 8, !dbg !492
  %6 = getelementptr inbounds i8, ptr %5, i64 8, !dbg !492
  store i64 2, ptr %6, align 8, !dbg !492
  ret void, !dbg !493
}

; core::fmt::rt::<impl core::fmt::Arguments>::new_const
; Function Attrs: inlinehint uwtable
define internal void @"_ZN4core3fmt2rt38_$LT$impl$u20$core..fmt..Arguments$GT$9new_const17hbab90e0265fb12b0E"(ptr sret([48 x i8]) align 8 %_0, ptr align 8 %pieces) unnamed_addr #1 !dbg !494 {
start:
  %pieces.dbg.spill = alloca [8 x i8], align 8
  store ptr %pieces, ptr %pieces.dbg.spill, align 8
    #dbg_declare(ptr %pieces.dbg.spill, !503, !DIExpression(), !504)
  store ptr %pieces, ptr %_0, align 8, !dbg !505
  %0 = getelementptr inbounds i8, ptr %_0, i64 8, !dbg !505
  store i64 1, ptr %0, align 8, !dbg !505
  %1 = load ptr, ptr @anon.0708bd2454ad289a73a64e34329909be.0, align 8, !dbg !505
  %2 = load i64, ptr getelementptr inbounds (i8, ptr @anon.0708bd2454ad289a73a64e34329909be.0, i64 8), align 8, !dbg !505
  %3 = getelementptr inbounds i8, ptr %_0, i64 32, !dbg !505
  store ptr %1, ptr %3, align 8, !dbg !505
  %4 = getelementptr inbounds i8, ptr %3, i64 8, !dbg !505
  store i64 %2, ptr %4, align 8, !dbg !505
  %5 = getelementptr inbounds i8, ptr %_0, i64 16, !dbg !505
  store ptr inttoptr (i64 8 to ptr), ptr %5, align 8, !dbg !505
  %6 = getelementptr inbounds i8, ptr %5, i64 8, !dbg !505
  store i64 0, ptr %6, align 8, !dbg !505
  ret void, !dbg !506
}

; core::fmt::rt::Argument::new_display
; Function Attrs: inlinehint uwtable
define internal void @_ZN4core3fmt2rt8Argument11new_display17h50ab1c308e222adfE(ptr sret([16 x i8]) align 8 %_0, ptr align 4 %x) unnamed_addr #1 !dbg !507 {
start:
  %x.dbg.spill = alloca [8 x i8], align 8
  %_2 = alloca [16 x i8], align 8
  store ptr %x, ptr %x.dbg.spill, align 8
    #dbg_declare(ptr %x.dbg.spill, !512, !DIExpression(), !513)
    #dbg_declare(ptr %x.dbg.spill, !514, !DIExpression(), !525)
  store ptr %x, ptr %_2, align 8, !dbg !527
  %0 = getelementptr inbounds i8, ptr %_2, i64 8, !dbg !527
  store ptr @"_ZN4core3fmt3num3imp52_$LT$impl$u20$core..fmt..Display$u20$for$u20$i32$GT$3fmt17h3ba0c936b0a5f01eE", ptr %0, align 8, !dbg !527
  call void @llvm.memcpy.p0.p0.i64(ptr align 8 %_0, ptr align 8 %_2, i64 16, i1 false), !dbg !528
  ret void, !dbg !529
}

; core::fmt::rt::Argument::new_display
; Function Attrs: inlinehint uwtable
define internal void @_ZN4core3fmt2rt8Argument11new_display17h54976106bdbd0de2E(ptr sret([16 x i8]) align 8 %_0, ptr align 8 %x) unnamed_addr #1 !dbg !530 {
start:
  %x.dbg.spill = alloca [8 x i8], align 8
  %_2 = alloca [16 x i8], align 8
  store ptr %x, ptr %x.dbg.spill, align 8
    #dbg_declare(ptr %x.dbg.spill, !535, !DIExpression(), !536)
    #dbg_declare(ptr %x.dbg.spill, !537, !DIExpression(), !547)
  store ptr %x, ptr %_2, align 8, !dbg !549
  %0 = getelementptr inbounds i8, ptr %_2, i64 8, !dbg !549
  store ptr @"_ZN60_$LT$alloc..string..String$u20$as$u20$core..fmt..Display$GT$3fmt17h57a5be7226bc2aa8E", ptr %0, align 8, !dbg !549
  call void @llvm.memcpy.p0.p0.i64(ptr align 8 %_0, ptr align 8 %_2, i64 16, i1 false), !dbg !550
  ret void, !dbg !551
}

; core::fmt::rt::Argument::new_display
; Function Attrs: inlinehint uwtable
define internal void @_ZN4core3fmt2rt8Argument11new_display17hbd7e9260348b5ec3E(ptr sret([16 x i8]) align 8 %_0, ptr align 8 %x) unnamed_addr #1 !dbg !552 {
start:
  %x.dbg.spill = alloca [8 x i8], align 8
  %_2 = alloca [16 x i8], align 8
  store ptr %x, ptr %x.dbg.spill, align 8
    #dbg_declare(ptr %x.dbg.spill, !557, !DIExpression(), !558)
    #dbg_declare(ptr %x.dbg.spill, !559, !DIExpression(), !569)
  store ptr %x, ptr %_2, align 8, !dbg !571
  %0 = getelementptr inbounds i8, ptr %_2, i64 8, !dbg !571
  store ptr @"_ZN69_$LT$alloc..boxed..Box$LT$T$C$A$GT$$u20$as$u20$core..fmt..Display$GT$3fmt17hd73e8c14497fa81fE", ptr %0, align 8, !dbg !571
  call void @llvm.memcpy.p0.p0.i64(ptr align 8 %_0, ptr align 8 %_2, i64 16, i1 false), !dbg !572
  ret void, !dbg !573
}

; core::fmt::rt::Argument::new_display
; Function Attrs: inlinehint uwtable
define internal void @_ZN4core3fmt2rt8Argument11new_display17hf5c32e657bb75626E(ptr sret([16 x i8]) align 8 %_0, ptr align 8 %x) unnamed_addr #1 !dbg !574 {
start:
  %x.dbg.spill = alloca [8 x i8], align 8
  %_2 = alloca [16 x i8], align 8
  store ptr %x, ptr %x.dbg.spill, align 8
    #dbg_declare(ptr %x.dbg.spill, !579, !DIExpression(), !580)
    #dbg_declare(ptr %x.dbg.spill, !581, !DIExpression(), !591)
  store ptr %x, ptr %_2, align 8, !dbg !593
  %0 = getelementptr inbounds i8, ptr %_2, i64 8, !dbg !593
  store ptr @"_ZN44_$LT$$RF$T$u20$as$u20$core..fmt..Display$GT$3fmt17h776d5564998beb1bE", ptr %0, align 8, !dbg !593
  call void @llvm.memcpy.p0.p0.i64(ptr align 8 %_0, ptr align 8 %_2, i64 16, i1 false), !dbg !594
  ret void, !dbg !595
}

; core::fmt::rt::Argument::new_pointer
; Function Attrs: inlinehint uwtable
define internal void @_ZN4core3fmt2rt8Argument11new_pointer17h44cf13b5c789d724E(ptr sret([16 x i8]) align 8 %_0, ptr align 8 %x) unnamed_addr #1 !dbg !596 {
start:
  %x.dbg.spill = alloca [8 x i8], align 8
  %_2 = alloca [16 x i8], align 8
  store ptr %x, ptr %x.dbg.spill, align 8
    #dbg_declare(ptr %x.dbg.spill, !604, !DIExpression(), !605)
    #dbg_declare(ptr %x.dbg.spill, !606, !DIExpression(), !615)
  store ptr %x, ptr %_2, align 8, !dbg !617
  %0 = getelementptr inbounds i8, ptr %_2, i64 8, !dbg !617
  store ptr @"_ZN54_$LT$$BP$const$u20$T$u20$as$u20$core..fmt..Pointer$GT$3fmt17ha283d770538187afE", ptr %0, align 8, !dbg !617
  call void @llvm.memcpy.p0.p0.i64(ptr align 8 %_0, ptr align 8 %_2, i64 16, i1 false), !dbg !618
  ret void, !dbg !619
}

; core::fmt::rt::Argument::new_pointer
; Function Attrs: inlinehint uwtable
define internal void @_ZN4core3fmt2rt8Argument11new_pointer17h6e1ca24c71589099E(ptr sret([16 x i8]) align 8 %_0, ptr align 8 %x) unnamed_addr #1 !dbg !620 {
start:
  %x.dbg.spill = alloca [8 x i8], align 8
  %_2 = alloca [16 x i8], align 8
  store ptr %x, ptr %x.dbg.spill, align 8
    #dbg_declare(ptr %x.dbg.spill, !627, !DIExpression(), !628)
    #dbg_declare(ptr %x.dbg.spill, !629, !DIExpression(), !639)
  store ptr %x, ptr %_2, align 8, !dbg !641
  %0 = getelementptr inbounds i8, ptr %_2, i64 8, !dbg !641
  store ptr @"_ZN44_$LT$$RF$T$u20$as$u20$core..fmt..Pointer$GT$3fmt17hb89f71b1678268ddE", ptr %0, align 8, !dbg !641
  call void @llvm.memcpy.p0.p0.i64(ptr align 8 %_0, ptr align 8 %_2, i64 16, i1 false), !dbg !642
  ret void, !dbg !643
}

; core::fmt::rt::Argument::new_pointer
; Function Attrs: inlinehint uwtable
define internal void @_ZN4core3fmt2rt8Argument11new_pointer17h920df4d9530f2376E(ptr sret([16 x i8]) align 8 %_0, ptr align 8 %x) unnamed_addr #1 !dbg !644 {
start:
  %x.dbg.spill = alloca [8 x i8], align 8
  %_2 = alloca [16 x i8], align 8
  store ptr %x, ptr %x.dbg.spill, align 8
    #dbg_declare(ptr %x.dbg.spill, !651, !DIExpression(), !652)
    #dbg_declare(ptr %x.dbg.spill, !653, !DIExpression(), !663)
  store ptr %x, ptr %_2, align 8, !dbg !665
  %0 = getelementptr inbounds i8, ptr %_2, i64 8, !dbg !665
  store ptr @"_ZN44_$LT$$RF$T$u20$as$u20$core..fmt..Pointer$GT$3fmt17h60c0f984a12b02a8E", ptr %0, align 8, !dbg !665
  call void @llvm.memcpy.p0.p0.i64(ptr align 8 %_0, ptr align 8 %_2, i64 16, i1 false), !dbg !666
  ret void, !dbg !667
}

; core::fmt::rt::Argument::new_pointer
; Function Attrs: inlinehint uwtable
define internal void @_ZN4core3fmt2rt8Argument11new_pointer17hac94875d376a6cbeE(ptr sret([16 x i8]) align 8 %_0, ptr align 8 %x) unnamed_addr #1 !dbg !668 {
start:
  %x.dbg.spill = alloca [8 x i8], align 8
  %_2 = alloca [16 x i8], align 8
  store ptr %x, ptr %x.dbg.spill, align 8
    #dbg_declare(ptr %x.dbg.spill, !675, !DIExpression(), !676)
    #dbg_declare(ptr %x.dbg.spill, !677, !DIExpression(), !687)
  store ptr %x, ptr %_2, align 8, !dbg !689
  %0 = getelementptr inbounds i8, ptr %_2, i64 8, !dbg !689
  store ptr @"_ZN44_$LT$$RF$T$u20$as$u20$core..fmt..Pointer$GT$3fmt17h698f414f66c06d80E", ptr %0, align 8, !dbg !689
  call void @llvm.memcpy.p0.p0.i64(ptr align 8 %_0, ptr align 8 %_2, i64 16, i1 false), !dbg !690
  ret void, !dbg !691
}

; core::fmt::rt::Argument::new_pointer
; Function Attrs: inlinehint uwtable
define internal void @_ZN4core3fmt2rt8Argument11new_pointer17hb960446fba064e33E(ptr sret([16 x i8]) align 8 %_0, ptr align 8 %x) unnamed_addr #1 !dbg !692 {
start:
  %x.dbg.spill = alloca [8 x i8], align 8
  %_2 = alloca [16 x i8], align 8
  store ptr %x, ptr %x.dbg.spill, align 8
    #dbg_declare(ptr %x.dbg.spill, !699, !DIExpression(), !700)
    #dbg_declare(ptr %x.dbg.spill, !701, !DIExpression(), !711)
  store ptr %x, ptr %_2, align 8, !dbg !713
  %0 = getelementptr inbounds i8, ptr %_2, i64 8, !dbg !713
  store ptr @"_ZN44_$LT$$RF$T$u20$as$u20$core..fmt..Pointer$GT$3fmt17h6d4adc6ce433aae6E", ptr %0, align 8, !dbg !713
  call void @llvm.memcpy.p0.p0.i64(ptr align 8 %_0, ptr align 8 %_2, i64 16, i1 false), !dbg !714
  ret void, !dbg !715
}

; core::fmt::builders::DebugStruct::field_with
; Function Attrs: uwtable
define internal align 8 ptr @_ZN4core3fmt8builders11DebugStruct10field_with17h084477a8c79ba9bdE(ptr align 8 %self, ptr align 1 %name.0, i64 %name.1, ptr align 8 %value_fmt) unnamed_addr #0 !dbg !716 {
start:
  %self.dbg.spill2 = alloca [1 x i8], align 1
  %e.dbg.spill = alloca [0 x i8], align 1
  %t.dbg.spill = alloca [0 x i8], align 1
  %value_fmt.dbg.spill = alloca [8 x i8], align 8
  %name.dbg.spill = alloca [16 x i8], align 8
  %self.dbg.spill = alloca [8 x i8], align 8
  %_8 = alloca [32 x i8], align 8
  %op = alloca [32 x i8], align 8
  %_4 = alloca [1 x i8], align 1
  store ptr %self, ptr %self.dbg.spill, align 8
    #dbg_declare(ptr %self.dbg.spill, !737, !DIExpression(), !740)
  store ptr %name.0, ptr %name.dbg.spill, align 8
  %0 = getelementptr inbounds i8, ptr %name.dbg.spill, i64 8
  store i64 %name.1, ptr %0, align 8
    #dbg_declare(ptr %name.dbg.spill, !738, !DIExpression(), !741)
  store ptr %value_fmt, ptr %value_fmt.dbg.spill, align 8
    #dbg_declare(ptr %value_fmt.dbg.spill, !739, !DIExpression(), !742)
    #dbg_declare(ptr %op, !743, !DIExpression(), !765)
    #dbg_declare(ptr %t.dbg.spill, !761, !DIExpression(), !767)
    #dbg_declare(ptr %e.dbg.spill, !763, !DIExpression(), !768)
  %1 = getelementptr inbounds i8, ptr %self, i64 8, !dbg !769
  %2 = load i8, ptr %1, align 8, !dbg !769
  %self1 = trunc nuw i8 %2 to i1, !dbg !769
  %3 = zext i1 %self1 to i8, !dbg !769
  store i8 %3, ptr %self.dbg.spill2, align 1, !dbg !769
    #dbg_declare(ptr %self.dbg.spill2, !760, !DIExpression(), !770)
  store ptr %self, ptr %op, align 8, !dbg !771
  %4 = getelementptr inbounds i8, ptr %op, i64 8, !dbg !771
  store ptr %name.0, ptr %4, align 8, !dbg !771
  %5 = getelementptr inbounds i8, ptr %4, i64 8, !dbg !771
  store i64 %name.1, ptr %5, align 8, !dbg !771
  %6 = getelementptr inbounds i8, ptr %op, i64 24, !dbg !771
  store ptr %value_fmt, ptr %6, align 8, !dbg !771
  %_7 = zext i1 %self1 to i64, !dbg !772
  %7 = trunc nuw i64 %_7 to i1, !dbg !773
  br i1 %7, label %bb3, label %bb4, !dbg !773

bb3:                                              ; preds = %start
  store i8 1, ptr %_4, align 1, !dbg !774
  br label %bb1, !dbg !775

bb4:                                              ; preds = %start
  call void @llvm.memcpy.p0.p0.i64(ptr align 8 %_8, ptr align 8 %op, i64 32, i1 false), !dbg !776
; call core::fmt::builders::DebugStruct::field_with::{{closure}}
  %8 = call zeroext i1 @"_ZN4core3fmt8builders11DebugStruct10field_with28_$u7b$$u7b$closure$u7d$$u7d$17hf56e82fb93c435cfE"(ptr align 8 %_8), !dbg !776
  %9 = zext i1 %8 to i8, !dbg !776
  store i8 %9, ptr %_4, align 1, !dbg !776
  br label %bb1, !dbg !777

bb1:                                              ; preds = %bb3, %bb4
  %10 = getelementptr inbounds i8, ptr %self, i64 8, !dbg !778
  %11 = load i8, ptr %_4, align 1, !dbg !778
  %12 = trunc nuw i8 %11 to i1, !dbg !778
  %13 = zext i1 %12 to i8, !dbg !778
  store i8 %13, ptr %10, align 8, !dbg !778
  %14 = getelementptr inbounds i8, ptr %self, i64 9, !dbg !779
  store i8 1, ptr %14, align 1, !dbg !779
  ret ptr %self, !dbg !780

bb2:                                              ; No predecessors!
  unreachable, !dbg !772
}

; core::fmt::builders::DebugStruct::field_with
; Function Attrs: uwtable
define internal align 8 ptr @_ZN4core3fmt8builders11DebugStruct10field_with17h28c86f7c390369f0E(ptr align 8 %self, ptr align 1 %name.0, i64 %name.1, ptr align 8 %value_fmt) unnamed_addr #0 !dbg !781 {
start:
  %self.dbg.spill2 = alloca [1 x i8], align 1
  %e.dbg.spill = alloca [0 x i8], align 1
  %t.dbg.spill = alloca [0 x i8], align 1
  %value_fmt.dbg.spill = alloca [8 x i8], align 8
  %name.dbg.spill = alloca [16 x i8], align 8
  %self.dbg.spill = alloca [8 x i8], align 8
  %_8 = alloca [32 x i8], align 8
  %op = alloca [32 x i8], align 8
  %_4 = alloca [1 x i8], align 1
  store ptr %self, ptr %self.dbg.spill, align 8
    #dbg_declare(ptr %self.dbg.spill, !792, !DIExpression(), !795)
  store ptr %name.0, ptr %name.dbg.spill, align 8
  %0 = getelementptr inbounds i8, ptr %name.dbg.spill, i64 8
  store i64 %name.1, ptr %0, align 8
    #dbg_declare(ptr %name.dbg.spill, !793, !DIExpression(), !796)
  store ptr %value_fmt, ptr %value_fmt.dbg.spill, align 8
    #dbg_declare(ptr %value_fmt.dbg.spill, !794, !DIExpression(), !797)
    #dbg_declare(ptr %op, !798, !DIExpression(), !816)
    #dbg_declare(ptr %t.dbg.spill, !812, !DIExpression(), !818)
    #dbg_declare(ptr %e.dbg.spill, !814, !DIExpression(), !819)
  %1 = getelementptr inbounds i8, ptr %self, i64 8, !dbg !820
  %2 = load i8, ptr %1, align 8, !dbg !820
  %self1 = trunc nuw i8 %2 to i1, !dbg !820
  %3 = zext i1 %self1 to i8, !dbg !820
  store i8 %3, ptr %self.dbg.spill2, align 1, !dbg !820
    #dbg_declare(ptr %self.dbg.spill2, !811, !DIExpression(), !821)
  store ptr %self, ptr %op, align 8, !dbg !822
  %4 = getelementptr inbounds i8, ptr %op, i64 8, !dbg !822
  store ptr %name.0, ptr %4, align 8, !dbg !822
  %5 = getelementptr inbounds i8, ptr %4, i64 8, !dbg !822
  store i64 %name.1, ptr %5, align 8, !dbg !822
  %6 = getelementptr inbounds i8, ptr %op, i64 24, !dbg !822
  store ptr %value_fmt, ptr %6, align 8, !dbg !822
  %_7 = zext i1 %self1 to i64, !dbg !823
  %7 = trunc nuw i64 %_7 to i1, !dbg !824
  br i1 %7, label %bb3, label %bb4, !dbg !824

bb3:                                              ; preds = %start
  store i8 1, ptr %_4, align 1, !dbg !825
  br label %bb1, !dbg !826

bb4:                                              ; preds = %start
  call void @llvm.memcpy.p0.p0.i64(ptr align 8 %_8, ptr align 8 %op, i64 32, i1 false), !dbg !827
; call core::fmt::builders::DebugStruct::field_with::{{closure}}
  %8 = call zeroext i1 @"_ZN4core3fmt8builders11DebugStruct10field_with28_$u7b$$u7b$closure$u7d$$u7d$17h032743e0141e3b39E"(ptr align 8 %_8), !dbg !827
  %9 = zext i1 %8 to i8, !dbg !827
  store i8 %9, ptr %_4, align 1, !dbg !827
  br label %bb1, !dbg !828

bb1:                                              ; preds = %bb3, %bb4
  %10 = getelementptr inbounds i8, ptr %self, i64 8, !dbg !829
  %11 = load i8, ptr %_4, align 1, !dbg !829
  %12 = trunc nuw i8 %11 to i1, !dbg !829
  %13 = zext i1 %12 to i8, !dbg !829
  store i8 %13, ptr %10, align 8, !dbg !829
  %14 = getelementptr inbounds i8, ptr %self, i64 9, !dbg !830
  store i8 1, ptr %14, align 1, !dbg !830
  ret ptr %self, !dbg !831

bb2:                                              ; No predecessors!
  unreachable, !dbg !823
}

; core::fmt::builders::DebugStruct::field_with
; Function Attrs: uwtable
define internal align 8 ptr @_ZN4core3fmt8builders11DebugStruct10field_with17hbef8728d5b7bd6cbE(ptr align 8 %self, ptr align 1 %name.0, i64 %name.1, ptr align 8 %value_fmt) unnamed_addr #0 !dbg !832 {
start:
  %self.dbg.spill2 = alloca [1 x i8], align 1
  %e.dbg.spill = alloca [0 x i8], align 1
  %t.dbg.spill = alloca [0 x i8], align 1
  %value_fmt.dbg.spill = alloca [8 x i8], align 8
  %name.dbg.spill = alloca [16 x i8], align 8
  %self.dbg.spill = alloca [8 x i8], align 8
  %_8 = alloca [32 x i8], align 8
  %op = alloca [32 x i8], align 8
  %_4 = alloca [1 x i8], align 1
  store ptr %self, ptr %self.dbg.spill, align 8
    #dbg_declare(ptr %self.dbg.spill, !843, !DIExpression(), !846)
  store ptr %name.0, ptr %name.dbg.spill, align 8
  %0 = getelementptr inbounds i8, ptr %name.dbg.spill, i64 8
  store i64 %name.1, ptr %0, align 8
    #dbg_declare(ptr %name.dbg.spill, !844, !DIExpression(), !847)
  store ptr %value_fmt, ptr %value_fmt.dbg.spill, align 8
    #dbg_declare(ptr %value_fmt.dbg.spill, !845, !DIExpression(), !848)
    #dbg_declare(ptr %op, !849, !DIExpression(), !867)
    #dbg_declare(ptr %t.dbg.spill, !863, !DIExpression(), !869)
    #dbg_declare(ptr %e.dbg.spill, !865, !DIExpression(), !870)
  %1 = getelementptr inbounds i8, ptr %self, i64 8, !dbg !871
  %2 = load i8, ptr %1, align 8, !dbg !871
  %self1 = trunc nuw i8 %2 to i1, !dbg !871
  %3 = zext i1 %self1 to i8, !dbg !871
  store i8 %3, ptr %self.dbg.spill2, align 1, !dbg !871
    #dbg_declare(ptr %self.dbg.spill2, !862, !DIExpression(), !872)
  store ptr %self, ptr %op, align 8, !dbg !873
  %4 = getelementptr inbounds i8, ptr %op, i64 8, !dbg !873
  store ptr %name.0, ptr %4, align 8, !dbg !873
  %5 = getelementptr inbounds i8, ptr %4, i64 8, !dbg !873
  store i64 %name.1, ptr %5, align 8, !dbg !873
  %6 = getelementptr inbounds i8, ptr %op, i64 24, !dbg !873
  store ptr %value_fmt, ptr %6, align 8, !dbg !873
  %_7 = zext i1 %self1 to i64, !dbg !874
  %7 = trunc nuw i64 %_7 to i1, !dbg !875
  br i1 %7, label %bb3, label %bb4, !dbg !875

bb3:                                              ; preds = %start
  store i8 1, ptr %_4, align 1, !dbg !876
  br label %bb1, !dbg !877

bb4:                                              ; preds = %start
  call void @llvm.memcpy.p0.p0.i64(ptr align 8 %_8, ptr align 8 %op, i64 32, i1 false), !dbg !878
; call core::fmt::builders::DebugStruct::field_with::{{closure}}
  %8 = call zeroext i1 @"_ZN4core3fmt8builders11DebugStruct10field_with28_$u7b$$u7b$closure$u7d$$u7d$17h8198127ae28b9e7aE"(ptr align 8 %_8), !dbg !878
  %9 = zext i1 %8 to i8, !dbg !878
  store i8 %9, ptr %_4, align 1, !dbg !878
  br label %bb1, !dbg !879

bb1:                                              ; preds = %bb3, %bb4
  %10 = getelementptr inbounds i8, ptr %self, i64 8, !dbg !880
  %11 = load i8, ptr %_4, align 1, !dbg !880
  %12 = trunc nuw i8 %11 to i1, !dbg !880
  %13 = zext i1 %12 to i8, !dbg !880
  store i8 %13, ptr %10, align 8, !dbg !880
  %14 = getelementptr inbounds i8, ptr %self, i64 9, !dbg !881
  store i8 1, ptr %14, align 1, !dbg !881
  ret ptr %self, !dbg !882

bb2:                                              ; No predecessors!
  unreachable, !dbg !874
}

; core::fmt::builders::DebugStruct::field_with
; Function Attrs: uwtable
define internal align 8 ptr @_ZN4core3fmt8builders11DebugStruct10field_with17hed5d35915c53ea2dE(ptr align 8 %self, ptr align 1 %name.0, i64 %name.1, ptr align 8 %value_fmt) unnamed_addr #0 !dbg !883 {
start:
  %self.dbg.spill2 = alloca [1 x i8], align 1
  %e.dbg.spill = alloca [0 x i8], align 1
  %t.dbg.spill = alloca [0 x i8], align 1
  %value_fmt.dbg.spill = alloca [8 x i8], align 8
  %name.dbg.spill = alloca [16 x i8], align 8
  %self.dbg.spill = alloca [8 x i8], align 8
  %_8 = alloca [32 x i8], align 8
  %op = alloca [32 x i8], align 8
  %_4 = alloca [1 x i8], align 1
  store ptr %self, ptr %self.dbg.spill, align 8
    #dbg_declare(ptr %self.dbg.spill, !894, !DIExpression(), !897)
  store ptr %name.0, ptr %name.dbg.spill, align 8
  %0 = getelementptr inbounds i8, ptr %name.dbg.spill, i64 8
  store i64 %name.1, ptr %0, align 8
    #dbg_declare(ptr %name.dbg.spill, !895, !DIExpression(), !898)
  store ptr %value_fmt, ptr %value_fmt.dbg.spill, align 8
    #dbg_declare(ptr %value_fmt.dbg.spill, !896, !DIExpression(), !899)
    #dbg_declare(ptr %op, !900, !DIExpression(), !918)
    #dbg_declare(ptr %t.dbg.spill, !914, !DIExpression(), !920)
    #dbg_declare(ptr %e.dbg.spill, !916, !DIExpression(), !921)
  %1 = getelementptr inbounds i8, ptr %self, i64 8, !dbg !922
  %2 = load i8, ptr %1, align 8, !dbg !922
  %self1 = trunc nuw i8 %2 to i1, !dbg !922
  %3 = zext i1 %self1 to i8, !dbg !922
  store i8 %3, ptr %self.dbg.spill2, align 1, !dbg !922
    #dbg_declare(ptr %self.dbg.spill2, !913, !DIExpression(), !923)
  store ptr %self, ptr %op, align 8, !dbg !924
  %4 = getelementptr inbounds i8, ptr %op, i64 8, !dbg !924
  store ptr %name.0, ptr %4, align 8, !dbg !924
  %5 = getelementptr inbounds i8, ptr %4, i64 8, !dbg !924
  store i64 %name.1, ptr %5, align 8, !dbg !924
  %6 = getelementptr inbounds i8, ptr %op, i64 24, !dbg !924
  store ptr %value_fmt, ptr %6, align 8, !dbg !924
  %_7 = zext i1 %self1 to i64, !dbg !925
  %7 = trunc nuw i64 %_7 to i1, !dbg !926
  br i1 %7, label %bb3, label %bb4, !dbg !926

bb3:                                              ; preds = %start
  store i8 1, ptr %_4, align 1, !dbg !927
  br label %bb1, !dbg !928

bb4:                                              ; preds = %start
  call void @llvm.memcpy.p0.p0.i64(ptr align 8 %_8, ptr align 8 %op, i64 32, i1 false), !dbg !929
; call core::fmt::builders::DebugStruct::field_with::{{closure}}
  %8 = call zeroext i1 @"_ZN4core3fmt8builders11DebugStruct10field_with28_$u7b$$u7b$closure$u7d$$u7d$17h6b7f3c2287ba5965E"(ptr align 8 %_8), !dbg !929
  %9 = zext i1 %8 to i8, !dbg !929
  store i8 %9, ptr %_4, align 1, !dbg !929
  br label %bb1, !dbg !930

bb1:                                              ; preds = %bb3, %bb4
  %10 = getelementptr inbounds i8, ptr %self, i64 8, !dbg !931
  %11 = load i8, ptr %_4, align 1, !dbg !931
  %12 = trunc nuw i8 %11 to i1, !dbg !931
  %13 = zext i1 %12 to i8, !dbg !931
  store i8 %13, ptr %10, align 8, !dbg !931
  %14 = getelementptr inbounds i8, ptr %self, i64 9, !dbg !932
  store i8 1, ptr %14, align 1, !dbg !932
  ret ptr %self, !dbg !933

bb2:                                              ; No predecessors!
  unreachable, !dbg !925
}

; core::fmt::builders::DebugStruct::field_with
; Function Attrs: uwtable
define internal align 8 ptr @_ZN4core3fmt8builders11DebugStruct10field_with17hedab180bb46e65ccE(ptr align 8 %self, ptr align 1 %name.0, i64 %name.1, ptr align 8 %value_fmt) unnamed_addr #0 !dbg !934 {
start:
  %self.dbg.spill2 = alloca [1 x i8], align 1
  %e.dbg.spill = alloca [0 x i8], align 1
  %t.dbg.spill = alloca [0 x i8], align 1
  %value_fmt.dbg.spill = alloca [8 x i8], align 8
  %name.dbg.spill = alloca [16 x i8], align 8
  %self.dbg.spill = alloca [8 x i8], align 8
  %_8 = alloca [32 x i8], align 8
  %op = alloca [32 x i8], align 8
  %_4 = alloca [1 x i8], align 1
  store ptr %self, ptr %self.dbg.spill, align 8
    #dbg_declare(ptr %self.dbg.spill, !944, !DIExpression(), !947)
  store ptr %name.0, ptr %name.dbg.spill, align 8
  %0 = getelementptr inbounds i8, ptr %name.dbg.spill, i64 8
  store i64 %name.1, ptr %0, align 8
    #dbg_declare(ptr %name.dbg.spill, !945, !DIExpression(), !948)
  store ptr %value_fmt, ptr %value_fmt.dbg.spill, align 8
    #dbg_declare(ptr %value_fmt.dbg.spill, !946, !DIExpression(), !949)
    #dbg_declare(ptr %op, !950, !DIExpression(), !968)
    #dbg_declare(ptr %t.dbg.spill, !964, !DIExpression(), !970)
    #dbg_declare(ptr %e.dbg.spill, !966, !DIExpression(), !971)
  %1 = getelementptr inbounds i8, ptr %self, i64 8, !dbg !972
  %2 = load i8, ptr %1, align 8, !dbg !972
  %self1 = trunc nuw i8 %2 to i1, !dbg !972
  %3 = zext i1 %self1 to i8, !dbg !972
  store i8 %3, ptr %self.dbg.spill2, align 1, !dbg !972
    #dbg_declare(ptr %self.dbg.spill2, !963, !DIExpression(), !973)
  store ptr %self, ptr %op, align 8, !dbg !974
  %4 = getelementptr inbounds i8, ptr %op, i64 8, !dbg !974
  store ptr %name.0, ptr %4, align 8, !dbg !974
  %5 = getelementptr inbounds i8, ptr %4, i64 8, !dbg !974
  store i64 %name.1, ptr %5, align 8, !dbg !974
  %6 = getelementptr inbounds i8, ptr %op, i64 24, !dbg !974
  store ptr %value_fmt, ptr %6, align 8, !dbg !974
  %_7 = zext i1 %self1 to i64, !dbg !975
  %7 = trunc nuw i64 %_7 to i1, !dbg !976
  br i1 %7, label %bb3, label %bb4, !dbg !976

bb3:                                              ; preds = %start
  store i8 1, ptr %_4, align 1, !dbg !977
  br label %bb1, !dbg !978

bb4:                                              ; preds = %start
  call void @llvm.memcpy.p0.p0.i64(ptr align 8 %_8, ptr align 8 %op, i64 32, i1 false), !dbg !979
; call core::fmt::builders::DebugStruct::field_with::{{closure}}
  %8 = call zeroext i1 @"_ZN4core3fmt8builders11DebugStruct10field_with28_$u7b$$u7b$closure$u7d$$u7d$17hc3883134662b49e0E"(ptr align 8 %_8), !dbg !979
  %9 = zext i1 %8 to i8, !dbg !979
  store i8 %9, ptr %_4, align 1, !dbg !979
  br label %bb1, !dbg !980

bb1:                                              ; preds = %bb3, %bb4
  %10 = getelementptr inbounds i8, ptr %self, i64 8, !dbg !981
  %11 = load i8, ptr %_4, align 1, !dbg !981
  %12 = trunc nuw i8 %11 to i1, !dbg !981
  %13 = zext i1 %12 to i8, !dbg !981
  store i8 %13, ptr %10, align 8, !dbg !981
  %14 = getelementptr inbounds i8, ptr %self, i64 9, !dbg !982
  store i8 1, ptr %14, align 1, !dbg !982
  ret ptr %self, !dbg !983

bb2:                                              ; No predecessors!
  unreachable, !dbg !975
}

; core::fmt::builders::DebugStruct::field_with::{{closure}}
; Function Attrs: inlinehint uwtable
define internal zeroext i1 @"_ZN4core3fmt8builders11DebugStruct10field_with28_$u7b$$u7b$closure$u7d$$u7d$17h032743e0141e3b39E"(ptr align 8 %_1) unnamed_addr #1 personality ptr @rust_eh_personality !dbg !984 {
start:
  %self.dbg.spill58 = alloca [1 x i8], align 1
  %self.dbg.spill56 = alloca [1 x i8], align 1
  %self.dbg.spill54 = alloca [1 x i8], align 1
  %self.dbg.spill52 = alloca [1 x i8], align 1
  %self.dbg.spill50 = alloca [1 x i8], align 1
  %self.dbg.spill48 = alloca [1 x i8], align 1
  %self.dbg.spill46 = alloca [1 x i8], align 1
  %0 = alloca [16 x i8], align 8
  %self.dbg.spill = alloca [8 x i8], align 8
  %t.dbg.spill44 = alloca [0 x i8], align 1
  %e.dbg.spill43 = alloca [0 x i8], align 1
  %residual.dbg.spill42 = alloca [0 x i8], align 1
  %e.dbg.spill41 = alloca [0 x i8], align 1
  %v.dbg.spill40 = alloca [0 x i8], align 1
  %t.dbg.spill39 = alloca [0 x i8], align 1
  %e.dbg.spill38 = alloca [0 x i8], align 1
  %residual.dbg.spill37 = alloca [0 x i8], align 1
  %e.dbg.spill36 = alloca [0 x i8], align 1
  %v.dbg.spill35 = alloca [0 x i8], align 1
  %t.dbg.spill34 = alloca [0 x i8], align 1
  %e.dbg.spill33 = alloca [0 x i8], align 1
  %residual.dbg.spill32 = alloca [0 x i8], align 1
  %e.dbg.spill31 = alloca [0 x i8], align 1
  %v.dbg.spill30 = alloca [0 x i8], align 1
  %t.dbg.spill29 = alloca [0 x i8], align 1
  %e.dbg.spill28 = alloca [0 x i8], align 1
  %residual.dbg.spill27 = alloca [0 x i8], align 1
  %e.dbg.spill26 = alloca [0 x i8], align 1
  %v.dbg.spill25 = alloca [0 x i8], align 1
  %t.dbg.spill24 = alloca [0 x i8], align 1
  %e.dbg.spill23 = alloca [0 x i8], align 1
  %residual.dbg.spill22 = alloca [0 x i8], align 1
  %e.dbg.spill21 = alloca [0 x i8], align 1
  %v.dbg.spill20 = alloca [0 x i8], align 1
  %t.dbg.spill19 = alloca [0 x i8], align 1
  %e.dbg.spill18 = alloca [0 x i8], align 1
  %residual.dbg.spill17 = alloca [0 x i8], align 1
  %e.dbg.spill16 = alloca [0 x i8], align 1
  %v.dbg.spill15 = alloca [0 x i8], align 1
  %t.dbg.spill = alloca [0 x i8], align 1
  %e.dbg.spill14 = alloca [0 x i8], align 1
  %residual.dbg.spill13 = alloca [0 x i8], align 1
  %e.dbg.spill = alloca [0 x i8], align 1
  %v.dbg.spill = alloca [0 x i8], align 1
  %val.dbg.spill12 = alloca [0 x i8], align 1
  %residual.dbg.spill11 = alloca [0 x i8], align 1
  %val.dbg.spill10 = alloca [0 x i8], align 1
  %residual.dbg.spill9 = alloca [0 x i8], align 1
  %val.dbg.spill8 = alloca [0 x i8], align 1
  %residual.dbg.spill7 = alloca [0 x i8], align 1
  %val.dbg.spill6 = alloca [0 x i8], align 1
  %residual.dbg.spill5 = alloca [0 x i8], align 1
  %val.dbg.spill4 = alloca [0 x i8], align 1
  %residual.dbg.spill3 = alloca [0 x i8], align 1
  %val.dbg.spill2 = alloca [0 x i8], align 1
  %residual.dbg.spill1 = alloca [0 x i8], align 1
  %val.dbg.spill = alloca [0 x i8], align 1
  %residual.dbg.spill = alloca [0 x i8], align 1
  %_2.dbg.spill = alloca [0 x i8], align 1
  %_44 = alloca [1 x i8], align 1
  %prefix = alloca [16 x i8], align 8
  %writer = alloca [24 x i8], align 8
  %state = alloca [1 x i8], align 1
  %slot = alloca [24 x i8], align 8
  %_0 = alloca [1 x i8], align 1
    #dbg_declare(ptr %_1, !988, !DIExpression(DW_OP_deref), !1067)
    #dbg_declare(ptr %_1, !989, !DIExpression(DW_OP_plus_uconst, 8, DW_OP_deref), !1068)
    #dbg_declare(ptr %_1, !990, !DIExpression(DW_OP_plus_uconst, 24), !1069)
    #dbg_declare(ptr %_2.dbg.spill, !1066, !DIExpression(), !1070)
    #dbg_declare(ptr %slot, !1013, !DIExpression(), !1071)
    #dbg_declare(ptr %state, !1036, !DIExpression(), !1072)
    #dbg_declare(ptr %writer, !1038, !DIExpression(), !1073)
    #dbg_declare(ptr %prefix, !1052, !DIExpression(), !1074)
    #dbg_declare(ptr %residual.dbg.spill, !991, !DIExpression(), !1075)
    #dbg_declare(ptr %val.dbg.spill, !1011, !DIExpression(), !1076)
    #dbg_declare(ptr %residual.dbg.spill1, !1040, !DIExpression(), !1077)
    #dbg_declare(ptr %val.dbg.spill2, !1042, !DIExpression(), !1078)
    #dbg_declare(ptr %residual.dbg.spill3, !1044, !DIExpression(), !1079)
    #dbg_declare(ptr %val.dbg.spill4, !1046, !DIExpression(), !1080)
    #dbg_declare(ptr %residual.dbg.spill5, !1048, !DIExpression(), !1081)
    #dbg_declare(ptr %val.dbg.spill6, !1050, !DIExpression(), !1082)
    #dbg_declare(ptr %residual.dbg.spill7, !1054, !DIExpression(), !1083)
    #dbg_declare(ptr %val.dbg.spill8, !1056, !DIExpression(), !1084)
    #dbg_declare(ptr %residual.dbg.spill9, !1058, !DIExpression(), !1085)
    #dbg_declare(ptr %val.dbg.spill10, !1060, !DIExpression(), !1086)
    #dbg_declare(ptr %residual.dbg.spill11, !1062, !DIExpression(), !1087)
    #dbg_declare(ptr %val.dbg.spill12, !1064, !DIExpression(), !1088)
    #dbg_declare(ptr %v.dbg.spill, !1089, !DIExpression(), !1141)
    #dbg_declare(ptr %e.dbg.spill, !1115, !DIExpression(), !1143)
    #dbg_declare(ptr %residual.dbg.spill13, !1144, !DIExpression(), !1183)
    #dbg_declare(ptr %e.dbg.spill14, !1167, !DIExpression(), !1186)
    #dbg_declare(ptr %t.dbg.spill, !1187, !DIExpression(), !1196)
    #dbg_declare(ptr %v.dbg.spill15, !1117, !DIExpression(), !1198)
    #dbg_declare(ptr %e.dbg.spill16, !1119, !DIExpression(), !1200)
    #dbg_declare(ptr %residual.dbg.spill17, !1144, !DIExpression(), !1201)
    #dbg_declare(ptr %e.dbg.spill18, !1169, !DIExpression(), !1204)
    #dbg_declare(ptr %t.dbg.spill19, !1187, !DIExpression(), !1205)
    #dbg_declare(ptr %v.dbg.spill20, !1121, !DIExpression(), !1208)
    #dbg_declare(ptr %e.dbg.spill21, !1123, !DIExpression(), !1210)
    #dbg_declare(ptr %residual.dbg.spill22, !1144, !DIExpression(), !1211)
    #dbg_declare(ptr %e.dbg.spill23, !1171, !DIExpression(), !1214)
    #dbg_declare(ptr %t.dbg.spill24, !1187, !DIExpression(), !1215)
    #dbg_declare(ptr %v.dbg.spill25, !1125, !DIExpression(), !1218)
    #dbg_declare(ptr %e.dbg.spill26, !1127, !DIExpression(), !1220)
    #dbg_declare(ptr %residual.dbg.spill27, !1144, !DIExpression(), !1221)
    #dbg_declare(ptr %e.dbg.spill28, !1173, !DIExpression(), !1224)
    #dbg_declare(ptr %t.dbg.spill29, !1187, !DIExpression(), !1225)
    #dbg_declare(ptr %v.dbg.spill30, !1129, !DIExpression(), !1228)
    #dbg_declare(ptr %e.dbg.spill31, !1131, !DIExpression(), !1230)
    #dbg_declare(ptr %residual.dbg.spill32, !1144, !DIExpression(), !1231)
    #dbg_declare(ptr %e.dbg.spill33, !1175, !DIExpression(), !1234)
    #dbg_declare(ptr %t.dbg.spill34, !1187, !DIExpression(), !1235)
    #dbg_declare(ptr %v.dbg.spill35, !1133, !DIExpression(), !1238)
    #dbg_declare(ptr %e.dbg.spill36, !1135, !DIExpression(), !1240)
    #dbg_declare(ptr %residual.dbg.spill37, !1144, !DIExpression(), !1241)
    #dbg_declare(ptr %e.dbg.spill38, !1177, !DIExpression(), !1244)
    #dbg_declare(ptr %t.dbg.spill39, !1187, !DIExpression(), !1245)
    #dbg_declare(ptr %v.dbg.spill40, !1137, !DIExpression(), !1248)
    #dbg_declare(ptr %e.dbg.spill41, !1139, !DIExpression(), !1250)
    #dbg_declare(ptr %residual.dbg.spill42, !1144, !DIExpression(), !1251)
    #dbg_declare(ptr %e.dbg.spill43, !1179, !DIExpression(), !1254)
    #dbg_declare(ptr %t.dbg.spill44, !1187, !DIExpression(), !1255)
  store i8 1, ptr %_44, align 1, !dbg !1258
  %self = load ptr, ptr %_1, align 8, !dbg !1258
  store ptr %self, ptr %self.dbg.spill, align 8, !dbg !1258
    #dbg_declare(ptr %self.dbg.spill, !1259, !DIExpression(), !1266)
  %_45 = load ptr, ptr %self, align 8, !dbg !1268
  %1 = getelementptr inbounds i8, ptr %_45, i64 16, !dbg !1269
  %_47 = load i32, ptr %1, align 8, !dbg !1269
  %_46 = and i32 %_47, 8388608, !dbg !1269
  %2 = icmp eq i32 %_46, 0, !dbg !1258
  br i1 %2, label %bb11, label %bb1, !dbg !1258

bb11:                                             ; preds = %start
  %_34 = load ptr, ptr %_1, align 8, !dbg !1276
  %3 = getelementptr inbounds i8, ptr %_34, i64 9, !dbg !1276
  %4 = load i8, ptr %3, align 1, !dbg !1276
  %_20 = trunc nuw i8 %4 to i1, !dbg !1276
  br i1 %_20, label %bb12, label %bb13, !dbg !1276

bb1:                                              ; preds = %start
  %_28 = load ptr, ptr %_1, align 8, !dbg !1277
  %5 = getelementptr inbounds i8, ptr %_28, i64 9, !dbg !1277
  %6 = load i8, ptr %5, align 1, !dbg !1277
  %_3 = trunc nuw i8 %6 to i1, !dbg !1277
  br i1 %_3, label %bb5, label %bb2, !dbg !1277

bb13:                                             ; preds = %bb11
  store ptr @alloc_fe2ddbdc622a788f5416063d1e8d8ad4, ptr %prefix, align 8, !dbg !1278
  %7 = getelementptr inbounds i8, ptr %prefix, i64 8, !dbg !1278
  store i64 3, ptr %7, align 8, !dbg !1278
  br label %bb14, !dbg !1279

bb12:                                             ; preds = %bb11
  store ptr @alloc_94b00be069aafad82a2c6df764237b82, ptr %prefix, align 8, !dbg !1280
  %8 = getelementptr inbounds i8, ptr %prefix, i64 8, !dbg !1280
  store i64 2, ptr %8, align 8, !dbg !1280
  br label %bb14, !dbg !1279

bb14:                                             ; preds = %bb12, %bb13
  %_35 = load ptr, ptr %_1, align 8, !dbg !1229
  %_36 = load ptr, ptr %_35, align 8, !dbg !1229
  %_22.0 = load ptr, ptr %prefix, align 8, !dbg !1281
  %9 = getelementptr inbounds i8, ptr %prefix, i64 8, !dbg !1281
  %_22.1 = load i64, ptr %9, align 8, !dbg !1281
; invoke core::fmt::Formatter::write_str
  %self45 = invoke zeroext i1 @_ZN4core3fmt9Formatter9write_str17hc08bce2768144e42E(ptr align 8 %_36, ptr align 1 %_22.0, i64 %_22.1)
          to label %bb15 unwind label %cleanup, !dbg !1282

bb27:                                             ; preds = %cleanup
  %10 = load i8, ptr %_44, align 1, !dbg !1283
  %11 = trunc nuw i8 %10 to i1, !dbg !1283
  br i1 %11, label %bb26, label %bb24, !dbg !1283

cleanup:                                          ; preds = %bb35, %bb33, %bb31, %bb6, %bb5, %bb2, %bb41, %bb39, %bb37, %bb14
  %12 = landingpad { ptr, i32 }
          cleanup
  %13 = extractvalue { ptr, i32 } %12, 0
  %14 = extractvalue { ptr, i32 } %12, 1
  store ptr %13, ptr %0, align 8
  %15 = getelementptr inbounds i8, ptr %0, i64 8
  store i32 %14, ptr %15, align 8
  br label %bb27

bb15:                                             ; preds = %bb14
  %16 = zext i1 %self45 to i8, !dbg !1229
  store i8 %16, ptr %self.dbg.spill46, align 1, !dbg !1229
    #dbg_declare(ptr %self.dbg.spill46, !1114, !DIExpression(), !1284)
  %_52 = zext i1 %self45 to i64, !dbg !1285
  %17 = trunc nuw i64 %_52 to i1, !dbg !1286
  br i1 %17, label %bb36, label %bb37, !dbg !1286

bb36:                                             ; preds = %bb15
  store i8 1, ptr %_0, align 1, !dbg !1287
  br label %bb20, !dbg !1288

bb37:                                             ; preds = %bb15
  %_37 = load ptr, ptr %_1, align 8, !dbg !1239
  %_38 = load ptr, ptr %_37, align 8, !dbg !1239
  %18 = getelementptr inbounds i8, ptr %_1, i64 8, !dbg !1291
  %_39.0 = load ptr, ptr %18, align 8, !dbg !1291
  %19 = getelementptr inbounds i8, ptr %18, i64 8, !dbg !1291
  %_39.1 = load i64, ptr %19, align 8, !dbg !1291
; invoke core::fmt::Formatter::write_str
  %self47 = invoke zeroext i1 @_ZN4core3fmt9Formatter9write_str17hc08bce2768144e42E(ptr align 8 %_38, ptr align 1 %_39.0, i64 %_39.1)
          to label %bb16 unwind label %cleanup, !dbg !1292

bb16:                                             ; preds = %bb37
  %20 = zext i1 %self47 to i8, !dbg !1239
  store i8 %20, ptr %self.dbg.spill48, align 1, !dbg !1239
    #dbg_declare(ptr %self.dbg.spill48, !1114, !DIExpression(), !1293)
  %_53 = zext i1 %self47 to i64, !dbg !1294
  %21 = trunc nuw i64 %_53 to i1, !dbg !1295
  br i1 %21, label %bb38, label %bb39, !dbg !1295

bb38:                                             ; preds = %bb16
  store i8 1, ptr %_0, align 1, !dbg !1296
  br label %bb20, !dbg !1288

bb39:                                             ; preds = %bb16
  %_40 = load ptr, ptr %_1, align 8, !dbg !1249
  %_41 = load ptr, ptr %_40, align 8, !dbg !1249
; invoke core::fmt::Formatter::write_str
  %self49 = invoke zeroext i1 @_ZN4core3fmt9Formatter9write_str17hc08bce2768144e42E(ptr align 8 %_41, ptr align 1 @alloc_556e4180596b5b612bb6ed6c0cbb55e1, i64 2)
          to label %bb17 unwind label %cleanup, !dbg !1297

bb17:                                             ; preds = %bb39
  %22 = zext i1 %self49 to i8, !dbg !1249
  store i8 %22, ptr %self.dbg.spill50, align 1, !dbg !1249
    #dbg_declare(ptr %self.dbg.spill50, !1114, !DIExpression(), !1298)
  %_54 = zext i1 %self49 to i64, !dbg !1299
  %23 = trunc nuw i64 %_54 to i1, !dbg !1300
  br i1 %23, label %bb40, label %bb41, !dbg !1300

bb40:                                             ; preds = %bb17
  store i8 1, ptr %_0, align 1, !dbg !1301
  br label %bb20, !dbg !1288

bb41:                                             ; preds = %bb17
  store i8 0, ptr %_44, align 1, !dbg !1302
  %24 = getelementptr inbounds i8, ptr %_1, i64 24, !dbg !1302
  %_25 = load ptr, ptr %24, align 8, !dbg !1302
  %_42 = load ptr, ptr %_1, align 8, !dbg !1303
  %_43 = load ptr, ptr %_42, align 8, !dbg !1303
; invoke <*const T as core::fmt::Pointer>::fmt::{{closure}}
  %25 = invoke zeroext i1 @"_ZN54_$LT$$BP$const$u20$T$u20$as$u20$core..fmt..Pointer$GT$3fmt28_$u7b$$u7b$closure$u7d$$u7d$17h35287d16bad9d187E"(ptr align 8 %_25, ptr align 8 %_43)
          to label %bb18 unwind label %cleanup, !dbg !1302

bb18:                                             ; preds = %bb41
  %26 = zext i1 %25 to i8, !dbg !1302
  store i8 %26, ptr %_0, align 1, !dbg !1302
  br label %bb19, !dbg !1304

bb19:                                             ; preds = %bb10, %bb18
  br label %bb23, !dbg !1283

bb20:                                             ; preds = %bb36, %bb38, %bb40
  br label %bb22, !dbg !1305

bb22:                                             ; preds = %bb21, %bb28, %bb20
  %27 = load i8, ptr %_44, align 1, !dbg !1283
  %28 = trunc nuw i8 %27 to i1, !dbg !1283
  br i1 %28, label %bb25, label %bb23, !dbg !1283

bb2:                                              ; preds = %bb1
  %_29 = load ptr, ptr %_1, align 8, !dbg !1142
  %_30 = load ptr, ptr %_29, align 8, !dbg !1142
; invoke core::fmt::Formatter::write_str
  %self51 = invoke zeroext i1 @_ZN4core3fmt9Formatter9write_str17hc08bce2768144e42E(ptr align 8 %_30, ptr align 1 @alloc_3690db001d3db01550bdb6f3f450de28, i64 3)
          to label %bb3 unwind label %cleanup, !dbg !1307

bb5:                                              ; preds = %bb29, %bb1
  store ptr null, ptr %slot, align 8, !dbg !1308
  store i8 1, ptr %state, align 1, !dbg !1309
  %_31 = load ptr, ptr %_1, align 8, !dbg !1315
  %_32 = load ptr, ptr %_31, align 8, !dbg !1315
; invoke core::fmt::builders::PadAdapter::wrap
  invoke void @_ZN4core3fmt8builders10PadAdapter4wrap17h0ee5960baccced1dE(ptr sret([24 x i8]) align 8 %writer, ptr align 8 %_32, ptr align 8 %slot, ptr align 1 %state)
          to label %bb6 unwind label %cleanup, !dbg !1316

bb3:                                              ; preds = %bb2
  %29 = zext i1 %self51 to i8, !dbg !1142
  store i8 %29, ptr %self.dbg.spill52, align 1, !dbg !1142
    #dbg_declare(ptr %self.dbg.spill52, !1114, !DIExpression(), !1317)
  %_48 = zext i1 %self51 to i64, !dbg !1318
  %30 = trunc nuw i64 %_48 to i1, !dbg !1319
  br i1 %30, label %bb28, label %bb29, !dbg !1319

bb28:                                             ; preds = %bb3
  store i8 1, ptr %_0, align 1, !dbg !1320
  br label %bb22, !dbg !1305

bb29:                                             ; preds = %bb3
  br label %bb5, !dbg !1321

bb6:                                              ; preds = %bb5
  %31 = getelementptr inbounds i8, ptr %_1, i64 8, !dbg !1322
  %_33.0 = load ptr, ptr %31, align 8, !dbg !1322
  %32 = getelementptr inbounds i8, ptr %31, i64 8, !dbg !1322
  %_33.1 = load i64, ptr %32, align 8, !dbg !1322
; invoke core::fmt::Formatter::write_str
  %self53 = invoke zeroext i1 @_ZN4core3fmt9Formatter9write_str17hc08bce2768144e42E(ptr align 8 %writer, ptr align 1 %_33.0, i64 %_33.1)
          to label %bb7 unwind label %cleanup, !dbg !1323

bb7:                                              ; preds = %bb6
  %33 = zext i1 %self53 to i8, !dbg !1199
  store i8 %33, ptr %self.dbg.spill54, align 1, !dbg !1199
    #dbg_declare(ptr %self.dbg.spill54, !1114, !DIExpression(), !1324)
  %_49 = zext i1 %self53 to i64, !dbg !1325
  %34 = trunc nuw i64 %_49 to i1, !dbg !1326
  br i1 %34, label %bb30, label %bb31, !dbg !1326

bb30:                                             ; preds = %bb7
  store i8 1, ptr %_0, align 1, !dbg !1327
  br label %bb21, !dbg !1328

bb31:                                             ; preds = %bb7
; invoke core::fmt::Formatter::write_str
  %self55 = invoke zeroext i1 @_ZN4core3fmt9Formatter9write_str17hc08bce2768144e42E(ptr align 8 %writer, ptr align 1 @alloc_556e4180596b5b612bb6ed6c0cbb55e1, i64 2)
          to label %bb8 unwind label %cleanup, !dbg !1330

bb8:                                              ; preds = %bb31
  %35 = zext i1 %self55 to i8, !dbg !1209
  store i8 %35, ptr %self.dbg.spill56, align 1, !dbg !1209
    #dbg_declare(ptr %self.dbg.spill56, !1114, !DIExpression(), !1331)
  %_50 = zext i1 %self55 to i64, !dbg !1332
  %36 = trunc nuw i64 %_50 to i1, !dbg !1333
  br i1 %36, label %bb32, label %bb33, !dbg !1333

bb32:                                             ; preds = %bb8
  store i8 1, ptr %_0, align 1, !dbg !1334
  br label %bb21, !dbg !1328

bb33:                                             ; preds = %bb8
  store i8 0, ptr %_44, align 1, !dbg !1219
  %37 = getelementptr inbounds i8, ptr %_1, i64 24, !dbg !1219
  %_15 = load ptr, ptr %37, align 8, !dbg !1219
; invoke <*const T as core::fmt::Pointer>::fmt::{{closure}}
  %self57 = invoke zeroext i1 @"_ZN54_$LT$$BP$const$u20$T$u20$as$u20$core..fmt..Pointer$GT$3fmt28_$u7b$$u7b$closure$u7d$$u7d$17h35287d16bad9d187E"(ptr align 8 %_15, ptr align 8 %writer)
          to label %bb9 unwind label %cleanup, !dbg !1219

bb9:                                              ; preds = %bb33
  %38 = zext i1 %self57 to i8, !dbg !1219
  store i8 %38, ptr %self.dbg.spill58, align 1, !dbg !1219
    #dbg_declare(ptr %self.dbg.spill58, !1114, !DIExpression(), !1335)
  %_51 = zext i1 %self57 to i64, !dbg !1336
  %39 = trunc nuw i64 %_51 to i1, !dbg !1337
  br i1 %39, label %bb34, label %bb35, !dbg !1337

bb34:                                             ; preds = %bb9
  store i8 1, ptr %_0, align 1, !dbg !1338
  br label %bb21, !dbg !1328

bb35:                                             ; preds = %bb9
; invoke core::fmt::Formatter::write_str
  %40 = invoke zeroext i1 @_ZN4core3fmt9Formatter9write_str17hc08bce2768144e42E(ptr align 8 %writer, ptr align 1 @alloc_f7ac0c356c6ac6fcd03badb685e09ca2, i64 2)
          to label %bb10 unwind label %cleanup, !dbg !1339

bb10:                                             ; preds = %bb35
  %41 = zext i1 %40 to i8, !dbg !1340
  store i8 %41, ptr %_0, align 1, !dbg !1340
  br label %bb19, !dbg !1304

bb23:                                             ; preds = %bb25, %bb22, %bb19
  %42 = load i8, ptr %_0, align 1, !dbg !1341
  %43 = trunc nuw i8 %42 to i1, !dbg !1341
  ret i1 %43, !dbg !1341

bb21:                                             ; preds = %bb30, %bb32, %bb34
  br label %bb22, !dbg !1305

bb25:                                             ; preds = %bb22
  br label %bb23, !dbg !1283

bb4:                                              ; No predecessors!
  unreachable, !dbg !1305

bb24:                                             ; preds = %bb26, %bb27
  %44 = load ptr, ptr %0, align 8, !dbg !1342
  %45 = getelementptr inbounds i8, ptr %0, i64 8, !dbg !1342
  %46 = load i32, ptr %45, align 8, !dbg !1342
  %47 = insertvalue { ptr, i32 } poison, ptr %44, 0, !dbg !1342
  %48 = insertvalue { ptr, i32 } %47, i32 %46, 1, !dbg !1342
  resume { ptr, i32 } %48, !dbg !1342

bb26:                                             ; preds = %bb27
  br label %bb24, !dbg !1283
}

; core::fmt::builders::DebugStruct::field_with::{{closure}}
; Function Attrs: inlinehint uwtable
define internal zeroext i1 @"_ZN4core3fmt8builders11DebugStruct10field_with28_$u7b$$u7b$closure$u7d$$u7d$17h6b7f3c2287ba5965E"(ptr align 8 %_1) unnamed_addr #1 personality ptr @rust_eh_personality !dbg !1343 {
start:
  %self.dbg.spill58 = alloca [1 x i8], align 1
  %self.dbg.spill56 = alloca [1 x i8], align 1
  %self.dbg.spill54 = alloca [1 x i8], align 1
  %self.dbg.spill52 = alloca [1 x i8], align 1
  %self.dbg.spill50 = alloca [1 x i8], align 1
  %self.dbg.spill48 = alloca [1 x i8], align 1
  %self.dbg.spill46 = alloca [1 x i8], align 1
  %0 = alloca [16 x i8], align 8
  %self.dbg.spill = alloca [8 x i8], align 8
  %t.dbg.spill44 = alloca [0 x i8], align 1
  %e.dbg.spill43 = alloca [0 x i8], align 1
  %residual.dbg.spill42 = alloca [0 x i8], align 1
  %e.dbg.spill41 = alloca [0 x i8], align 1
  %v.dbg.spill40 = alloca [0 x i8], align 1
  %t.dbg.spill39 = alloca [0 x i8], align 1
  %e.dbg.spill38 = alloca [0 x i8], align 1
  %residual.dbg.spill37 = alloca [0 x i8], align 1
  %e.dbg.spill36 = alloca [0 x i8], align 1
  %v.dbg.spill35 = alloca [0 x i8], align 1
  %t.dbg.spill34 = alloca [0 x i8], align 1
  %e.dbg.spill33 = alloca [0 x i8], align 1
  %residual.dbg.spill32 = alloca [0 x i8], align 1
  %e.dbg.spill31 = alloca [0 x i8], align 1
  %v.dbg.spill30 = alloca [0 x i8], align 1
  %t.dbg.spill29 = alloca [0 x i8], align 1
  %e.dbg.spill28 = alloca [0 x i8], align 1
  %residual.dbg.spill27 = alloca [0 x i8], align 1
  %e.dbg.spill26 = alloca [0 x i8], align 1
  %v.dbg.spill25 = alloca [0 x i8], align 1
  %t.dbg.spill24 = alloca [0 x i8], align 1
  %e.dbg.spill23 = alloca [0 x i8], align 1
  %residual.dbg.spill22 = alloca [0 x i8], align 1
  %e.dbg.spill21 = alloca [0 x i8], align 1
  %v.dbg.spill20 = alloca [0 x i8], align 1
  %t.dbg.spill19 = alloca [0 x i8], align 1
  %e.dbg.spill18 = alloca [0 x i8], align 1
  %residual.dbg.spill17 = alloca [0 x i8], align 1
  %e.dbg.spill16 = alloca [0 x i8], align 1
  %v.dbg.spill15 = alloca [0 x i8], align 1
  %t.dbg.spill = alloca [0 x i8], align 1
  %e.dbg.spill14 = alloca [0 x i8], align 1
  %residual.dbg.spill13 = alloca [0 x i8], align 1
  %e.dbg.spill = alloca [0 x i8], align 1
  %v.dbg.spill = alloca [0 x i8], align 1
  %val.dbg.spill12 = alloca [0 x i8], align 1
  %residual.dbg.spill11 = alloca [0 x i8], align 1
  %val.dbg.spill10 = alloca [0 x i8], align 1
  %residual.dbg.spill9 = alloca [0 x i8], align 1
  %val.dbg.spill8 = alloca [0 x i8], align 1
  %residual.dbg.spill7 = alloca [0 x i8], align 1
  %val.dbg.spill6 = alloca [0 x i8], align 1
  %residual.dbg.spill5 = alloca [0 x i8], align 1
  %val.dbg.spill4 = alloca [0 x i8], align 1
  %residual.dbg.spill3 = alloca [0 x i8], align 1
  %val.dbg.spill2 = alloca [0 x i8], align 1
  %residual.dbg.spill1 = alloca [0 x i8], align 1
  %val.dbg.spill = alloca [0 x i8], align 1
  %residual.dbg.spill = alloca [0 x i8], align 1
  %_2.dbg.spill = alloca [0 x i8], align 1
  %_44 = alloca [1 x i8], align 1
  %prefix = alloca [16 x i8], align 8
  %writer = alloca [24 x i8], align 8
  %state = alloca [1 x i8], align 1
  %slot = alloca [24 x i8], align 8
  %_0 = alloca [1 x i8], align 1
    #dbg_declare(ptr %_1, !1347, !DIExpression(DW_OP_deref), !1387)
    #dbg_declare(ptr %_1, !1348, !DIExpression(DW_OP_plus_uconst, 8, DW_OP_deref), !1388)
    #dbg_declare(ptr %_1, !1349, !DIExpression(DW_OP_plus_uconst, 24), !1389)
    #dbg_declare(ptr %_2.dbg.spill, !1386, !DIExpression(), !1390)
    #dbg_declare(ptr %slot, !1354, !DIExpression(), !1391)
    #dbg_declare(ptr %state, !1356, !DIExpression(), !1392)
    #dbg_declare(ptr %writer, !1358, !DIExpression(), !1393)
    #dbg_declare(ptr %prefix, !1372, !DIExpression(), !1394)
    #dbg_declare(ptr %residual.dbg.spill, !1350, !DIExpression(), !1395)
    #dbg_declare(ptr %val.dbg.spill, !1352, !DIExpression(), !1396)
    #dbg_declare(ptr %residual.dbg.spill1, !1360, !DIExpression(), !1397)
    #dbg_declare(ptr %val.dbg.spill2, !1362, !DIExpression(), !1398)
    #dbg_declare(ptr %residual.dbg.spill3, !1364, !DIExpression(), !1399)
    #dbg_declare(ptr %val.dbg.spill4, !1366, !DIExpression(), !1400)
    #dbg_declare(ptr %residual.dbg.spill5, !1368, !DIExpression(), !1401)
    #dbg_declare(ptr %val.dbg.spill6, !1370, !DIExpression(), !1402)
    #dbg_declare(ptr %residual.dbg.spill7, !1374, !DIExpression(), !1403)
    #dbg_declare(ptr %val.dbg.spill8, !1376, !DIExpression(), !1404)
    #dbg_declare(ptr %residual.dbg.spill9, !1378, !DIExpression(), !1405)
    #dbg_declare(ptr %val.dbg.spill10, !1380, !DIExpression(), !1406)
    #dbg_declare(ptr %residual.dbg.spill11, !1382, !DIExpression(), !1407)
    #dbg_declare(ptr %val.dbg.spill12, !1384, !DIExpression(), !1408)
    #dbg_declare(ptr %v.dbg.spill, !1409, !DIExpression(), !1440)
    #dbg_declare(ptr %e.dbg.spill, !1414, !DIExpression(), !1442)
    #dbg_declare(ptr %residual.dbg.spill13, !1443, !DIExpression(), !1460)
    #dbg_declare(ptr %e.dbg.spill14, !1446, !DIExpression(), !1463)
    #dbg_declare(ptr %t.dbg.spill, !1464, !DIExpression(), !1467)
    #dbg_declare(ptr %v.dbg.spill15, !1416, !DIExpression(), !1469)
    #dbg_declare(ptr %e.dbg.spill16, !1418, !DIExpression(), !1471)
    #dbg_declare(ptr %residual.dbg.spill17, !1443, !DIExpression(), !1472)
    #dbg_declare(ptr %e.dbg.spill18, !1448, !DIExpression(), !1475)
    #dbg_declare(ptr %t.dbg.spill19, !1464, !DIExpression(), !1476)
    #dbg_declare(ptr %v.dbg.spill20, !1420, !DIExpression(), !1479)
    #dbg_declare(ptr %e.dbg.spill21, !1422, !DIExpression(), !1481)
    #dbg_declare(ptr %residual.dbg.spill22, !1443, !DIExpression(), !1482)
    #dbg_declare(ptr %e.dbg.spill23, !1450, !DIExpression(), !1485)
    #dbg_declare(ptr %t.dbg.spill24, !1464, !DIExpression(), !1486)
    #dbg_declare(ptr %v.dbg.spill25, !1424, !DIExpression(), !1489)
    #dbg_declare(ptr %e.dbg.spill26, !1426, !DIExpression(), !1491)
    #dbg_declare(ptr %residual.dbg.spill27, !1443, !DIExpression(), !1492)
    #dbg_declare(ptr %e.dbg.spill28, !1452, !DIExpression(), !1495)
    #dbg_declare(ptr %t.dbg.spill29, !1464, !DIExpression(), !1496)
    #dbg_declare(ptr %v.dbg.spill30, !1428, !DIExpression(), !1499)
    #dbg_declare(ptr %e.dbg.spill31, !1430, !DIExpression(), !1501)
    #dbg_declare(ptr %residual.dbg.spill32, !1443, !DIExpression(), !1502)
    #dbg_declare(ptr %e.dbg.spill33, !1454, !DIExpression(), !1505)
    #dbg_declare(ptr %t.dbg.spill34, !1464, !DIExpression(), !1506)
    #dbg_declare(ptr %v.dbg.spill35, !1432, !DIExpression(), !1509)
    #dbg_declare(ptr %e.dbg.spill36, !1434, !DIExpression(), !1511)
    #dbg_declare(ptr %residual.dbg.spill37, !1443, !DIExpression(), !1512)
    #dbg_declare(ptr %e.dbg.spill38, !1456, !DIExpression(), !1515)
    #dbg_declare(ptr %t.dbg.spill39, !1464, !DIExpression(), !1516)
    #dbg_declare(ptr %v.dbg.spill40, !1436, !DIExpression(), !1519)
    #dbg_declare(ptr %e.dbg.spill41, !1438, !DIExpression(), !1521)
    #dbg_declare(ptr %residual.dbg.spill42, !1443, !DIExpression(), !1522)
    #dbg_declare(ptr %e.dbg.spill43, !1458, !DIExpression(), !1525)
    #dbg_declare(ptr %t.dbg.spill44, !1464, !DIExpression(), !1526)
  store i8 1, ptr %_44, align 1, !dbg !1529
  %self = load ptr, ptr %_1, align 8, !dbg !1529
  store ptr %self, ptr %self.dbg.spill, align 8, !dbg !1529
    #dbg_declare(ptr %self.dbg.spill, !1530, !DIExpression(), !1533)
  %_45 = load ptr, ptr %self, align 8, !dbg !1535
  %1 = getelementptr inbounds i8, ptr %_45, i64 16, !dbg !1536
  %_47 = load i32, ptr %1, align 8, !dbg !1536
  %_46 = and i32 %_47, 8388608, !dbg !1536
  %2 = icmp eq i32 %_46, 0, !dbg !1529
  br i1 %2, label %bb11, label %bb1, !dbg !1529

bb11:                                             ; preds = %start
  %_34 = load ptr, ptr %_1, align 8, !dbg !1539
  %3 = getelementptr inbounds i8, ptr %_34, i64 9, !dbg !1539
  %4 = load i8, ptr %3, align 1, !dbg !1539
  %_20 = trunc nuw i8 %4 to i1, !dbg !1539
  br i1 %_20, label %bb12, label %bb13, !dbg !1539

bb1:                                              ; preds = %start
  %_28 = load ptr, ptr %_1, align 8, !dbg !1540
  %5 = getelementptr inbounds i8, ptr %_28, i64 9, !dbg !1540
  %6 = load i8, ptr %5, align 1, !dbg !1540
  %_3 = trunc nuw i8 %6 to i1, !dbg !1540
  br i1 %_3, label %bb5, label %bb2, !dbg !1540

bb13:                                             ; preds = %bb11
  store ptr @alloc_fe2ddbdc622a788f5416063d1e8d8ad4, ptr %prefix, align 8, !dbg !1541
  %7 = getelementptr inbounds i8, ptr %prefix, i64 8, !dbg !1541
  store i64 3, ptr %7, align 8, !dbg !1541
  br label %bb14, !dbg !1542

bb12:                                             ; preds = %bb11
  store ptr @alloc_94b00be069aafad82a2c6df764237b82, ptr %prefix, align 8, !dbg !1543
  %8 = getelementptr inbounds i8, ptr %prefix, i64 8, !dbg !1543
  store i64 2, ptr %8, align 8, !dbg !1543
  br label %bb14, !dbg !1542

bb14:                                             ; preds = %bb12, %bb13
  %_35 = load ptr, ptr %_1, align 8, !dbg !1500
  %_36 = load ptr, ptr %_35, align 8, !dbg !1500
  %_22.0 = load ptr, ptr %prefix, align 8, !dbg !1544
  %9 = getelementptr inbounds i8, ptr %prefix, i64 8, !dbg !1544
  %_22.1 = load i64, ptr %9, align 8, !dbg !1544
; invoke core::fmt::Formatter::write_str
  %self45 = invoke zeroext i1 @_ZN4core3fmt9Formatter9write_str17hc08bce2768144e42E(ptr align 8 %_36, ptr align 1 %_22.0, i64 %_22.1)
          to label %bb15 unwind label %cleanup, !dbg !1545

bb27:                                             ; preds = %cleanup
  %10 = load i8, ptr %_44, align 1, !dbg !1546
  %11 = trunc nuw i8 %10 to i1, !dbg !1546
  br i1 %11, label %bb26, label %bb24, !dbg !1546

cleanup:                                          ; preds = %bb35, %bb33, %bb31, %bb6, %bb5, %bb2, %bb41, %bb39, %bb37, %bb14
  %12 = landingpad { ptr, i32 }
          cleanup
  %13 = extractvalue { ptr, i32 } %12, 0
  %14 = extractvalue { ptr, i32 } %12, 1
  store ptr %13, ptr %0, align 8
  %15 = getelementptr inbounds i8, ptr %0, i64 8
  store i32 %14, ptr %15, align 8
  br label %bb27

bb15:                                             ; preds = %bb14
  %16 = zext i1 %self45 to i8, !dbg !1500
  store i8 %16, ptr %self.dbg.spill46, align 1, !dbg !1500
    #dbg_declare(ptr %self.dbg.spill46, !1413, !DIExpression(), !1547)
  %_52 = zext i1 %self45 to i64, !dbg !1548
  %17 = trunc nuw i64 %_52 to i1, !dbg !1549
  br i1 %17, label %bb36, label %bb37, !dbg !1549

bb36:                                             ; preds = %bb15
  store i8 1, ptr %_0, align 1, !dbg !1550
  br label %bb20, !dbg !1551

bb37:                                             ; preds = %bb15
  %_37 = load ptr, ptr %_1, align 8, !dbg !1510
  %_38 = load ptr, ptr %_37, align 8, !dbg !1510
  %18 = getelementptr inbounds i8, ptr %_1, i64 8, !dbg !1553
  %_39.0 = load ptr, ptr %18, align 8, !dbg !1553
  %19 = getelementptr inbounds i8, ptr %18, i64 8, !dbg !1553
  %_39.1 = load i64, ptr %19, align 8, !dbg !1553
; invoke core::fmt::Formatter::write_str
  %self47 = invoke zeroext i1 @_ZN4core3fmt9Formatter9write_str17hc08bce2768144e42E(ptr align 8 %_38, ptr align 1 %_39.0, i64 %_39.1)
          to label %bb16 unwind label %cleanup, !dbg !1554

bb16:                                             ; preds = %bb37
  %20 = zext i1 %self47 to i8, !dbg !1510
  store i8 %20, ptr %self.dbg.spill48, align 1, !dbg !1510
    #dbg_declare(ptr %self.dbg.spill48, !1413, !DIExpression(), !1555)
  %_53 = zext i1 %self47 to i64, !dbg !1556
  %21 = trunc nuw i64 %_53 to i1, !dbg !1557
  br i1 %21, label %bb38, label %bb39, !dbg !1557

bb38:                                             ; preds = %bb16
  store i8 1, ptr %_0, align 1, !dbg !1558
  br label %bb20, !dbg !1551

bb39:                                             ; preds = %bb16
  %_40 = load ptr, ptr %_1, align 8, !dbg !1520
  %_41 = load ptr, ptr %_40, align 8, !dbg !1520
; invoke core::fmt::Formatter::write_str
  %self49 = invoke zeroext i1 @_ZN4core3fmt9Formatter9write_str17hc08bce2768144e42E(ptr align 8 %_41, ptr align 1 @alloc_556e4180596b5b612bb6ed6c0cbb55e1, i64 2)
          to label %bb17 unwind label %cleanup, !dbg !1559

bb17:                                             ; preds = %bb39
  %22 = zext i1 %self49 to i8, !dbg !1520
  store i8 %22, ptr %self.dbg.spill50, align 1, !dbg !1520
    #dbg_declare(ptr %self.dbg.spill50, !1413, !DIExpression(), !1560)
  %_54 = zext i1 %self49 to i64, !dbg !1561
  %23 = trunc nuw i64 %_54 to i1, !dbg !1562
  br i1 %23, label %bb40, label %bb41, !dbg !1562

bb40:                                             ; preds = %bb17
  store i8 1, ptr %_0, align 1, !dbg !1563
  br label %bb20, !dbg !1551

bb41:                                             ; preds = %bb17
  store i8 0, ptr %_44, align 1, !dbg !1564
  %24 = getelementptr inbounds i8, ptr %_1, i64 24, !dbg !1564
  %_25 = load ptr, ptr %24, align 8, !dbg !1564
  %_42 = load ptr, ptr %_1, align 8, !dbg !1565
  %_43 = load ptr, ptr %_42, align 8, !dbg !1565
; invoke <*const T as core::fmt::Pointer>::fmt::{{closure}}
  %25 = invoke zeroext i1 @"_ZN54_$LT$$BP$const$u20$T$u20$as$u20$core..fmt..Pointer$GT$3fmt28_$u7b$$u7b$closure$u7d$$u7d$17h94a33faef617b6e4E"(ptr align 8 %_25, ptr align 8 %_43)
          to label %bb18 unwind label %cleanup, !dbg !1564

bb18:                                             ; preds = %bb41
  %26 = zext i1 %25 to i8, !dbg !1564
  store i8 %26, ptr %_0, align 1, !dbg !1564
  br label %bb19, !dbg !1566

bb19:                                             ; preds = %bb10, %bb18
  br label %bb23, !dbg !1546

bb20:                                             ; preds = %bb36, %bb38, %bb40
  br label %bb22, !dbg !1567

bb22:                                             ; preds = %bb21, %bb28, %bb20
  %27 = load i8, ptr %_44, align 1, !dbg !1546
  %28 = trunc nuw i8 %27 to i1, !dbg !1546
  br i1 %28, label %bb25, label %bb23, !dbg !1546

bb2:                                              ; preds = %bb1
  %_29 = load ptr, ptr %_1, align 8, !dbg !1441
  %_30 = load ptr, ptr %_29, align 8, !dbg !1441
; invoke core::fmt::Formatter::write_str
  %self51 = invoke zeroext i1 @_ZN4core3fmt9Formatter9write_str17hc08bce2768144e42E(ptr align 8 %_30, ptr align 1 @alloc_3690db001d3db01550bdb6f3f450de28, i64 3)
          to label %bb3 unwind label %cleanup, !dbg !1569

bb5:                                              ; preds = %bb29, %bb1
  store ptr null, ptr %slot, align 8, !dbg !1570
  store i8 1, ptr %state, align 1, !dbg !1571
  %_31 = load ptr, ptr %_1, align 8, !dbg !1574
  %_32 = load ptr, ptr %_31, align 8, !dbg !1574
; invoke core::fmt::builders::PadAdapter::wrap
  invoke void @_ZN4core3fmt8builders10PadAdapter4wrap17h0ee5960baccced1dE(ptr sret([24 x i8]) align 8 %writer, ptr align 8 %_32, ptr align 8 %slot, ptr align 1 %state)
          to label %bb6 unwind label %cleanup, !dbg !1575

bb3:                                              ; preds = %bb2
  %29 = zext i1 %self51 to i8, !dbg !1441
  store i8 %29, ptr %self.dbg.spill52, align 1, !dbg !1441
    #dbg_declare(ptr %self.dbg.spill52, !1413, !DIExpression(), !1576)
  %_48 = zext i1 %self51 to i64, !dbg !1577
  %30 = trunc nuw i64 %_48 to i1, !dbg !1578
  br i1 %30, label %bb28, label %bb29, !dbg !1578

bb28:                                             ; preds = %bb3
  store i8 1, ptr %_0, align 1, !dbg !1579
  br label %bb22, !dbg !1567

bb29:                                             ; preds = %bb3
  br label %bb5, !dbg !1580

bb6:                                              ; preds = %bb5
  %31 = getelementptr inbounds i8, ptr %_1, i64 8, !dbg !1581
  %_33.0 = load ptr, ptr %31, align 8, !dbg !1581
  %32 = getelementptr inbounds i8, ptr %31, i64 8, !dbg !1581
  %_33.1 = load i64, ptr %32, align 8, !dbg !1581
; invoke core::fmt::Formatter::write_str
  %self53 = invoke zeroext i1 @_ZN4core3fmt9Formatter9write_str17hc08bce2768144e42E(ptr align 8 %writer, ptr align 1 %_33.0, i64 %_33.1)
          to label %bb7 unwind label %cleanup, !dbg !1582

bb7:                                              ; preds = %bb6
  %33 = zext i1 %self53 to i8, !dbg !1470
  store i8 %33, ptr %self.dbg.spill54, align 1, !dbg !1470
    #dbg_declare(ptr %self.dbg.spill54, !1413, !DIExpression(), !1583)
  %_49 = zext i1 %self53 to i64, !dbg !1584
  %34 = trunc nuw i64 %_49 to i1, !dbg !1585
  br i1 %34, label %bb30, label %bb31, !dbg !1585

bb30:                                             ; preds = %bb7
  store i8 1, ptr %_0, align 1, !dbg !1586
  br label %bb21, !dbg !1587

bb31:                                             ; preds = %bb7
; invoke core::fmt::Formatter::write_str
  %self55 = invoke zeroext i1 @_ZN4core3fmt9Formatter9write_str17hc08bce2768144e42E(ptr align 8 %writer, ptr align 1 @alloc_556e4180596b5b612bb6ed6c0cbb55e1, i64 2)
          to label %bb8 unwind label %cleanup, !dbg !1589

bb8:                                              ; preds = %bb31
  %35 = zext i1 %self55 to i8, !dbg !1480
  store i8 %35, ptr %self.dbg.spill56, align 1, !dbg !1480
    #dbg_declare(ptr %self.dbg.spill56, !1413, !DIExpression(), !1590)
  %_50 = zext i1 %self55 to i64, !dbg !1591
  %36 = trunc nuw i64 %_50 to i1, !dbg !1592
  br i1 %36, label %bb32, label %bb33, !dbg !1592

bb32:                                             ; preds = %bb8
  store i8 1, ptr %_0, align 1, !dbg !1593
  br label %bb21, !dbg !1587

bb33:                                             ; preds = %bb8
  store i8 0, ptr %_44, align 1, !dbg !1490
  %37 = getelementptr inbounds i8, ptr %_1, i64 24, !dbg !1490
  %_15 = load ptr, ptr %37, align 8, !dbg !1490
; invoke <*const T as core::fmt::Pointer>::fmt::{{closure}}
  %self57 = invoke zeroext i1 @"_ZN54_$LT$$BP$const$u20$T$u20$as$u20$core..fmt..Pointer$GT$3fmt28_$u7b$$u7b$closure$u7d$$u7d$17h94a33faef617b6e4E"(ptr align 8 %_15, ptr align 8 %writer)
          to label %bb9 unwind label %cleanup, !dbg !1490

bb9:                                              ; preds = %bb33
  %38 = zext i1 %self57 to i8, !dbg !1490
  store i8 %38, ptr %self.dbg.spill58, align 1, !dbg !1490
    #dbg_declare(ptr %self.dbg.spill58, !1413, !DIExpression(), !1594)
  %_51 = zext i1 %self57 to i64, !dbg !1595
  %39 = trunc nuw i64 %_51 to i1, !dbg !1596
  br i1 %39, label %bb34, label %bb35, !dbg !1596

bb34:                                             ; preds = %bb9
  store i8 1, ptr %_0, align 1, !dbg !1597
  br label %bb21, !dbg !1587

bb35:                                             ; preds = %bb9
; invoke core::fmt::Formatter::write_str
  %40 = invoke zeroext i1 @_ZN4core3fmt9Formatter9write_str17hc08bce2768144e42E(ptr align 8 %writer, ptr align 1 @alloc_f7ac0c356c6ac6fcd03badb685e09ca2, i64 2)
          to label %bb10 unwind label %cleanup, !dbg !1598

bb10:                                             ; preds = %bb35
  %41 = zext i1 %40 to i8, !dbg !1599
  store i8 %41, ptr %_0, align 1, !dbg !1599
  br label %bb19, !dbg !1566

bb23:                                             ; preds = %bb25, %bb22, %bb19
  %42 = load i8, ptr %_0, align 1, !dbg !1600
  %43 = trunc nuw i8 %42 to i1, !dbg !1600
  ret i1 %43, !dbg !1600

bb21:                                             ; preds = %bb30, %bb32, %bb34
  br label %bb22, !dbg !1567

bb25:                                             ; preds = %bb22
  br label %bb23, !dbg !1546

bb4:                                              ; No predecessors!
  unreachable, !dbg !1567

bb24:                                             ; preds = %bb26, %bb27
  %44 = load ptr, ptr %0, align 8, !dbg !1601
  %45 = getelementptr inbounds i8, ptr %0, i64 8, !dbg !1601
  %46 = load i32, ptr %45, align 8, !dbg !1601
  %47 = insertvalue { ptr, i32 } poison, ptr %44, 0, !dbg !1601
  %48 = insertvalue { ptr, i32 } %47, i32 %46, 1, !dbg !1601
  resume { ptr, i32 } %48, !dbg !1601

bb26:                                             ; preds = %bb27
  br label %bb24, !dbg !1546
}

; core::fmt::builders::DebugStruct::field_with::{{closure}}
; Function Attrs: inlinehint uwtable
define internal zeroext i1 @"_ZN4core3fmt8builders11DebugStruct10field_with28_$u7b$$u7b$closure$u7d$$u7d$17h8198127ae28b9e7aE"(ptr align 8 %_1) unnamed_addr #1 personality ptr @rust_eh_personality !dbg !1602 {
start:
  %self.dbg.spill58 = alloca [1 x i8], align 1
  %self.dbg.spill56 = alloca [1 x i8], align 1
  %self.dbg.spill54 = alloca [1 x i8], align 1
  %self.dbg.spill52 = alloca [1 x i8], align 1
  %self.dbg.spill50 = alloca [1 x i8], align 1
  %self.dbg.spill48 = alloca [1 x i8], align 1
  %self.dbg.spill46 = alloca [1 x i8], align 1
  %0 = alloca [16 x i8], align 8
  %self.dbg.spill = alloca [8 x i8], align 8
  %t.dbg.spill44 = alloca [0 x i8], align 1
  %e.dbg.spill43 = alloca [0 x i8], align 1
  %residual.dbg.spill42 = alloca [0 x i8], align 1
  %e.dbg.spill41 = alloca [0 x i8], align 1
  %v.dbg.spill40 = alloca [0 x i8], align 1
  %t.dbg.spill39 = alloca [0 x i8], align 1
  %e.dbg.spill38 = alloca [0 x i8], align 1
  %residual.dbg.spill37 = alloca [0 x i8], align 1
  %e.dbg.spill36 = alloca [0 x i8], align 1
  %v.dbg.spill35 = alloca [0 x i8], align 1
  %t.dbg.spill34 = alloca [0 x i8], align 1
  %e.dbg.spill33 = alloca [0 x i8], align 1
  %residual.dbg.spill32 = alloca [0 x i8], align 1
  %e.dbg.spill31 = alloca [0 x i8], align 1
  %v.dbg.spill30 = alloca [0 x i8], align 1
  %t.dbg.spill29 = alloca [0 x i8], align 1
  %e.dbg.spill28 = alloca [0 x i8], align 1
  %residual.dbg.spill27 = alloca [0 x i8], align 1
  %e.dbg.spill26 = alloca [0 x i8], align 1
  %v.dbg.spill25 = alloca [0 x i8], align 1
  %t.dbg.spill24 = alloca [0 x i8], align 1
  %e.dbg.spill23 = alloca [0 x i8], align 1
  %residual.dbg.spill22 = alloca [0 x i8], align 1
  %e.dbg.spill21 = alloca [0 x i8], align 1
  %v.dbg.spill20 = alloca [0 x i8], align 1
  %t.dbg.spill19 = alloca [0 x i8], align 1
  %e.dbg.spill18 = alloca [0 x i8], align 1
  %residual.dbg.spill17 = alloca [0 x i8], align 1
  %e.dbg.spill16 = alloca [0 x i8], align 1
  %v.dbg.spill15 = alloca [0 x i8], align 1
  %t.dbg.spill = alloca [0 x i8], align 1
  %e.dbg.spill14 = alloca [0 x i8], align 1
  %residual.dbg.spill13 = alloca [0 x i8], align 1
  %e.dbg.spill = alloca [0 x i8], align 1
  %v.dbg.spill = alloca [0 x i8], align 1
  %val.dbg.spill12 = alloca [0 x i8], align 1
  %residual.dbg.spill11 = alloca [0 x i8], align 1
  %val.dbg.spill10 = alloca [0 x i8], align 1
  %residual.dbg.spill9 = alloca [0 x i8], align 1
  %val.dbg.spill8 = alloca [0 x i8], align 1
  %residual.dbg.spill7 = alloca [0 x i8], align 1
  %val.dbg.spill6 = alloca [0 x i8], align 1
  %residual.dbg.spill5 = alloca [0 x i8], align 1
  %val.dbg.spill4 = alloca [0 x i8], align 1
  %residual.dbg.spill3 = alloca [0 x i8], align 1
  %val.dbg.spill2 = alloca [0 x i8], align 1
  %residual.dbg.spill1 = alloca [0 x i8], align 1
  %val.dbg.spill = alloca [0 x i8], align 1
  %residual.dbg.spill = alloca [0 x i8], align 1
  %_2.dbg.spill = alloca [0 x i8], align 1
  %_44 = alloca [1 x i8], align 1
  %prefix = alloca [16 x i8], align 8
  %writer = alloca [24 x i8], align 8
  %state = alloca [1 x i8], align 1
  %slot = alloca [24 x i8], align 8
  %_0 = alloca [1 x i8], align 1
    #dbg_declare(ptr %_1, !1606, !DIExpression(DW_OP_deref), !1646)
    #dbg_declare(ptr %_1, !1607, !DIExpression(DW_OP_plus_uconst, 8, DW_OP_deref), !1647)
    #dbg_declare(ptr %_1, !1608, !DIExpression(DW_OP_plus_uconst, 24), !1648)
    #dbg_declare(ptr %_2.dbg.spill, !1645, !DIExpression(), !1649)
    #dbg_declare(ptr %slot, !1613, !DIExpression(), !1650)
    #dbg_declare(ptr %state, !1615, !DIExpression(), !1651)
    #dbg_declare(ptr %writer, !1617, !DIExpression(), !1652)
    #dbg_declare(ptr %prefix, !1631, !DIExpression(), !1653)
    #dbg_declare(ptr %residual.dbg.spill, !1609, !DIExpression(), !1654)
    #dbg_declare(ptr %val.dbg.spill, !1611, !DIExpression(), !1655)
    #dbg_declare(ptr %residual.dbg.spill1, !1619, !DIExpression(), !1656)
    #dbg_declare(ptr %val.dbg.spill2, !1621, !DIExpression(), !1657)
    #dbg_declare(ptr %residual.dbg.spill3, !1623, !DIExpression(), !1658)
    #dbg_declare(ptr %val.dbg.spill4, !1625, !DIExpression(), !1659)
    #dbg_declare(ptr %residual.dbg.spill5, !1627, !DIExpression(), !1660)
    #dbg_declare(ptr %val.dbg.spill6, !1629, !DIExpression(), !1661)
    #dbg_declare(ptr %residual.dbg.spill7, !1633, !DIExpression(), !1662)
    #dbg_declare(ptr %val.dbg.spill8, !1635, !DIExpression(), !1663)
    #dbg_declare(ptr %residual.dbg.spill9, !1637, !DIExpression(), !1664)
    #dbg_declare(ptr %val.dbg.spill10, !1639, !DIExpression(), !1665)
    #dbg_declare(ptr %residual.dbg.spill11, !1641, !DIExpression(), !1666)
    #dbg_declare(ptr %val.dbg.spill12, !1643, !DIExpression(), !1667)
    #dbg_declare(ptr %v.dbg.spill, !1668, !DIExpression(), !1699)
    #dbg_declare(ptr %e.dbg.spill, !1673, !DIExpression(), !1701)
    #dbg_declare(ptr %residual.dbg.spill13, !1702, !DIExpression(), !1719)
    #dbg_declare(ptr %e.dbg.spill14, !1705, !DIExpression(), !1722)
    #dbg_declare(ptr %t.dbg.spill, !1723, !DIExpression(), !1726)
    #dbg_declare(ptr %v.dbg.spill15, !1675, !DIExpression(), !1728)
    #dbg_declare(ptr %e.dbg.spill16, !1677, !DIExpression(), !1730)
    #dbg_declare(ptr %residual.dbg.spill17, !1702, !DIExpression(), !1731)
    #dbg_declare(ptr %e.dbg.spill18, !1707, !DIExpression(), !1734)
    #dbg_declare(ptr %t.dbg.spill19, !1723, !DIExpression(), !1735)
    #dbg_declare(ptr %v.dbg.spill20, !1679, !DIExpression(), !1738)
    #dbg_declare(ptr %e.dbg.spill21, !1681, !DIExpression(), !1740)
    #dbg_declare(ptr %residual.dbg.spill22, !1702, !DIExpression(), !1741)
    #dbg_declare(ptr %e.dbg.spill23, !1709, !DIExpression(), !1744)
    #dbg_declare(ptr %t.dbg.spill24, !1723, !DIExpression(), !1745)
    #dbg_declare(ptr %v.dbg.spill25, !1683, !DIExpression(), !1748)
    #dbg_declare(ptr %e.dbg.spill26, !1685, !DIExpression(), !1750)
    #dbg_declare(ptr %residual.dbg.spill27, !1702, !DIExpression(), !1751)
    #dbg_declare(ptr %e.dbg.spill28, !1711, !DIExpression(), !1754)
    #dbg_declare(ptr %t.dbg.spill29, !1723, !DIExpression(), !1755)
    #dbg_declare(ptr %v.dbg.spill30, !1687, !DIExpression(), !1758)
    #dbg_declare(ptr %e.dbg.spill31, !1689, !DIExpression(), !1760)
    #dbg_declare(ptr %residual.dbg.spill32, !1702, !DIExpression(), !1761)
    #dbg_declare(ptr %e.dbg.spill33, !1713, !DIExpression(), !1764)
    #dbg_declare(ptr %t.dbg.spill34, !1723, !DIExpression(), !1765)
    #dbg_declare(ptr %v.dbg.spill35, !1691, !DIExpression(), !1768)
    #dbg_declare(ptr %e.dbg.spill36, !1693, !DIExpression(), !1770)
    #dbg_declare(ptr %residual.dbg.spill37, !1702, !DIExpression(), !1771)
    #dbg_declare(ptr %e.dbg.spill38, !1715, !DIExpression(), !1774)
    #dbg_declare(ptr %t.dbg.spill39, !1723, !DIExpression(), !1775)
    #dbg_declare(ptr %v.dbg.spill40, !1695, !DIExpression(), !1778)
    #dbg_declare(ptr %e.dbg.spill41, !1697, !DIExpression(), !1780)
    #dbg_declare(ptr %residual.dbg.spill42, !1702, !DIExpression(), !1781)
    #dbg_declare(ptr %e.dbg.spill43, !1717, !DIExpression(), !1784)
    #dbg_declare(ptr %t.dbg.spill44, !1723, !DIExpression(), !1785)
  store i8 1, ptr %_44, align 1, !dbg !1788
  %self = load ptr, ptr %_1, align 8, !dbg !1788
  store ptr %self, ptr %self.dbg.spill, align 8, !dbg !1788
    #dbg_declare(ptr %self.dbg.spill, !1789, !DIExpression(), !1792)
  %_45 = load ptr, ptr %self, align 8, !dbg !1794
  %1 = getelementptr inbounds i8, ptr %_45, i64 16, !dbg !1795
  %_47 = load i32, ptr %1, align 8, !dbg !1795
  %_46 = and i32 %_47, 8388608, !dbg !1795
  %2 = icmp eq i32 %_46, 0, !dbg !1788
  br i1 %2, label %bb11, label %bb1, !dbg !1788

bb11:                                             ; preds = %start
  %_34 = load ptr, ptr %_1, align 8, !dbg !1798
  %3 = getelementptr inbounds i8, ptr %_34, i64 9, !dbg !1798
  %4 = load i8, ptr %3, align 1, !dbg !1798
  %_20 = trunc nuw i8 %4 to i1, !dbg !1798
  br i1 %_20, label %bb12, label %bb13, !dbg !1798

bb1:                                              ; preds = %start
  %_28 = load ptr, ptr %_1, align 8, !dbg !1799
  %5 = getelementptr inbounds i8, ptr %_28, i64 9, !dbg !1799
  %6 = load i8, ptr %5, align 1, !dbg !1799
  %_3 = trunc nuw i8 %6 to i1, !dbg !1799
  br i1 %_3, label %bb5, label %bb2, !dbg !1799

bb13:                                             ; preds = %bb11
  store ptr @alloc_fe2ddbdc622a788f5416063d1e8d8ad4, ptr %prefix, align 8, !dbg !1800
  %7 = getelementptr inbounds i8, ptr %prefix, i64 8, !dbg !1800
  store i64 3, ptr %7, align 8, !dbg !1800
  br label %bb14, !dbg !1801

bb12:                                             ; preds = %bb11
  store ptr @alloc_94b00be069aafad82a2c6df764237b82, ptr %prefix, align 8, !dbg !1802
  %8 = getelementptr inbounds i8, ptr %prefix, i64 8, !dbg !1802
  store i64 2, ptr %8, align 8, !dbg !1802
  br label %bb14, !dbg !1801

bb14:                                             ; preds = %bb12, %bb13
  %_35 = load ptr, ptr %_1, align 8, !dbg !1759
  %_36 = load ptr, ptr %_35, align 8, !dbg !1759
  %_22.0 = load ptr, ptr %prefix, align 8, !dbg !1803
  %9 = getelementptr inbounds i8, ptr %prefix, i64 8, !dbg !1803
  %_22.1 = load i64, ptr %9, align 8, !dbg !1803
; invoke core::fmt::Formatter::write_str
  %self45 = invoke zeroext i1 @_ZN4core3fmt9Formatter9write_str17hc08bce2768144e42E(ptr align 8 %_36, ptr align 1 %_22.0, i64 %_22.1)
          to label %bb15 unwind label %cleanup, !dbg !1804

bb27:                                             ; preds = %cleanup
  %10 = load i8, ptr %_44, align 1, !dbg !1805
  %11 = trunc nuw i8 %10 to i1, !dbg !1805
  br i1 %11, label %bb26, label %bb24, !dbg !1805

cleanup:                                          ; preds = %bb35, %bb33, %bb31, %bb6, %bb5, %bb2, %bb41, %bb39, %bb37, %bb14
  %12 = landingpad { ptr, i32 }
          cleanup
  %13 = extractvalue { ptr, i32 } %12, 0
  %14 = extractvalue { ptr, i32 } %12, 1
  store ptr %13, ptr %0, align 8
  %15 = getelementptr inbounds i8, ptr %0, i64 8
  store i32 %14, ptr %15, align 8
  br label %bb27

bb15:                                             ; preds = %bb14
  %16 = zext i1 %self45 to i8, !dbg !1759
  store i8 %16, ptr %self.dbg.spill46, align 1, !dbg !1759
    #dbg_declare(ptr %self.dbg.spill46, !1672, !DIExpression(), !1806)
  %_52 = zext i1 %self45 to i64, !dbg !1807
  %17 = trunc nuw i64 %_52 to i1, !dbg !1808
  br i1 %17, label %bb36, label %bb37, !dbg !1808

bb36:                                             ; preds = %bb15
  store i8 1, ptr %_0, align 1, !dbg !1809
  br label %bb20, !dbg !1810

bb37:                                             ; preds = %bb15
  %_37 = load ptr, ptr %_1, align 8, !dbg !1769
  %_38 = load ptr, ptr %_37, align 8, !dbg !1769
  %18 = getelementptr inbounds i8, ptr %_1, i64 8, !dbg !1812
  %_39.0 = load ptr, ptr %18, align 8, !dbg !1812
  %19 = getelementptr inbounds i8, ptr %18, i64 8, !dbg !1812
  %_39.1 = load i64, ptr %19, align 8, !dbg !1812
; invoke core::fmt::Formatter::write_str
  %self47 = invoke zeroext i1 @_ZN4core3fmt9Formatter9write_str17hc08bce2768144e42E(ptr align 8 %_38, ptr align 1 %_39.0, i64 %_39.1)
          to label %bb16 unwind label %cleanup, !dbg !1813

bb16:                                             ; preds = %bb37
  %20 = zext i1 %self47 to i8, !dbg !1769
  store i8 %20, ptr %self.dbg.spill48, align 1, !dbg !1769
    #dbg_declare(ptr %self.dbg.spill48, !1672, !DIExpression(), !1814)
  %_53 = zext i1 %self47 to i64, !dbg !1815
  %21 = trunc nuw i64 %_53 to i1, !dbg !1816
  br i1 %21, label %bb38, label %bb39, !dbg !1816

bb38:                                             ; preds = %bb16
  store i8 1, ptr %_0, align 1, !dbg !1817
  br label %bb20, !dbg !1810

bb39:                                             ; preds = %bb16
  %_40 = load ptr, ptr %_1, align 8, !dbg !1779
  %_41 = load ptr, ptr %_40, align 8, !dbg !1779
; invoke core::fmt::Formatter::write_str
  %self49 = invoke zeroext i1 @_ZN4core3fmt9Formatter9write_str17hc08bce2768144e42E(ptr align 8 %_41, ptr align 1 @alloc_556e4180596b5b612bb6ed6c0cbb55e1, i64 2)
          to label %bb17 unwind label %cleanup, !dbg !1818

bb17:                                             ; preds = %bb39
  %22 = zext i1 %self49 to i8, !dbg !1779
  store i8 %22, ptr %self.dbg.spill50, align 1, !dbg !1779
    #dbg_declare(ptr %self.dbg.spill50, !1672, !DIExpression(), !1819)
  %_54 = zext i1 %self49 to i64, !dbg !1820
  %23 = trunc nuw i64 %_54 to i1, !dbg !1821
  br i1 %23, label %bb40, label %bb41, !dbg !1821

bb40:                                             ; preds = %bb17
  store i8 1, ptr %_0, align 1, !dbg !1822
  br label %bb20, !dbg !1810

bb41:                                             ; preds = %bb17
  store i8 0, ptr %_44, align 1, !dbg !1823
  %24 = getelementptr inbounds i8, ptr %_1, i64 24, !dbg !1823
  %_25 = load ptr, ptr %24, align 8, !dbg !1823
  %_42 = load ptr, ptr %_1, align 8, !dbg !1824
  %_43 = load ptr, ptr %_42, align 8, !dbg !1824
; invoke <*const T as core::fmt::Pointer>::fmt::{{closure}}
  %25 = invoke zeroext i1 @"_ZN54_$LT$$BP$const$u20$T$u20$as$u20$core..fmt..Pointer$GT$3fmt28_$u7b$$u7b$closure$u7d$$u7d$17h8bb156c02235f635E"(ptr align 8 %_25, ptr align 8 %_43)
          to label %bb18 unwind label %cleanup, !dbg !1823

bb18:                                             ; preds = %bb41
  %26 = zext i1 %25 to i8, !dbg !1823
  store i8 %26, ptr %_0, align 1, !dbg !1823
  br label %bb19, !dbg !1825

bb19:                                             ; preds = %bb10, %bb18
  br label %bb23, !dbg !1805

bb20:                                             ; preds = %bb36, %bb38, %bb40
  br label %bb22, !dbg !1826

bb22:                                             ; preds = %bb21, %bb28, %bb20
  %27 = load i8, ptr %_44, align 1, !dbg !1805
  %28 = trunc nuw i8 %27 to i1, !dbg !1805
  br i1 %28, label %bb25, label %bb23, !dbg !1805

bb2:                                              ; preds = %bb1
  %_29 = load ptr, ptr %_1, align 8, !dbg !1700
  %_30 = load ptr, ptr %_29, align 8, !dbg !1700
; invoke core::fmt::Formatter::write_str
  %self51 = invoke zeroext i1 @_ZN4core3fmt9Formatter9write_str17hc08bce2768144e42E(ptr align 8 %_30, ptr align 1 @alloc_3690db001d3db01550bdb6f3f450de28, i64 3)
          to label %bb3 unwind label %cleanup, !dbg !1828

bb5:                                              ; preds = %bb29, %bb1
  store ptr null, ptr %slot, align 8, !dbg !1829
  store i8 1, ptr %state, align 1, !dbg !1830
  %_31 = load ptr, ptr %_1, align 8, !dbg !1833
  %_32 = load ptr, ptr %_31, align 8, !dbg !1833
; invoke core::fmt::builders::PadAdapter::wrap
  invoke void @_ZN4core3fmt8builders10PadAdapter4wrap17h0ee5960baccced1dE(ptr sret([24 x i8]) align 8 %writer, ptr align 8 %_32, ptr align 8 %slot, ptr align 1 %state)
          to label %bb6 unwind label %cleanup, !dbg !1834

bb3:                                              ; preds = %bb2
  %29 = zext i1 %self51 to i8, !dbg !1700
  store i8 %29, ptr %self.dbg.spill52, align 1, !dbg !1700
    #dbg_declare(ptr %self.dbg.spill52, !1672, !DIExpression(), !1835)
  %_48 = zext i1 %self51 to i64, !dbg !1836
  %30 = trunc nuw i64 %_48 to i1, !dbg !1837
  br i1 %30, label %bb28, label %bb29, !dbg !1837

bb28:                                             ; preds = %bb3
  store i8 1, ptr %_0, align 1, !dbg !1838
  br label %bb22, !dbg !1826

bb29:                                             ; preds = %bb3
  br label %bb5, !dbg !1839

bb6:                                              ; preds = %bb5
  %31 = getelementptr inbounds i8, ptr %_1, i64 8, !dbg !1840
  %_33.0 = load ptr, ptr %31, align 8, !dbg !1840
  %32 = getelementptr inbounds i8, ptr %31, i64 8, !dbg !1840
  %_33.1 = load i64, ptr %32, align 8, !dbg !1840
; invoke core::fmt::Formatter::write_str
  %self53 = invoke zeroext i1 @_ZN4core3fmt9Formatter9write_str17hc08bce2768144e42E(ptr align 8 %writer, ptr align 1 %_33.0, i64 %_33.1)
          to label %bb7 unwind label %cleanup, !dbg !1841

bb7:                                              ; preds = %bb6
  %33 = zext i1 %self53 to i8, !dbg !1729
  store i8 %33, ptr %self.dbg.spill54, align 1, !dbg !1729
    #dbg_declare(ptr %self.dbg.spill54, !1672, !DIExpression(), !1842)
  %_49 = zext i1 %self53 to i64, !dbg !1843
  %34 = trunc nuw i64 %_49 to i1, !dbg !1844
  br i1 %34, label %bb30, label %bb31, !dbg !1844

bb30:                                             ; preds = %bb7
  store i8 1, ptr %_0, align 1, !dbg !1845
  br label %bb21, !dbg !1846

bb31:                                             ; preds = %bb7
; invoke core::fmt::Formatter::write_str
  %self55 = invoke zeroext i1 @_ZN4core3fmt9Formatter9write_str17hc08bce2768144e42E(ptr align 8 %writer, ptr align 1 @alloc_556e4180596b5b612bb6ed6c0cbb55e1, i64 2)
          to label %bb8 unwind label %cleanup, !dbg !1848

bb8:                                              ; preds = %bb31
  %35 = zext i1 %self55 to i8, !dbg !1739
  store i8 %35, ptr %self.dbg.spill56, align 1, !dbg !1739
    #dbg_declare(ptr %self.dbg.spill56, !1672, !DIExpression(), !1849)
  %_50 = zext i1 %self55 to i64, !dbg !1850
  %36 = trunc nuw i64 %_50 to i1, !dbg !1851
  br i1 %36, label %bb32, label %bb33, !dbg !1851

bb32:                                             ; preds = %bb8
  store i8 1, ptr %_0, align 1, !dbg !1852
  br label %bb21, !dbg !1846

bb33:                                             ; preds = %bb8
  store i8 0, ptr %_44, align 1, !dbg !1749
  %37 = getelementptr inbounds i8, ptr %_1, i64 24, !dbg !1749
  %_15 = load ptr, ptr %37, align 8, !dbg !1749
; invoke <*const T as core::fmt::Pointer>::fmt::{{closure}}
  %self57 = invoke zeroext i1 @"_ZN54_$LT$$BP$const$u20$T$u20$as$u20$core..fmt..Pointer$GT$3fmt28_$u7b$$u7b$closure$u7d$$u7d$17h8bb156c02235f635E"(ptr align 8 %_15, ptr align 8 %writer)
          to label %bb9 unwind label %cleanup, !dbg !1749

bb9:                                              ; preds = %bb33
  %38 = zext i1 %self57 to i8, !dbg !1749
  store i8 %38, ptr %self.dbg.spill58, align 1, !dbg !1749
    #dbg_declare(ptr %self.dbg.spill58, !1672, !DIExpression(), !1853)
  %_51 = zext i1 %self57 to i64, !dbg !1854
  %39 = trunc nuw i64 %_51 to i1, !dbg !1855
  br i1 %39, label %bb34, label %bb35, !dbg !1855

bb34:                                             ; preds = %bb9
  store i8 1, ptr %_0, align 1, !dbg !1856
  br label %bb21, !dbg !1846

bb35:                                             ; preds = %bb9
; invoke core::fmt::Formatter::write_str
  %40 = invoke zeroext i1 @_ZN4core3fmt9Formatter9write_str17hc08bce2768144e42E(ptr align 8 %writer, ptr align 1 @alloc_f7ac0c356c6ac6fcd03badb685e09ca2, i64 2)
          to label %bb10 unwind label %cleanup, !dbg !1857

bb10:                                             ; preds = %bb35
  %41 = zext i1 %40 to i8, !dbg !1858
  store i8 %41, ptr %_0, align 1, !dbg !1858
  br label %bb19, !dbg !1825

bb23:                                             ; preds = %bb25, %bb22, %bb19
  %42 = load i8, ptr %_0, align 1, !dbg !1859
  %43 = trunc nuw i8 %42 to i1, !dbg !1859
  ret i1 %43, !dbg !1859

bb21:                                             ; preds = %bb30, %bb32, %bb34
  br label %bb22, !dbg !1826

bb25:                                             ; preds = %bb22
  br label %bb23, !dbg !1805

bb4:                                              ; No predecessors!
  unreachable, !dbg !1826

bb24:                                             ; preds = %bb26, %bb27
  %44 = load ptr, ptr %0, align 8, !dbg !1860
  %45 = getelementptr inbounds i8, ptr %0, i64 8, !dbg !1860
  %46 = load i32, ptr %45, align 8, !dbg !1860
  %47 = insertvalue { ptr, i32 } poison, ptr %44, 0, !dbg !1860
  %48 = insertvalue { ptr, i32 } %47, i32 %46, 1, !dbg !1860
  resume { ptr, i32 } %48, !dbg !1860

bb26:                                             ; preds = %bb27
  br label %bb24, !dbg !1805
}

; core::fmt::builders::DebugStruct::field_with::{{closure}}
; Function Attrs: inlinehint uwtable
define internal zeroext i1 @"_ZN4core3fmt8builders11DebugStruct10field_with28_$u7b$$u7b$closure$u7d$$u7d$17hc3883134662b49e0E"(ptr align 8 %_1) unnamed_addr #1 personality ptr @rust_eh_personality !dbg !1861 {
start:
  %self.dbg.spill58 = alloca [1 x i8], align 1
  %self.dbg.spill56 = alloca [1 x i8], align 1
  %self.dbg.spill54 = alloca [1 x i8], align 1
  %self.dbg.spill52 = alloca [1 x i8], align 1
  %self.dbg.spill50 = alloca [1 x i8], align 1
  %self.dbg.spill48 = alloca [1 x i8], align 1
  %self.dbg.spill46 = alloca [1 x i8], align 1
  %0 = alloca [16 x i8], align 8
  %self.dbg.spill = alloca [8 x i8], align 8
  %t.dbg.spill44 = alloca [0 x i8], align 1
  %e.dbg.spill43 = alloca [0 x i8], align 1
  %residual.dbg.spill42 = alloca [0 x i8], align 1
  %e.dbg.spill41 = alloca [0 x i8], align 1
  %v.dbg.spill40 = alloca [0 x i8], align 1
  %t.dbg.spill39 = alloca [0 x i8], align 1
  %e.dbg.spill38 = alloca [0 x i8], align 1
  %residual.dbg.spill37 = alloca [0 x i8], align 1
  %e.dbg.spill36 = alloca [0 x i8], align 1
  %v.dbg.spill35 = alloca [0 x i8], align 1
  %t.dbg.spill34 = alloca [0 x i8], align 1
  %e.dbg.spill33 = alloca [0 x i8], align 1
  %residual.dbg.spill32 = alloca [0 x i8], align 1
  %e.dbg.spill31 = alloca [0 x i8], align 1
  %v.dbg.spill30 = alloca [0 x i8], align 1
  %t.dbg.spill29 = alloca [0 x i8], align 1
  %e.dbg.spill28 = alloca [0 x i8], align 1
  %residual.dbg.spill27 = alloca [0 x i8], align 1
  %e.dbg.spill26 = alloca [0 x i8], align 1
  %v.dbg.spill25 = alloca [0 x i8], align 1
  %t.dbg.spill24 = alloca [0 x i8], align 1
  %e.dbg.spill23 = alloca [0 x i8], align 1
  %residual.dbg.spill22 = alloca [0 x i8], align 1
  %e.dbg.spill21 = alloca [0 x i8], align 1
  %v.dbg.spill20 = alloca [0 x i8], align 1
  %t.dbg.spill19 = alloca [0 x i8], align 1
  %e.dbg.spill18 = alloca [0 x i8], align 1
  %residual.dbg.spill17 = alloca [0 x i8], align 1
  %e.dbg.spill16 = alloca [0 x i8], align 1
  %v.dbg.spill15 = alloca [0 x i8], align 1
  %t.dbg.spill = alloca [0 x i8], align 1
  %e.dbg.spill14 = alloca [0 x i8], align 1
  %residual.dbg.spill13 = alloca [0 x i8], align 1
  %e.dbg.spill = alloca [0 x i8], align 1
  %v.dbg.spill = alloca [0 x i8], align 1
  %val.dbg.spill12 = alloca [0 x i8], align 1
  %residual.dbg.spill11 = alloca [0 x i8], align 1
  %val.dbg.spill10 = alloca [0 x i8], align 1
  %residual.dbg.spill9 = alloca [0 x i8], align 1
  %val.dbg.spill8 = alloca [0 x i8], align 1
  %residual.dbg.spill7 = alloca [0 x i8], align 1
  %val.dbg.spill6 = alloca [0 x i8], align 1
  %residual.dbg.spill5 = alloca [0 x i8], align 1
  %val.dbg.spill4 = alloca [0 x i8], align 1
  %residual.dbg.spill3 = alloca [0 x i8], align 1
  %val.dbg.spill2 = alloca [0 x i8], align 1
  %residual.dbg.spill1 = alloca [0 x i8], align 1
  %val.dbg.spill = alloca [0 x i8], align 1
  %residual.dbg.spill = alloca [0 x i8], align 1
  %_2.dbg.spill = alloca [0 x i8], align 1
  %_44 = alloca [1 x i8], align 1
  %prefix = alloca [16 x i8], align 8
  %writer = alloca [24 x i8], align 8
  %state = alloca [1 x i8], align 1
  %slot = alloca [24 x i8], align 8
  %_0 = alloca [1 x i8], align 1
    #dbg_declare(ptr %_1, !1865, !DIExpression(DW_OP_deref), !1905)
    #dbg_declare(ptr %_1, !1866, !DIExpression(DW_OP_plus_uconst, 8, DW_OP_deref), !1906)
    #dbg_declare(ptr %_1, !1867, !DIExpression(DW_OP_plus_uconst, 24), !1907)
    #dbg_declare(ptr %_2.dbg.spill, !1904, !DIExpression(), !1908)
    #dbg_declare(ptr %slot, !1872, !DIExpression(), !1909)
    #dbg_declare(ptr %state, !1874, !DIExpression(), !1910)
    #dbg_declare(ptr %writer, !1876, !DIExpression(), !1911)
    #dbg_declare(ptr %prefix, !1890, !DIExpression(), !1912)
    #dbg_declare(ptr %residual.dbg.spill, !1868, !DIExpression(), !1913)
    #dbg_declare(ptr %val.dbg.spill, !1870, !DIExpression(), !1914)
    #dbg_declare(ptr %residual.dbg.spill1, !1878, !DIExpression(), !1915)
    #dbg_declare(ptr %val.dbg.spill2, !1880, !DIExpression(), !1916)
    #dbg_declare(ptr %residual.dbg.spill3, !1882, !DIExpression(), !1917)
    #dbg_declare(ptr %val.dbg.spill4, !1884, !DIExpression(), !1918)
    #dbg_declare(ptr %residual.dbg.spill5, !1886, !DIExpression(), !1919)
    #dbg_declare(ptr %val.dbg.spill6, !1888, !DIExpression(), !1920)
    #dbg_declare(ptr %residual.dbg.spill7, !1892, !DIExpression(), !1921)
    #dbg_declare(ptr %val.dbg.spill8, !1894, !DIExpression(), !1922)
    #dbg_declare(ptr %residual.dbg.spill9, !1896, !DIExpression(), !1923)
    #dbg_declare(ptr %val.dbg.spill10, !1898, !DIExpression(), !1924)
    #dbg_declare(ptr %residual.dbg.spill11, !1900, !DIExpression(), !1925)
    #dbg_declare(ptr %val.dbg.spill12, !1902, !DIExpression(), !1926)
    #dbg_declare(ptr %v.dbg.spill, !1927, !DIExpression(), !1958)
    #dbg_declare(ptr %e.dbg.spill, !1932, !DIExpression(), !1960)
    #dbg_declare(ptr %residual.dbg.spill13, !1961, !DIExpression(), !1978)
    #dbg_declare(ptr %e.dbg.spill14, !1964, !DIExpression(), !1981)
    #dbg_declare(ptr %t.dbg.spill, !1982, !DIExpression(), !1985)
    #dbg_declare(ptr %v.dbg.spill15, !1934, !DIExpression(), !1987)
    #dbg_declare(ptr %e.dbg.spill16, !1936, !DIExpression(), !1989)
    #dbg_declare(ptr %residual.dbg.spill17, !1961, !DIExpression(), !1990)
    #dbg_declare(ptr %e.dbg.spill18, !1966, !DIExpression(), !1993)
    #dbg_declare(ptr %t.dbg.spill19, !1982, !DIExpression(), !1994)
    #dbg_declare(ptr %v.dbg.spill20, !1938, !DIExpression(), !1997)
    #dbg_declare(ptr %e.dbg.spill21, !1940, !DIExpression(), !1999)
    #dbg_declare(ptr %residual.dbg.spill22, !1961, !DIExpression(), !2000)
    #dbg_declare(ptr %e.dbg.spill23, !1968, !DIExpression(), !2003)
    #dbg_declare(ptr %t.dbg.spill24, !1982, !DIExpression(), !2004)
    #dbg_declare(ptr %v.dbg.spill25, !1942, !DIExpression(), !2007)
    #dbg_declare(ptr %e.dbg.spill26, !1944, !DIExpression(), !2009)
    #dbg_declare(ptr %residual.dbg.spill27, !1961, !DIExpression(), !2010)
    #dbg_declare(ptr %e.dbg.spill28, !1970, !DIExpression(), !2013)
    #dbg_declare(ptr %t.dbg.spill29, !1982, !DIExpression(), !2014)
    #dbg_declare(ptr %v.dbg.spill30, !1946, !DIExpression(), !2017)
    #dbg_declare(ptr %e.dbg.spill31, !1948, !DIExpression(), !2019)
    #dbg_declare(ptr %residual.dbg.spill32, !1961, !DIExpression(), !2020)
    #dbg_declare(ptr %e.dbg.spill33, !1972, !DIExpression(), !2023)
    #dbg_declare(ptr %t.dbg.spill34, !1982, !DIExpression(), !2024)
    #dbg_declare(ptr %v.dbg.spill35, !1950, !DIExpression(), !2027)
    #dbg_declare(ptr %e.dbg.spill36, !1952, !DIExpression(), !2029)
    #dbg_declare(ptr %residual.dbg.spill37, !1961, !DIExpression(), !2030)
    #dbg_declare(ptr %e.dbg.spill38, !1974, !DIExpression(), !2033)
    #dbg_declare(ptr %t.dbg.spill39, !1982, !DIExpression(), !2034)
    #dbg_declare(ptr %v.dbg.spill40, !1954, !DIExpression(), !2037)
    #dbg_declare(ptr %e.dbg.spill41, !1956, !DIExpression(), !2039)
    #dbg_declare(ptr %residual.dbg.spill42, !1961, !DIExpression(), !2040)
    #dbg_declare(ptr %e.dbg.spill43, !1976, !DIExpression(), !2043)
    #dbg_declare(ptr %t.dbg.spill44, !1982, !DIExpression(), !2044)
  store i8 1, ptr %_44, align 1, !dbg !2047
  %self = load ptr, ptr %_1, align 8, !dbg !2047
  store ptr %self, ptr %self.dbg.spill, align 8, !dbg !2047
    #dbg_declare(ptr %self.dbg.spill, !2048, !DIExpression(), !2051)
  %_45 = load ptr, ptr %self, align 8, !dbg !2053
  %1 = getelementptr inbounds i8, ptr %_45, i64 16, !dbg !2054
  %_47 = load i32, ptr %1, align 8, !dbg !2054
  %_46 = and i32 %_47, 8388608, !dbg !2054
  %2 = icmp eq i32 %_46, 0, !dbg !2047
  br i1 %2, label %bb11, label %bb1, !dbg !2047

bb11:                                             ; preds = %start
  %_34 = load ptr, ptr %_1, align 8, !dbg !2057
  %3 = getelementptr inbounds i8, ptr %_34, i64 9, !dbg !2057
  %4 = load i8, ptr %3, align 1, !dbg !2057
  %_20 = trunc nuw i8 %4 to i1, !dbg !2057
  br i1 %_20, label %bb12, label %bb13, !dbg !2057

bb1:                                              ; preds = %start
  %_28 = load ptr, ptr %_1, align 8, !dbg !2058
  %5 = getelementptr inbounds i8, ptr %_28, i64 9, !dbg !2058
  %6 = load i8, ptr %5, align 1, !dbg !2058
  %_3 = trunc nuw i8 %6 to i1, !dbg !2058
  br i1 %_3, label %bb5, label %bb2, !dbg !2058

bb13:                                             ; preds = %bb11
  store ptr @alloc_fe2ddbdc622a788f5416063d1e8d8ad4, ptr %prefix, align 8, !dbg !2059
  %7 = getelementptr inbounds i8, ptr %prefix, i64 8, !dbg !2059
  store i64 3, ptr %7, align 8, !dbg !2059
  br label %bb14, !dbg !2060

bb12:                                             ; preds = %bb11
  store ptr @alloc_94b00be069aafad82a2c6df764237b82, ptr %prefix, align 8, !dbg !2061
  %8 = getelementptr inbounds i8, ptr %prefix, i64 8, !dbg !2061
  store i64 2, ptr %8, align 8, !dbg !2061
  br label %bb14, !dbg !2060

bb14:                                             ; preds = %bb12, %bb13
  %_35 = load ptr, ptr %_1, align 8, !dbg !2018
  %_36 = load ptr, ptr %_35, align 8, !dbg !2018
  %_22.0 = load ptr, ptr %prefix, align 8, !dbg !2062
  %9 = getelementptr inbounds i8, ptr %prefix, i64 8, !dbg !2062
  %_22.1 = load i64, ptr %9, align 8, !dbg !2062
; invoke core::fmt::Formatter::write_str
  %self45 = invoke zeroext i1 @_ZN4core3fmt9Formatter9write_str17hc08bce2768144e42E(ptr align 8 %_36, ptr align 1 %_22.0, i64 %_22.1)
          to label %bb15 unwind label %cleanup, !dbg !2063

bb27:                                             ; preds = %cleanup
  %10 = load i8, ptr %_44, align 1, !dbg !2064
  %11 = trunc nuw i8 %10 to i1, !dbg !2064
  br i1 %11, label %bb26, label %bb24, !dbg !2064

cleanup:                                          ; preds = %bb35, %bb33, %bb31, %bb6, %bb5, %bb2, %bb41, %bb39, %bb37, %bb14
  %12 = landingpad { ptr, i32 }
          cleanup
  %13 = extractvalue { ptr, i32 } %12, 0
  %14 = extractvalue { ptr, i32 } %12, 1
  store ptr %13, ptr %0, align 8
  %15 = getelementptr inbounds i8, ptr %0, i64 8
  store i32 %14, ptr %15, align 8
  br label %bb27

bb15:                                             ; preds = %bb14
  %16 = zext i1 %self45 to i8, !dbg !2018
  store i8 %16, ptr %self.dbg.spill46, align 1, !dbg !2018
    #dbg_declare(ptr %self.dbg.spill46, !1931, !DIExpression(), !2065)
  %_52 = zext i1 %self45 to i64, !dbg !2066
  %17 = trunc nuw i64 %_52 to i1, !dbg !2067
  br i1 %17, label %bb36, label %bb37, !dbg !2067

bb36:                                             ; preds = %bb15
  store i8 1, ptr %_0, align 1, !dbg !2068
  br label %bb20, !dbg !2069

bb37:                                             ; preds = %bb15
  %_37 = load ptr, ptr %_1, align 8, !dbg !2028
  %_38 = load ptr, ptr %_37, align 8, !dbg !2028
  %18 = getelementptr inbounds i8, ptr %_1, i64 8, !dbg !2071
  %_39.0 = load ptr, ptr %18, align 8, !dbg !2071
  %19 = getelementptr inbounds i8, ptr %18, i64 8, !dbg !2071
  %_39.1 = load i64, ptr %19, align 8, !dbg !2071
; invoke core::fmt::Formatter::write_str
  %self47 = invoke zeroext i1 @_ZN4core3fmt9Formatter9write_str17hc08bce2768144e42E(ptr align 8 %_38, ptr align 1 %_39.0, i64 %_39.1)
          to label %bb16 unwind label %cleanup, !dbg !2072

bb16:                                             ; preds = %bb37
  %20 = zext i1 %self47 to i8, !dbg !2028
  store i8 %20, ptr %self.dbg.spill48, align 1, !dbg !2028
    #dbg_declare(ptr %self.dbg.spill48, !1931, !DIExpression(), !2073)
  %_53 = zext i1 %self47 to i64, !dbg !2074
  %21 = trunc nuw i64 %_53 to i1, !dbg !2075
  br i1 %21, label %bb38, label %bb39, !dbg !2075

bb38:                                             ; preds = %bb16
  store i8 1, ptr %_0, align 1, !dbg !2076
  br label %bb20, !dbg !2069

bb39:                                             ; preds = %bb16
  %_40 = load ptr, ptr %_1, align 8, !dbg !2038
  %_41 = load ptr, ptr %_40, align 8, !dbg !2038
; invoke core::fmt::Formatter::write_str
  %self49 = invoke zeroext i1 @_ZN4core3fmt9Formatter9write_str17hc08bce2768144e42E(ptr align 8 %_41, ptr align 1 @alloc_556e4180596b5b612bb6ed6c0cbb55e1, i64 2)
          to label %bb17 unwind label %cleanup, !dbg !2077

bb17:                                             ; preds = %bb39
  %22 = zext i1 %self49 to i8, !dbg !2038
  store i8 %22, ptr %self.dbg.spill50, align 1, !dbg !2038
    #dbg_declare(ptr %self.dbg.spill50, !1931, !DIExpression(), !2078)
  %_54 = zext i1 %self49 to i64, !dbg !2079
  %23 = trunc nuw i64 %_54 to i1, !dbg !2080
  br i1 %23, label %bb40, label %bb41, !dbg !2080

bb40:                                             ; preds = %bb17
  store i8 1, ptr %_0, align 1, !dbg !2081
  br label %bb20, !dbg !2069

bb41:                                             ; preds = %bb17
  store i8 0, ptr %_44, align 1, !dbg !2082
  %24 = getelementptr inbounds i8, ptr %_1, i64 24, !dbg !2082
  %_25 = load ptr, ptr %24, align 8, !dbg !2082
  %_42 = load ptr, ptr %_1, align 8, !dbg !2083
  %_43 = load ptr, ptr %_42, align 8, !dbg !2083
; invoke <*const T as core::fmt::Pointer>::fmt::{{closure}}
  %25 = invoke zeroext i1 @"_ZN54_$LT$$BP$const$u20$T$u20$as$u20$core..fmt..Pointer$GT$3fmt28_$u7b$$u7b$closure$u7d$$u7d$17h1057702fa0797978E"(ptr align 8 %_25, ptr align 8 %_43)
          to label %bb18 unwind label %cleanup, !dbg !2082

bb18:                                             ; preds = %bb41
  %26 = zext i1 %25 to i8, !dbg !2082
  store i8 %26, ptr %_0, align 1, !dbg !2082
  br label %bb19, !dbg !2084

bb19:                                             ; preds = %bb10, %bb18
  br label %bb23, !dbg !2064

bb20:                                             ; preds = %bb36, %bb38, %bb40
  br label %bb22, !dbg !2085

bb22:                                             ; preds = %bb21, %bb28, %bb20
  %27 = load i8, ptr %_44, align 1, !dbg !2064
  %28 = trunc nuw i8 %27 to i1, !dbg !2064
  br i1 %28, label %bb25, label %bb23, !dbg !2064

bb2:                                              ; preds = %bb1
  %_29 = load ptr, ptr %_1, align 8, !dbg !1959
  %_30 = load ptr, ptr %_29, align 8, !dbg !1959
; invoke core::fmt::Formatter::write_str
  %self51 = invoke zeroext i1 @_ZN4core3fmt9Formatter9write_str17hc08bce2768144e42E(ptr align 8 %_30, ptr align 1 @alloc_3690db001d3db01550bdb6f3f450de28, i64 3)
          to label %bb3 unwind label %cleanup, !dbg !2087

bb5:                                              ; preds = %bb29, %bb1
  store ptr null, ptr %slot, align 8, !dbg !2088
  store i8 1, ptr %state, align 1, !dbg !2089
  %_31 = load ptr, ptr %_1, align 8, !dbg !2092
  %_32 = load ptr, ptr %_31, align 8, !dbg !2092
; invoke core::fmt::builders::PadAdapter::wrap
  invoke void @_ZN4core3fmt8builders10PadAdapter4wrap17h0ee5960baccced1dE(ptr sret([24 x i8]) align 8 %writer, ptr align 8 %_32, ptr align 8 %slot, ptr align 1 %state)
          to label %bb6 unwind label %cleanup, !dbg !2093

bb3:                                              ; preds = %bb2
  %29 = zext i1 %self51 to i8, !dbg !1959
  store i8 %29, ptr %self.dbg.spill52, align 1, !dbg !1959
    #dbg_declare(ptr %self.dbg.spill52, !1931, !DIExpression(), !2094)
  %_48 = zext i1 %self51 to i64, !dbg !2095
  %30 = trunc nuw i64 %_48 to i1, !dbg !2096
  br i1 %30, label %bb28, label %bb29, !dbg !2096

bb28:                                             ; preds = %bb3
  store i8 1, ptr %_0, align 1, !dbg !2097
  br label %bb22, !dbg !2085

bb29:                                             ; preds = %bb3
  br label %bb5, !dbg !2098

bb6:                                              ; preds = %bb5
  %31 = getelementptr inbounds i8, ptr %_1, i64 8, !dbg !2099
  %_33.0 = load ptr, ptr %31, align 8, !dbg !2099
  %32 = getelementptr inbounds i8, ptr %31, i64 8, !dbg !2099
  %_33.1 = load i64, ptr %32, align 8, !dbg !2099
; invoke core::fmt::Formatter::write_str
  %self53 = invoke zeroext i1 @_ZN4core3fmt9Formatter9write_str17hc08bce2768144e42E(ptr align 8 %writer, ptr align 1 %_33.0, i64 %_33.1)
          to label %bb7 unwind label %cleanup, !dbg !2100

bb7:                                              ; preds = %bb6
  %33 = zext i1 %self53 to i8, !dbg !1988
  store i8 %33, ptr %self.dbg.spill54, align 1, !dbg !1988
    #dbg_declare(ptr %self.dbg.spill54, !1931, !DIExpression(), !2101)
  %_49 = zext i1 %self53 to i64, !dbg !2102
  %34 = trunc nuw i64 %_49 to i1, !dbg !2103
  br i1 %34, label %bb30, label %bb31, !dbg !2103

bb30:                                             ; preds = %bb7
  store i8 1, ptr %_0, align 1, !dbg !2104
  br label %bb21, !dbg !2105

bb31:                                             ; preds = %bb7
; invoke core::fmt::Formatter::write_str
  %self55 = invoke zeroext i1 @_ZN4core3fmt9Formatter9write_str17hc08bce2768144e42E(ptr align 8 %writer, ptr align 1 @alloc_556e4180596b5b612bb6ed6c0cbb55e1, i64 2)
          to label %bb8 unwind label %cleanup, !dbg !2107

bb8:                                              ; preds = %bb31
  %35 = zext i1 %self55 to i8, !dbg !1998
  store i8 %35, ptr %self.dbg.spill56, align 1, !dbg !1998
    #dbg_declare(ptr %self.dbg.spill56, !1931, !DIExpression(), !2108)
  %_50 = zext i1 %self55 to i64, !dbg !2109
  %36 = trunc nuw i64 %_50 to i1, !dbg !2110
  br i1 %36, label %bb32, label %bb33, !dbg !2110

bb32:                                             ; preds = %bb8
  store i8 1, ptr %_0, align 1, !dbg !2111
  br label %bb21, !dbg !2105

bb33:                                             ; preds = %bb8
  store i8 0, ptr %_44, align 1, !dbg !2008
  %37 = getelementptr inbounds i8, ptr %_1, i64 24, !dbg !2008
  %_15 = load ptr, ptr %37, align 8, !dbg !2008
; invoke <*const T as core::fmt::Pointer>::fmt::{{closure}}
  %self57 = invoke zeroext i1 @"_ZN54_$LT$$BP$const$u20$T$u20$as$u20$core..fmt..Pointer$GT$3fmt28_$u7b$$u7b$closure$u7d$$u7d$17h1057702fa0797978E"(ptr align 8 %_15, ptr align 8 %writer)
          to label %bb9 unwind label %cleanup, !dbg !2008

bb9:                                              ; preds = %bb33
  %38 = zext i1 %self57 to i8, !dbg !2008
  store i8 %38, ptr %self.dbg.spill58, align 1, !dbg !2008
    #dbg_declare(ptr %self.dbg.spill58, !1931, !DIExpression(), !2112)
  %_51 = zext i1 %self57 to i64, !dbg !2113
  %39 = trunc nuw i64 %_51 to i1, !dbg !2114
  br i1 %39, label %bb34, label %bb35, !dbg !2114

bb34:                                             ; preds = %bb9
  store i8 1, ptr %_0, align 1, !dbg !2115
  br label %bb21, !dbg !2105

bb35:                                             ; preds = %bb9
; invoke core::fmt::Formatter::write_str
  %40 = invoke zeroext i1 @_ZN4core3fmt9Formatter9write_str17hc08bce2768144e42E(ptr align 8 %writer, ptr align 1 @alloc_f7ac0c356c6ac6fcd03badb685e09ca2, i64 2)
          to label %bb10 unwind label %cleanup, !dbg !2116

bb10:                                             ; preds = %bb35
  %41 = zext i1 %40 to i8, !dbg !2117
  store i8 %41, ptr %_0, align 1, !dbg !2117
  br label %bb19, !dbg !2084

bb23:                                             ; preds = %bb25, %bb22, %bb19
  %42 = load i8, ptr %_0, align 1, !dbg !2118
  %43 = trunc nuw i8 %42 to i1, !dbg !2118
  ret i1 %43, !dbg !2118

bb21:                                             ; preds = %bb30, %bb32, %bb34
  br label %bb22, !dbg !2085

bb25:                                             ; preds = %bb22
  br label %bb23, !dbg !2064

bb4:                                              ; No predecessors!
  unreachable, !dbg !2085

bb24:                                             ; preds = %bb26, %bb27
  %44 = load ptr, ptr %0, align 8, !dbg !2119
  %45 = getelementptr inbounds i8, ptr %0, i64 8, !dbg !2119
  %46 = load i32, ptr %45, align 8, !dbg !2119
  %47 = insertvalue { ptr, i32 } poison, ptr %44, 0, !dbg !2119
  %48 = insertvalue { ptr, i32 } %47, i32 %46, 1, !dbg !2119
  resume { ptr, i32 } %48, !dbg !2119

bb26:                                             ; preds = %bb27
  br label %bb24, !dbg !2064
}

; core::fmt::builders::DebugStruct::field_with::{{closure}}
; Function Attrs: inlinehint uwtable
define internal zeroext i1 @"_ZN4core3fmt8builders11DebugStruct10field_with28_$u7b$$u7b$closure$u7d$$u7d$17hf56e82fb93c435cfE"(ptr align 8 %_1) unnamed_addr #1 personality ptr @rust_eh_personality !dbg !2120 {
start:
  %self.dbg.spill58 = alloca [1 x i8], align 1
  %self.dbg.spill56 = alloca [1 x i8], align 1
  %self.dbg.spill54 = alloca [1 x i8], align 1
  %self.dbg.spill52 = alloca [1 x i8], align 1
  %self.dbg.spill50 = alloca [1 x i8], align 1
  %self.dbg.spill48 = alloca [1 x i8], align 1
  %self.dbg.spill46 = alloca [1 x i8], align 1
  %0 = alloca [16 x i8], align 8
  %self.dbg.spill = alloca [8 x i8], align 8
  %t.dbg.spill44 = alloca [0 x i8], align 1
  %e.dbg.spill43 = alloca [0 x i8], align 1
  %residual.dbg.spill42 = alloca [0 x i8], align 1
  %e.dbg.spill41 = alloca [0 x i8], align 1
  %v.dbg.spill40 = alloca [0 x i8], align 1
  %t.dbg.spill39 = alloca [0 x i8], align 1
  %e.dbg.spill38 = alloca [0 x i8], align 1
  %residual.dbg.spill37 = alloca [0 x i8], align 1
  %e.dbg.spill36 = alloca [0 x i8], align 1
  %v.dbg.spill35 = alloca [0 x i8], align 1
  %t.dbg.spill34 = alloca [0 x i8], align 1
  %e.dbg.spill33 = alloca [0 x i8], align 1
  %residual.dbg.spill32 = alloca [0 x i8], align 1
  %e.dbg.spill31 = alloca [0 x i8], align 1
  %v.dbg.spill30 = alloca [0 x i8], align 1
  %t.dbg.spill29 = alloca [0 x i8], align 1
  %e.dbg.spill28 = alloca [0 x i8], align 1
  %residual.dbg.spill27 = alloca [0 x i8], align 1
  %e.dbg.spill26 = alloca [0 x i8], align 1
  %v.dbg.spill25 = alloca [0 x i8], align 1
  %t.dbg.spill24 = alloca [0 x i8], align 1
  %e.dbg.spill23 = alloca [0 x i8], align 1
  %residual.dbg.spill22 = alloca [0 x i8], align 1
  %e.dbg.spill21 = alloca [0 x i8], align 1
  %v.dbg.spill20 = alloca [0 x i8], align 1
  %t.dbg.spill19 = alloca [0 x i8], align 1
  %e.dbg.spill18 = alloca [0 x i8], align 1
  %residual.dbg.spill17 = alloca [0 x i8], align 1
  %e.dbg.spill16 = alloca [0 x i8], align 1
  %v.dbg.spill15 = alloca [0 x i8], align 1
  %t.dbg.spill = alloca [0 x i8], align 1
  %e.dbg.spill14 = alloca [0 x i8], align 1
  %residual.dbg.spill13 = alloca [0 x i8], align 1
  %e.dbg.spill = alloca [0 x i8], align 1
  %v.dbg.spill = alloca [0 x i8], align 1
  %val.dbg.spill12 = alloca [0 x i8], align 1
  %residual.dbg.spill11 = alloca [0 x i8], align 1
  %val.dbg.spill10 = alloca [0 x i8], align 1
  %residual.dbg.spill9 = alloca [0 x i8], align 1
  %val.dbg.spill8 = alloca [0 x i8], align 1
  %residual.dbg.spill7 = alloca [0 x i8], align 1
  %val.dbg.spill6 = alloca [0 x i8], align 1
  %residual.dbg.spill5 = alloca [0 x i8], align 1
  %val.dbg.spill4 = alloca [0 x i8], align 1
  %residual.dbg.spill3 = alloca [0 x i8], align 1
  %val.dbg.spill2 = alloca [0 x i8], align 1
  %residual.dbg.spill1 = alloca [0 x i8], align 1
  %val.dbg.spill = alloca [0 x i8], align 1
  %residual.dbg.spill = alloca [0 x i8], align 1
  %_2.dbg.spill = alloca [0 x i8], align 1
  %_44 = alloca [1 x i8], align 1
  %prefix = alloca [16 x i8], align 8
  %writer = alloca [24 x i8], align 8
  %state = alloca [1 x i8], align 1
  %slot = alloca [24 x i8], align 8
  %_0 = alloca [1 x i8], align 1
    #dbg_declare(ptr %_1, !2124, !DIExpression(DW_OP_deref), !2164)
    #dbg_declare(ptr %_1, !2125, !DIExpression(DW_OP_plus_uconst, 8, DW_OP_deref), !2165)
    #dbg_declare(ptr %_1, !2126, !DIExpression(DW_OP_plus_uconst, 24), !2166)
    #dbg_declare(ptr %_2.dbg.spill, !2163, !DIExpression(), !2167)
    #dbg_declare(ptr %slot, !2131, !DIExpression(), !2168)
    #dbg_declare(ptr %state, !2133, !DIExpression(), !2169)
    #dbg_declare(ptr %writer, !2135, !DIExpression(), !2170)
    #dbg_declare(ptr %prefix, !2149, !DIExpression(), !2171)
    #dbg_declare(ptr %residual.dbg.spill, !2127, !DIExpression(), !2172)
    #dbg_declare(ptr %val.dbg.spill, !2129, !DIExpression(), !2173)
    #dbg_declare(ptr %residual.dbg.spill1, !2137, !DIExpression(), !2174)
    #dbg_declare(ptr %val.dbg.spill2, !2139, !DIExpression(), !2175)
    #dbg_declare(ptr %residual.dbg.spill3, !2141, !DIExpression(), !2176)
    #dbg_declare(ptr %val.dbg.spill4, !2143, !DIExpression(), !2177)
    #dbg_declare(ptr %residual.dbg.spill5, !2145, !DIExpression(), !2178)
    #dbg_declare(ptr %val.dbg.spill6, !2147, !DIExpression(), !2179)
    #dbg_declare(ptr %residual.dbg.spill7, !2151, !DIExpression(), !2180)
    #dbg_declare(ptr %val.dbg.spill8, !2153, !DIExpression(), !2181)
    #dbg_declare(ptr %residual.dbg.spill9, !2155, !DIExpression(), !2182)
    #dbg_declare(ptr %val.dbg.spill10, !2157, !DIExpression(), !2183)
    #dbg_declare(ptr %residual.dbg.spill11, !2159, !DIExpression(), !2184)
    #dbg_declare(ptr %val.dbg.spill12, !2161, !DIExpression(), !2185)
    #dbg_declare(ptr %v.dbg.spill, !2186, !DIExpression(), !2217)
    #dbg_declare(ptr %e.dbg.spill, !2191, !DIExpression(), !2219)
    #dbg_declare(ptr %residual.dbg.spill13, !2220, !DIExpression(), !2237)
    #dbg_declare(ptr %e.dbg.spill14, !2223, !DIExpression(), !2240)
    #dbg_declare(ptr %t.dbg.spill, !2241, !DIExpression(), !2244)
    #dbg_declare(ptr %v.dbg.spill15, !2193, !DIExpression(), !2246)
    #dbg_declare(ptr %e.dbg.spill16, !2195, !DIExpression(), !2248)
    #dbg_declare(ptr %residual.dbg.spill17, !2220, !DIExpression(), !2249)
    #dbg_declare(ptr %e.dbg.spill18, !2225, !DIExpression(), !2252)
    #dbg_declare(ptr %t.dbg.spill19, !2241, !DIExpression(), !2253)
    #dbg_declare(ptr %v.dbg.spill20, !2197, !DIExpression(), !2256)
    #dbg_declare(ptr %e.dbg.spill21, !2199, !DIExpression(), !2258)
    #dbg_declare(ptr %residual.dbg.spill22, !2220, !DIExpression(), !2259)
    #dbg_declare(ptr %e.dbg.spill23, !2227, !DIExpression(), !2262)
    #dbg_declare(ptr %t.dbg.spill24, !2241, !DIExpression(), !2263)
    #dbg_declare(ptr %v.dbg.spill25, !2201, !DIExpression(), !2266)
    #dbg_declare(ptr %e.dbg.spill26, !2203, !DIExpression(), !2268)
    #dbg_declare(ptr %residual.dbg.spill27, !2220, !DIExpression(), !2269)
    #dbg_declare(ptr %e.dbg.spill28, !2229, !DIExpression(), !2272)
    #dbg_declare(ptr %t.dbg.spill29, !2241, !DIExpression(), !2273)
    #dbg_declare(ptr %v.dbg.spill30, !2205, !DIExpression(), !2276)
    #dbg_declare(ptr %e.dbg.spill31, !2207, !DIExpression(), !2278)
    #dbg_declare(ptr %residual.dbg.spill32, !2220, !DIExpression(), !2279)
    #dbg_declare(ptr %e.dbg.spill33, !2231, !DIExpression(), !2282)
    #dbg_declare(ptr %t.dbg.spill34, !2241, !DIExpression(), !2283)
    #dbg_declare(ptr %v.dbg.spill35, !2209, !DIExpression(), !2286)
    #dbg_declare(ptr %e.dbg.spill36, !2211, !DIExpression(), !2288)
    #dbg_declare(ptr %residual.dbg.spill37, !2220, !DIExpression(), !2289)
    #dbg_declare(ptr %e.dbg.spill38, !2233, !DIExpression(), !2292)
    #dbg_declare(ptr %t.dbg.spill39, !2241, !DIExpression(), !2293)
    #dbg_declare(ptr %v.dbg.spill40, !2213, !DIExpression(), !2296)
    #dbg_declare(ptr %e.dbg.spill41, !2215, !DIExpression(), !2298)
    #dbg_declare(ptr %residual.dbg.spill42, !2220, !DIExpression(), !2299)
    #dbg_declare(ptr %e.dbg.spill43, !2235, !DIExpression(), !2302)
    #dbg_declare(ptr %t.dbg.spill44, !2241, !DIExpression(), !2303)
  store i8 1, ptr %_44, align 1, !dbg !2306
  %self = load ptr, ptr %_1, align 8, !dbg !2306
  store ptr %self, ptr %self.dbg.spill, align 8, !dbg !2306
    #dbg_declare(ptr %self.dbg.spill, !2307, !DIExpression(), !2310)
  %_45 = load ptr, ptr %self, align 8, !dbg !2312
  %1 = getelementptr inbounds i8, ptr %_45, i64 16, !dbg !2313
  %_47 = load i32, ptr %1, align 8, !dbg !2313
  %_46 = and i32 %_47, 8388608, !dbg !2313
  %2 = icmp eq i32 %_46, 0, !dbg !2306
  br i1 %2, label %bb11, label %bb1, !dbg !2306

bb11:                                             ; preds = %start
  %_34 = load ptr, ptr %_1, align 8, !dbg !2316
  %3 = getelementptr inbounds i8, ptr %_34, i64 9, !dbg !2316
  %4 = load i8, ptr %3, align 1, !dbg !2316
  %_20 = trunc nuw i8 %4 to i1, !dbg !2316
  br i1 %_20, label %bb12, label %bb13, !dbg !2316

bb1:                                              ; preds = %start
  %_28 = load ptr, ptr %_1, align 8, !dbg !2317
  %5 = getelementptr inbounds i8, ptr %_28, i64 9, !dbg !2317
  %6 = load i8, ptr %5, align 1, !dbg !2317
  %_3 = trunc nuw i8 %6 to i1, !dbg !2317
  br i1 %_3, label %bb5, label %bb2, !dbg !2317

bb13:                                             ; preds = %bb11
  store ptr @alloc_fe2ddbdc622a788f5416063d1e8d8ad4, ptr %prefix, align 8, !dbg !2318
  %7 = getelementptr inbounds i8, ptr %prefix, i64 8, !dbg !2318
  store i64 3, ptr %7, align 8, !dbg !2318
  br label %bb14, !dbg !2319

bb12:                                             ; preds = %bb11
  store ptr @alloc_94b00be069aafad82a2c6df764237b82, ptr %prefix, align 8, !dbg !2320
  %8 = getelementptr inbounds i8, ptr %prefix, i64 8, !dbg !2320
  store i64 2, ptr %8, align 8, !dbg !2320
  br label %bb14, !dbg !2319

bb14:                                             ; preds = %bb12, %bb13
  %_35 = load ptr, ptr %_1, align 8, !dbg !2277
  %_36 = load ptr, ptr %_35, align 8, !dbg !2277
  %_22.0 = load ptr, ptr %prefix, align 8, !dbg !2321
  %9 = getelementptr inbounds i8, ptr %prefix, i64 8, !dbg !2321
  %_22.1 = load i64, ptr %9, align 8, !dbg !2321
; invoke core::fmt::Formatter::write_str
  %self45 = invoke zeroext i1 @_ZN4core3fmt9Formatter9write_str17hc08bce2768144e42E(ptr align 8 %_36, ptr align 1 %_22.0, i64 %_22.1)
          to label %bb15 unwind label %cleanup, !dbg !2322

bb27:                                             ; preds = %cleanup
  %10 = load i8, ptr %_44, align 1, !dbg !2323
  %11 = trunc nuw i8 %10 to i1, !dbg !2323
  br i1 %11, label %bb26, label %bb24, !dbg !2323

cleanup:                                          ; preds = %bb35, %bb33, %bb31, %bb6, %bb5, %bb2, %bb41, %bb39, %bb37, %bb14
  %12 = landingpad { ptr, i32 }
          cleanup
  %13 = extractvalue { ptr, i32 } %12, 0
  %14 = extractvalue { ptr, i32 } %12, 1
  store ptr %13, ptr %0, align 8
  %15 = getelementptr inbounds i8, ptr %0, i64 8
  store i32 %14, ptr %15, align 8
  br label %bb27

bb15:                                             ; preds = %bb14
  %16 = zext i1 %self45 to i8, !dbg !2277
  store i8 %16, ptr %self.dbg.spill46, align 1, !dbg !2277
    #dbg_declare(ptr %self.dbg.spill46, !2190, !DIExpression(), !2324)
  %_52 = zext i1 %self45 to i64, !dbg !2325
  %17 = trunc nuw i64 %_52 to i1, !dbg !2326
  br i1 %17, label %bb36, label %bb37, !dbg !2326

bb36:                                             ; preds = %bb15
  store i8 1, ptr %_0, align 1, !dbg !2327
  br label %bb20, !dbg !2328

bb37:                                             ; preds = %bb15
  %_37 = load ptr, ptr %_1, align 8, !dbg !2287
  %_38 = load ptr, ptr %_37, align 8, !dbg !2287
  %18 = getelementptr inbounds i8, ptr %_1, i64 8, !dbg !2330
  %_39.0 = load ptr, ptr %18, align 8, !dbg !2330
  %19 = getelementptr inbounds i8, ptr %18, i64 8, !dbg !2330
  %_39.1 = load i64, ptr %19, align 8, !dbg !2330
; invoke core::fmt::Formatter::write_str
  %self47 = invoke zeroext i1 @_ZN4core3fmt9Formatter9write_str17hc08bce2768144e42E(ptr align 8 %_38, ptr align 1 %_39.0, i64 %_39.1)
          to label %bb16 unwind label %cleanup, !dbg !2331

bb16:                                             ; preds = %bb37
  %20 = zext i1 %self47 to i8, !dbg !2287
  store i8 %20, ptr %self.dbg.spill48, align 1, !dbg !2287
    #dbg_declare(ptr %self.dbg.spill48, !2190, !DIExpression(), !2332)
  %_53 = zext i1 %self47 to i64, !dbg !2333
  %21 = trunc nuw i64 %_53 to i1, !dbg !2334
  br i1 %21, label %bb38, label %bb39, !dbg !2334

bb38:                                             ; preds = %bb16
  store i8 1, ptr %_0, align 1, !dbg !2335
  br label %bb20, !dbg !2328

bb39:                                             ; preds = %bb16
  %_40 = load ptr, ptr %_1, align 8, !dbg !2297
  %_41 = load ptr, ptr %_40, align 8, !dbg !2297
; invoke core::fmt::Formatter::write_str
  %self49 = invoke zeroext i1 @_ZN4core3fmt9Formatter9write_str17hc08bce2768144e42E(ptr align 8 %_41, ptr align 1 @alloc_556e4180596b5b612bb6ed6c0cbb55e1, i64 2)
          to label %bb17 unwind label %cleanup, !dbg !2336

bb17:                                             ; preds = %bb39
  %22 = zext i1 %self49 to i8, !dbg !2297
  store i8 %22, ptr %self.dbg.spill50, align 1, !dbg !2297
    #dbg_declare(ptr %self.dbg.spill50, !2190, !DIExpression(), !2337)
  %_54 = zext i1 %self49 to i64, !dbg !2338
  %23 = trunc nuw i64 %_54 to i1, !dbg !2339
  br i1 %23, label %bb40, label %bb41, !dbg !2339

bb40:                                             ; preds = %bb17
  store i8 1, ptr %_0, align 1, !dbg !2340
  br label %bb20, !dbg !2328

bb41:                                             ; preds = %bb17
  store i8 0, ptr %_44, align 1, !dbg !2341
  %24 = getelementptr inbounds i8, ptr %_1, i64 24, !dbg !2341
  %_25 = load ptr, ptr %24, align 8, !dbg !2341
  %_42 = load ptr, ptr %_1, align 8, !dbg !2342
  %_43 = load ptr, ptr %_42, align 8, !dbg !2342
; invoke <*const T as core::fmt::Pointer>::fmt::{{closure}}
  %25 = invoke zeroext i1 @"_ZN54_$LT$$BP$const$u20$T$u20$as$u20$core..fmt..Pointer$GT$3fmt28_$u7b$$u7b$closure$u7d$$u7d$17h5d90d631796e4101E"(ptr align 8 %_25, ptr align 8 %_43)
          to label %bb18 unwind label %cleanup, !dbg !2341

bb18:                                             ; preds = %bb41
  %26 = zext i1 %25 to i8, !dbg !2341
  store i8 %26, ptr %_0, align 1, !dbg !2341
  br label %bb19, !dbg !2343

bb19:                                             ; preds = %bb10, %bb18
  br label %bb23, !dbg !2323

bb20:                                             ; preds = %bb36, %bb38, %bb40
  br label %bb22, !dbg !2344

bb22:                                             ; preds = %bb21, %bb28, %bb20
  %27 = load i8, ptr %_44, align 1, !dbg !2323
  %28 = trunc nuw i8 %27 to i1, !dbg !2323
  br i1 %28, label %bb25, label %bb23, !dbg !2323

bb2:                                              ; preds = %bb1
  %_29 = load ptr, ptr %_1, align 8, !dbg !2218
  %_30 = load ptr, ptr %_29, align 8, !dbg !2218
; invoke core::fmt::Formatter::write_str
  %self51 = invoke zeroext i1 @_ZN4core3fmt9Formatter9write_str17hc08bce2768144e42E(ptr align 8 %_30, ptr align 1 @alloc_3690db001d3db01550bdb6f3f450de28, i64 3)
          to label %bb3 unwind label %cleanup, !dbg !2346

bb5:                                              ; preds = %bb29, %bb1
  store ptr null, ptr %slot, align 8, !dbg !2347
  store i8 1, ptr %state, align 1, !dbg !2348
  %_31 = load ptr, ptr %_1, align 8, !dbg !2351
  %_32 = load ptr, ptr %_31, align 8, !dbg !2351
; invoke core::fmt::builders::PadAdapter::wrap
  invoke void @_ZN4core3fmt8builders10PadAdapter4wrap17h0ee5960baccced1dE(ptr sret([24 x i8]) align 8 %writer, ptr align 8 %_32, ptr align 8 %slot, ptr align 1 %state)
          to label %bb6 unwind label %cleanup, !dbg !2352

bb3:                                              ; preds = %bb2
  %29 = zext i1 %self51 to i8, !dbg !2218
  store i8 %29, ptr %self.dbg.spill52, align 1, !dbg !2218
    #dbg_declare(ptr %self.dbg.spill52, !2190, !DIExpression(), !2353)
  %_48 = zext i1 %self51 to i64, !dbg !2354
  %30 = trunc nuw i64 %_48 to i1, !dbg !2355
  br i1 %30, label %bb28, label %bb29, !dbg !2355

bb28:                                             ; preds = %bb3
  store i8 1, ptr %_0, align 1, !dbg !2356
  br label %bb22, !dbg !2344

bb29:                                             ; preds = %bb3
  br label %bb5, !dbg !2357

bb6:                                              ; preds = %bb5
  %31 = getelementptr inbounds i8, ptr %_1, i64 8, !dbg !2358
  %_33.0 = load ptr, ptr %31, align 8, !dbg !2358
  %32 = getelementptr inbounds i8, ptr %31, i64 8, !dbg !2358
  %_33.1 = load i64, ptr %32, align 8, !dbg !2358
; invoke core::fmt::Formatter::write_str
  %self53 = invoke zeroext i1 @_ZN4core3fmt9Formatter9write_str17hc08bce2768144e42E(ptr align 8 %writer, ptr align 1 %_33.0, i64 %_33.1)
          to label %bb7 unwind label %cleanup, !dbg !2359

bb7:                                              ; preds = %bb6
  %33 = zext i1 %self53 to i8, !dbg !2247
  store i8 %33, ptr %self.dbg.spill54, align 1, !dbg !2247
    #dbg_declare(ptr %self.dbg.spill54, !2190, !DIExpression(), !2360)
  %_49 = zext i1 %self53 to i64, !dbg !2361
  %34 = trunc nuw i64 %_49 to i1, !dbg !2362
  br i1 %34, label %bb30, label %bb31, !dbg !2362

bb30:                                             ; preds = %bb7
  store i8 1, ptr %_0, align 1, !dbg !2363
  br label %bb21, !dbg !2364

bb31:                                             ; preds = %bb7
; invoke core::fmt::Formatter::write_str
  %self55 = invoke zeroext i1 @_ZN4core3fmt9Formatter9write_str17hc08bce2768144e42E(ptr align 8 %writer, ptr align 1 @alloc_556e4180596b5b612bb6ed6c0cbb55e1, i64 2)
          to label %bb8 unwind label %cleanup, !dbg !2366

bb8:                                              ; preds = %bb31
  %35 = zext i1 %self55 to i8, !dbg !2257
  store i8 %35, ptr %self.dbg.spill56, align 1, !dbg !2257
    #dbg_declare(ptr %self.dbg.spill56, !2190, !DIExpression(), !2367)
  %_50 = zext i1 %self55 to i64, !dbg !2368
  %36 = trunc nuw i64 %_50 to i1, !dbg !2369
  br i1 %36, label %bb32, label %bb33, !dbg !2369

bb32:                                             ; preds = %bb8
  store i8 1, ptr %_0, align 1, !dbg !2370
  br label %bb21, !dbg !2364

bb33:                                             ; preds = %bb8
  store i8 0, ptr %_44, align 1, !dbg !2267
  %37 = getelementptr inbounds i8, ptr %_1, i64 24, !dbg !2267
  %_15 = load ptr, ptr %37, align 8, !dbg !2267
; invoke <*const T as core::fmt::Pointer>::fmt::{{closure}}
  %self57 = invoke zeroext i1 @"_ZN54_$LT$$BP$const$u20$T$u20$as$u20$core..fmt..Pointer$GT$3fmt28_$u7b$$u7b$closure$u7d$$u7d$17h5d90d631796e4101E"(ptr align 8 %_15, ptr align 8 %writer)
          to label %bb9 unwind label %cleanup, !dbg !2267

bb9:                                              ; preds = %bb33
  %38 = zext i1 %self57 to i8, !dbg !2267
  store i8 %38, ptr %self.dbg.spill58, align 1, !dbg !2267
    #dbg_declare(ptr %self.dbg.spill58, !2190, !DIExpression(), !2371)
  %_51 = zext i1 %self57 to i64, !dbg !2372
  %39 = trunc nuw i64 %_51 to i1, !dbg !2373
  br i1 %39, label %bb34, label %bb35, !dbg !2373

bb34:                                             ; preds = %bb9
  store i8 1, ptr %_0, align 1, !dbg !2374
  br label %bb21, !dbg !2364

bb35:                                             ; preds = %bb9
; invoke core::fmt::Formatter::write_str
  %40 = invoke zeroext i1 @_ZN4core3fmt9Formatter9write_str17hc08bce2768144e42E(ptr align 8 %writer, ptr align 1 @alloc_f7ac0c356c6ac6fcd03badb685e09ca2, i64 2)
          to label %bb10 unwind label %cleanup, !dbg !2375

bb10:                                             ; preds = %bb35
  %41 = zext i1 %40 to i8, !dbg !2376
  store i8 %41, ptr %_0, align 1, !dbg !2376
  br label %bb19, !dbg !2343

bb23:                                             ; preds = %bb25, %bb22, %bb19
  %42 = load i8, ptr %_0, align 1, !dbg !2377
  %43 = trunc nuw i8 %42 to i1, !dbg !2377
  ret i1 %43, !dbg !2377

bb21:                                             ; preds = %bb30, %bb32, %bb34
  br label %bb22, !dbg !2344

bb25:                                             ; preds = %bb22
  br label %bb23, !dbg !2323

bb4:                                              ; No predecessors!
  unreachable, !dbg !2344

bb24:                                             ; preds = %bb26, %bb27
  %44 = load ptr, ptr %0, align 8, !dbg !2378
  %45 = getelementptr inbounds i8, ptr %0, i64 8, !dbg !2378
  %46 = load i32, ptr %45, align 8, !dbg !2378
  %47 = insertvalue { ptr, i32 } poison, ptr %44, 0, !dbg !2378
  %48 = insertvalue { ptr, i32 } %47, i32 %46, 1, !dbg !2378
  resume { ptr, i32 } %48, !dbg !2378

bb26:                                             ; preds = %bb27
  br label %bb24, !dbg !2323
}

; core::ops::function::FnOnce::call_once{{vtable.shim}}
; Function Attrs: inlinehint uwtable
define internal i32 @"_ZN4core3ops8function6FnOnce40call_once$u7b$$u7b$vtable.shim$u7d$$u7d$17hdb07b58052ec0c1bE"(ptr %_1) unnamed_addr #1 !dbg !2379 {
start:
  %_1.dbg.spill = alloca [8 x i8], align 8
  %_2 = alloca [0 x i8], align 1
  store ptr %_1, ptr %_1.dbg.spill, align 8
    #dbg_declare(ptr %_1.dbg.spill, !2387, !DIExpression(), !2392)
    #dbg_declare(ptr %_2, !2388, !DIExpression(), !2392)
  %0 = load ptr, ptr %_1, align 8, !dbg !2392
; call core::ops::function::FnOnce::call_once
  %_0 = call i32 @_ZN4core3ops8function6FnOnce9call_once17hb13675d81511b776E(ptr %0), !dbg !2392
  ret i32 %_0, !dbg !2392
}

; core::ops::function::FnOnce::call_once
; Function Attrs: inlinehint uwtable
define internal void @_ZN4core3ops8function6FnOnce9call_once17h34d17c87d3ac2bf3E(ptr %_1) unnamed_addr #1 !dbg !2393 {
start:
  %_1.dbg.spill = alloca [8 x i8], align 8
  %_2 = alloca [0 x i8], align 1
  store ptr %_1, ptr %_1.dbg.spill, align 8
    #dbg_declare(ptr %_1.dbg.spill, !2395, !DIExpression(), !2399)
    #dbg_declare(ptr %_2, !2396, !DIExpression(), !2399)
  call void %_1(), !dbg !2399
  ret void, !dbg !2399
}

; core::ops::function::FnOnce::call_once
; Function Attrs: inlinehint uwtable
define internal i32 @_ZN4core3ops8function6FnOnce9call_once17hb13675d81511b776E(ptr %0) unnamed_addr #1 personality ptr @rust_eh_personality !dbg !2400 {
start:
  %1 = alloca [16 x i8], align 8
  %_2 = alloca [0 x i8], align 1
  %_1 = alloca [8 x i8], align 8
  store ptr %0, ptr %_1, align 8
    #dbg_declare(ptr %_1, !2404, !DIExpression(), !2406)
    #dbg_declare(ptr %_2, !2405, !DIExpression(), !2406)
; invoke std::rt::lang_start::{{closure}}
  %_0 = invoke i32 @"_ZN3std2rt10lang_start28_$u7b$$u7b$closure$u7d$$u7d$17h4819d7d7de2f5ed0E"(ptr align 8 %_1)
          to label %bb1 unwind label %cleanup, !dbg !2406

bb3:                                              ; preds = %cleanup
  %2 = load ptr, ptr %1, align 8, !dbg !2406
  %3 = getelementptr inbounds i8, ptr %1, i64 8, !dbg !2406
  %4 = load i32, ptr %3, align 8, !dbg !2406
  %5 = insertvalue { ptr, i32 } poison, ptr %2, 0, !dbg !2406
  %6 = insertvalue { ptr, i32 } %5, i32 %4, 1, !dbg !2406
  resume { ptr, i32 } %6, !dbg !2406

cleanup:                                          ; preds = %start
  %7 = landingpad { ptr, i32 }
          cleanup
  %8 = extractvalue { ptr, i32 } %7, 0
  %9 = extractvalue { ptr, i32 } %7, 1
  store ptr %8, ptr %1, align 8
  %10 = getelementptr inbounds i8, ptr %1, i64 8
  store i32 %9, ptr %10, align 8
  br label %bb3

bb1:                                              ; preds = %start
  ret i32 %_0, !dbg !2406
}

; core::ptr::copy_nonoverlapping::precondition_check
; Function Attrs: inlinehint nounwind uwtable
define internal void @_ZN4core3ptr19copy_nonoverlapping18precondition_check17h99ea448cb5a95ebeE(ptr %src, ptr %dst, i64 %size, i64 %align, i64 %count, ptr align 8 %0) unnamed_addr #4 personality ptr @rust_eh_personality !dbg !2407 {
start:
  %pieces.dbg.spill4 = alloca [8 x i8], align 8
  %1 = alloca [4 x i8], align 4
  %is_zst.dbg.spill = alloca [1 x i8], align 1
  %ptr.dbg.spill = alloca [8 x i8], align 8
  %pieces.dbg.spill2 = alloca [8 x i8], align 8
  %pieces.dbg.spill = alloca [8 x i8], align 8
  %msg.dbg.spill = alloca [16 x i8], align 8
  %count.dbg.spill = alloca [8 x i8], align 8
  %align.dbg.spill = alloca [8 x i8], align 8
  %size.dbg.spill = alloca [8 x i8], align 8
  %dst.dbg.spill = alloca [8 x i8], align 8
  %src.dbg.spill = alloca [8 x i8], align 8
  %_29 = alloca [48 x i8], align 8
  %_24 = alloca [4 x i8], align 4
  %_23 = alloca [8 x i8], align 8
  %_22 = alloca [8 x i8], align 8
  %_21 = alloca [8 x i8], align 8
  %_20 = alloca [48 x i8], align 8
  %_17 = alloca [16 x i8], align 8
  %_15 = alloca [48 x i8], align 8
  %is_zst = alloca [1 x i8], align 1
  %align1 = alloca [8 x i8], align 8
  %zero_size = alloca [1 x i8], align 1
  store ptr %src, ptr %src.dbg.spill, align 8
    #dbg_declare(ptr %src.dbg.spill, !2414, !DIExpression(), !2424)
    #dbg_declare(ptr %src.dbg.spill, !2425, !DIExpression(), !2433)
    #dbg_declare(ptr %src.dbg.spill, !2435, !DIExpression(), !2441)
    #dbg_declare(ptr %src.dbg.spill, !2443, !DIExpression(), !2448)
    #dbg_declare(ptr %src.dbg.spill, !2451, !DIExpression(), !2458)
    #dbg_declare(ptr %src.dbg.spill, !2461, !DIExpression(), !2466)
    #dbg_declare(ptr %src.dbg.spill, !2468, !DIExpression(), !2474)
    #dbg_declare(ptr %src.dbg.spill, !2476, !DIExpression(), !2481)
    #dbg_declare(ptr %src.dbg.spill, !2483, !DIExpression(), !2491)
  store ptr %dst, ptr %dst.dbg.spill, align 8
    #dbg_declare(ptr %dst.dbg.spill, !2415, !DIExpression(), !2424)
  store i64 %size, ptr %size.dbg.spill, align 8
    #dbg_declare(ptr %size.dbg.spill, !2416, !DIExpression(), !2424)
    #dbg_declare(ptr %size.dbg.spill, !2489, !DIExpression(), !2493)
  store i64 %align, ptr %align.dbg.spill, align 8
    #dbg_declare(ptr %align.dbg.spill, !2417, !DIExpression(), !2424)
    #dbg_declare(ptr %align.dbg.spill, !2431, !DIExpression(), !2494)
    #dbg_declare(ptr %align.dbg.spill, !2440, !DIExpression(), !2496)
    #dbg_declare(ptr %align.dbg.spill, !2447, !DIExpression(), !2499)
    #dbg_declare(ptr %align.dbg.spill, !2457, !DIExpression(), !2502)
    #dbg_declare(ptr %align.dbg.spill, !2505, !DIExpression(), !2512)
    #dbg_declare(ptr %align.dbg.spill, !2515, !DIExpression(), !2520)
  store i64 %count, ptr %count.dbg.spill, align 8
    #dbg_declare(ptr %count.dbg.spill, !2418, !DIExpression(), !2424)
    #dbg_declare(ptr %count.dbg.spill, !2490, !DIExpression(), !2523)
    #dbg_declare(ptr %zero_size, !2419, !DIExpression(), !2524)
    #dbg_declare(ptr %align1, !2431, !DIExpression(), !2525)
    #dbg_declare(ptr %align1, !2440, !DIExpression(), !2526)
    #dbg_declare(ptr %align1, !2447, !DIExpression(), !2448)
    #dbg_declare(ptr %align1, !2457, !DIExpression(), !2527)
    #dbg_declare(ptr %align1, !2505, !DIExpression(), !2528)
    #dbg_declare(ptr %align1, !2515, !DIExpression(), !2530)
    #dbg_declare(ptr %is_zst, !2432, !DIExpression(), !2532)
  store ptr @alloc_bd3468a7b96187f70c1ce98a3e7a63bf, ptr %msg.dbg.spill, align 8, !dbg !2533
  %2 = getelementptr inbounds i8, ptr %msg.dbg.spill, i64 8, !dbg !2533
  store i64 283, ptr %2, align 8, !dbg !2533
    #dbg_declare(ptr %msg.dbg.spill, !2422, !DIExpression(), !2533)
  store ptr @alloc_e92e94d0ff530782b571cfd99ec66aef, ptr %pieces.dbg.spill, align 8, !dbg !2534
    #dbg_declare(ptr %pieces.dbg.spill, !2537, !DIExpression(), !2534)
  store ptr @alloc_e92e94d0ff530782b571cfd99ec66aef, ptr %pieces.dbg.spill2, align 8, !dbg !2540
    #dbg_declare(ptr %pieces.dbg.spill2, !2537, !DIExpression(), !2540)
  %3 = icmp eq i64 %count, 0, !dbg !2542
  br i1 %3, label %bb1, label %bb2, !dbg !2542

bb1:                                              ; preds = %start
  store i8 1, ptr %zero_size, align 1, !dbg !2542
  store i64 %align, ptr %align1, align 8, !dbg !2544
  %4 = load i8, ptr %zero_size, align 1, !dbg !2545
  %5 = trunc nuw i8 %4 to i1, !dbg !2545
  %6 = zext i1 %5 to i8, !dbg !2545
  store i8 %6, ptr %is_zst, align 1, !dbg !2545
  %7 = call i64 @llvm.ctpop.i64(i64 %align), !dbg !2546
  %8 = trunc i64 %7 to i32, !dbg !2546
  store i32 %8, ptr %_24, align 4, !dbg !2546
  %9 = load i32, ptr %_24, align 4, !dbg !2547
  %10 = icmp eq i32 %9, 1, !dbg !2547
  br i1 %10, label %bb26, label %bb15, !dbg !2547

bb2:                                              ; preds = %start
  %11 = icmp eq i64 %size, 0, !dbg !2548
  %12 = zext i1 %11 to i8, !dbg !2548
  store i8 %12, ptr %zero_size, align 1, !dbg !2548
  store i64 %align, ptr %align1, align 8, !dbg !2544
  %13 = load i8, ptr %zero_size, align 1, !dbg !2545
  %14 = trunc nuw i8 %13 to i1, !dbg !2545
  %15 = zext i1 %14 to i8, !dbg !2545
  store i8 %15, ptr %is_zst, align 1, !dbg !2545
  %16 = call i64 @llvm.ctpop.i64(i64 %align), !dbg !2546
  %17 = trunc i64 %16 to i32, !dbg !2546
  store i32 %17, ptr %_24, align 4, !dbg !2546
  %18 = load i32, ptr %_24, align 4, !dbg !2547
  %19 = icmp eq i32 %18, 1, !dbg !2547
  br i1 %19, label %bb14, label %bb15, !dbg !2547

bb26:                                             ; preds = %bb1
  store ptr %src, ptr %_22, align 8, !dbg !2549
  %20 = sub i64 %align, 1, !dbg !2550
  store i64 %20, ptr %_23, align 8, !dbg !2550
  %21 = load i64, ptr %_22, align 8, !dbg !2551
  %22 = load i64, ptr %_23, align 8, !dbg !2551
  %23 = and i64 %21, %22, !dbg !2551
  store i64 %23, ptr %_21, align 8, !dbg !2551
  %24 = load i64, ptr %_21, align 8, !dbg !2442
  %25 = icmp eq i64 %24, 0, !dbg !2442
  br i1 %25, label %bb27, label %bb11, !dbg !2442

bb15:                                             ; preds = %bb2, %bb1
  store ptr @alloc_e92e94d0ff530782b571cfd99ec66aef, ptr %_20, align 8, !dbg !2552
  %26 = getelementptr inbounds i8, ptr %_20, i64 8, !dbg !2552
  store i64 1, ptr %26, align 8, !dbg !2552
  %27 = load ptr, ptr @anon.0708bd2454ad289a73a64e34329909be.0, align 8, !dbg !2552
  %28 = load i64, ptr getelementptr inbounds (i8, ptr @anon.0708bd2454ad289a73a64e34329909be.0, i64 8), align 8, !dbg !2552
  %29 = getelementptr inbounds i8, ptr %_20, i64 32, !dbg !2552
  store ptr %27, ptr %29, align 8, !dbg !2552
  %30 = getelementptr inbounds i8, ptr %29, i64 8, !dbg !2552
  store i64 %28, ptr %30, align 8, !dbg !2552
  %31 = getelementptr inbounds i8, ptr %_20, i64 16, !dbg !2552
  store ptr inttoptr (i64 8 to ptr), ptr %31, align 8, !dbg !2552
  %32 = getelementptr inbounds i8, ptr %31, i64 8, !dbg !2552
  store i64 0, ptr %32, align 8, !dbg !2552
; invoke core::panicking::panic_fmt
  invoke void @_ZN4core9panicking9panic_fmt17h477ff48eff31ffa4E(ptr align 8 %_20, ptr align 8 @alloc_863114602ff53edf107e51a9c9035fa2) #16
          to label %unreachable unwind label %terminate, !dbg !2539

bb27:                                             ; preds = %bb26
  br label %bb12, !dbg !2553

bb11:                                             ; preds = %bb14, %bb26
  br label %bb6, !dbg !2434

bb12:                                             ; preds = %bb10, %bb27
  br label %bb3, !dbg !2434

bb14:                                             ; preds = %bb2
  store ptr %src, ptr %_22, align 8, !dbg !2549
  %33 = sub i64 %align, 1, !dbg !2550
  store i64 %33, ptr %_23, align 8, !dbg !2550
  %34 = load i64, ptr %_22, align 8, !dbg !2551
  %35 = load i64, ptr %_23, align 8, !dbg !2551
  %36 = and i64 %34, %35, !dbg !2551
  store i64 %36, ptr %_21, align 8, !dbg !2551
  %37 = load i64, ptr %_21, align 8, !dbg !2442
  %38 = icmp eq i64 %37, 0, !dbg !2442
  br i1 %38, label %bb10, label %bb11, !dbg !2442

bb10:                                             ; preds = %bb14
  %39 = load i8, ptr %is_zst, align 1, !dbg !2553
  %40 = trunc nuw i8 %39 to i1, !dbg !2553
  br i1 %40, label %bb12, label %bb13, !dbg !2553

bb13:                                             ; preds = %bb10
  %41 = load i64, ptr %_22, align 8, !dbg !2554
  %_18 = icmp eq i64 %41, 0, !dbg !2554
  %_8 = xor i1 %_18, true, !dbg !2563
  br i1 %_8, label %bb3, label %bb6, !dbg !2434

bb6:                                              ; preds = %bb11, %bb13
  br label %bb7, !dbg !2564

bb3:                                              ; preds = %bb12, %bb13
  store ptr %dst, ptr %ptr.dbg.spill, align 8, !dbg !2566
    #dbg_declare(ptr %ptr.dbg.spill, !2425, !DIExpression(), !2567)
    #dbg_declare(ptr %ptr.dbg.spill, !2435, !DIExpression(), !2568)
    #dbg_declare(ptr %ptr.dbg.spill, !2443, !DIExpression(), !2499)
    #dbg_declare(ptr %ptr.dbg.spill, !2451, !DIExpression(), !2569)
    #dbg_declare(ptr %ptr.dbg.spill, !2461, !DIExpression(), !2570)
    #dbg_declare(ptr %ptr.dbg.spill, !2468, !DIExpression(), !2572)
    #dbg_declare(ptr %ptr.dbg.spill, !2476, !DIExpression(), !2575)
    #dbg_declare(ptr %ptr.dbg.spill, !2488, !DIExpression(), !2577)
  %42 = load i8, ptr %zero_size, align 1, !dbg !2578
  %is_zst3 = trunc nuw i8 %42 to i1, !dbg !2578
  %43 = zext i1 %is_zst3 to i8, !dbg !2578
  store i8 %43, ptr %is_zst.dbg.spill, align 1, !dbg !2578
    #dbg_declare(ptr %is_zst.dbg.spill, !2432, !DIExpression(), !2579)
  %44 = call i64 @llvm.ctpop.i64(i64 %align), !dbg !2580
  %45 = trunc i64 %44 to i32, !dbg !2580
  store i32 %45, ptr %1, align 4, !dbg !2580
  %_32 = load i32, ptr %1, align 4, !dbg !2580
  %46 = icmp eq i32 %_32, 1, !dbg !2581
  br i1 %46, label %bb21, label %bb22, !dbg !2581

bb21:                                             ; preds = %bb3
  %_31 = ptrtoint ptr %dst to i64, !dbg !2582
  %47 = load i64, ptr %_23, align 8, !dbg !2583
  %_30 = and i64 %_31, %47, !dbg !2583
  %48 = icmp eq i64 %_30, 0, !dbg !2584
  br i1 %48, label %bb17, label %bb18, !dbg !2584

bb22:                                             ; preds = %bb3
  store ptr @alloc_e92e94d0ff530782b571cfd99ec66aef, ptr %_29, align 8, !dbg !2585
  %49 = getelementptr inbounds i8, ptr %_29, i64 8, !dbg !2585
  store i64 1, ptr %49, align 8, !dbg !2585
  %50 = load ptr, ptr @anon.0708bd2454ad289a73a64e34329909be.0, align 8, !dbg !2585
  %51 = load i64, ptr getelementptr inbounds (i8, ptr @anon.0708bd2454ad289a73a64e34329909be.0, i64 8), align 8, !dbg !2585
  %52 = getelementptr inbounds i8, ptr %_29, i64 32, !dbg !2585
  store ptr %50, ptr %52, align 8, !dbg !2585
  %53 = getelementptr inbounds i8, ptr %52, i64 8, !dbg !2585
  store i64 %51, ptr %53, align 8, !dbg !2585
  %54 = getelementptr inbounds i8, ptr %_29, i64 16, !dbg !2585
  store ptr inttoptr (i64 8 to ptr), ptr %54, align 8, !dbg !2585
  %55 = getelementptr inbounds i8, ptr %54, i64 8, !dbg !2585
  store i64 0, ptr %55, align 8, !dbg !2585
; invoke core::panicking::panic_fmt
  invoke void @_ZN4core9panicking9panic_fmt17h477ff48eff31ffa4E(ptr align 8 %_29, ptr align 8 @alloc_863114602ff53edf107e51a9c9035fa2) #16
          to label %unreachable unwind label %terminate, !dbg !2586

bb17:                                             ; preds = %bb21
  br i1 %is_zst3, label %bb19, label %bb20, !dbg !2587

bb18:                                             ; preds = %bb21
  br label %bb5, !dbg !2495

bb20:                                             ; preds = %bb17
  %_27 = icmp eq i64 %_31, 0, !dbg !2588
  %_11 = xor i1 %_27, true, !dbg !2591
  br i1 %_11, label %bb4, label %bb5, !dbg !2495

bb19:                                             ; preds = %bb17
  br label %bb4, !dbg !2495

bb5:                                              ; preds = %bb18, %bb20
  br label %bb7, !dbg !2564

bb4:                                              ; preds = %bb19, %bb20
; invoke core::ub_checks::maybe_is_nonoverlapping::runtime
  %_6 = invoke zeroext i1 @_ZN4core9ub_checks23maybe_is_nonoverlapping7runtime17ha3aa23bd170f6883E(ptr %src, ptr %dst, i64 %size, i64 %count)
          to label %bb24 unwind label %terminate, !dbg !2592

terminate:                                        ; preds = %bb15, %bb22, %bb4
  %56 = landingpad { ptr, i32 }
          filter [0 x ptr] zeroinitializer
; call core::panicking::panic_cannot_unwind
  call void @_ZN4core9panicking19panic_cannot_unwind17ha4e3ecab6cb0371cE() #17, !dbg !2594
  unreachable, !dbg !2594

bb24:                                             ; preds = %bb4
  br i1 %_6, label %bb9, label %bb8, !dbg !2595

bb8:                                              ; preds = %bb7, %bb24
  %57 = getelementptr inbounds nuw { ptr, i64 }, ptr %_17, i64 0, !dbg !2596
  store ptr @alloc_bd3468a7b96187f70c1ce98a3e7a63bf, ptr %57, align 8, !dbg !2596
  %58 = getelementptr inbounds i8, ptr %57, i64 8, !dbg !2596
  store i64 283, ptr %58, align 8, !dbg !2596
  store ptr %_17, ptr %pieces.dbg.spill4, align 8, !dbg !2597
    #dbg_declare(ptr %pieces.dbg.spill4, !2538, !DIExpression(), !2598)
  store ptr %_17, ptr %_15, align 8, !dbg !2600
  %59 = getelementptr inbounds i8, ptr %_15, i64 8, !dbg !2600
  store i64 1, ptr %59, align 8, !dbg !2600
  %60 = load ptr, ptr @anon.0708bd2454ad289a73a64e34329909be.0, align 8, !dbg !2600
  %61 = load i64, ptr getelementptr inbounds (i8, ptr @anon.0708bd2454ad289a73a64e34329909be.0, i64 8), align 8, !dbg !2600
  %62 = getelementptr inbounds i8, ptr %_15, i64 32, !dbg !2600
  store ptr %60, ptr %62, align 8, !dbg !2600
  %63 = getelementptr inbounds i8, ptr %62, i64 8, !dbg !2600
  store i64 %61, ptr %63, align 8, !dbg !2600
  %64 = getelementptr inbounds i8, ptr %_15, i64 16, !dbg !2600
  store ptr inttoptr (i64 8 to ptr), ptr %64, align 8, !dbg !2600
  %65 = getelementptr inbounds i8, ptr %64, i64 8, !dbg !2600
  store i64 0, ptr %65, align 8, !dbg !2600
; call core::panicking::panic_nounwind_fmt
  call void @_ZN4core9panicking18panic_nounwind_fmt17h9825e2aa83719df7E(ptr align 8 %_15, i1 zeroext false, ptr align 8 %0) #18, !dbg !2601
  unreachable, !dbg !2601

bb9:                                              ; preds = %bb24
  ret void, !dbg !2602

bb7:                                              ; preds = %bb6, %bb5
  br label %bb8, !dbg !2595

unreachable:                                      ; preds = %bb15, %bb22
  unreachable
}

; core::ptr::drop_in_place<alloc::string::String>
; Function Attrs: uwtable
define internal void @"_ZN4core3ptr42drop_in_place$LT$alloc..string..String$GT$17h7d74cf7b9240e008E"(ptr align 8 %_1) unnamed_addr #0 !dbg !2603 {
start:
  %_1.dbg.spill = alloca [8 x i8], align 8
  store ptr %_1, ptr %_1.dbg.spill, align 8
    #dbg_declare(ptr %_1.dbg.spill, !2608, !DIExpression(), !2609)
; call core::ptr::drop_in_place<alloc::vec::Vec<u8>>
  call void @"_ZN4core3ptr46drop_in_place$LT$alloc..vec..Vec$LT$u8$GT$$GT$17h822c792072b6bd1dE"(ptr align 8 %_1), !dbg !2609
  ret void, !dbg !2609
}

; core::ptr::drop_in_place<alloc::vec::Vec<u8>>
; Function Attrs: uwtable
define internal void @"_ZN4core3ptr46drop_in_place$LT$alloc..vec..Vec$LT$u8$GT$$GT$17h822c792072b6bd1dE"(ptr align 8 %_1) unnamed_addr #0 personality ptr @rust_eh_personality !dbg !2610 {
start:
  %0 = alloca [16 x i8], align 8
  %_1.dbg.spill = alloca [8 x i8], align 8
  store ptr %_1, ptr %_1.dbg.spill, align 8
    #dbg_declare(ptr %_1.dbg.spill, !2615, !DIExpression(), !2618)
; invoke <alloc::vec::Vec<T,A> as core::ops::drop::Drop>::drop
  invoke void @"_ZN70_$LT$alloc..vec..Vec$LT$T$C$A$GT$$u20$as$u20$core..ops..drop..Drop$GT$4drop17h05f7d087d148fceaE"(ptr align 8 %_1)
          to label %bb4 unwind label %cleanup, !dbg !2618

bb3:                                              ; preds = %cleanup
; invoke core::ptr::drop_in_place<alloc::raw_vec::RawVec<u8>>
  invoke void @"_ZN4core3ptr53drop_in_place$LT$alloc..raw_vec..RawVec$LT$u8$GT$$GT$17hb1bf3e6837adebd1E"(ptr align 8 %_1) #19
          to label %bb1 unwind label %terminate, !dbg !2618

cleanup:                                          ; preds = %start
  %1 = landingpad { ptr, i32 }
          cleanup
  %2 = extractvalue { ptr, i32 } %1, 0
  %3 = extractvalue { ptr, i32 } %1, 1
  store ptr %2, ptr %0, align 8
  %4 = getelementptr inbounds i8, ptr %0, i64 8
  store i32 %3, ptr %4, align 8
  br label %bb3

bb4:                                              ; preds = %start
; call core::ptr::drop_in_place<alloc::raw_vec::RawVec<u8>>
  call void @"_ZN4core3ptr53drop_in_place$LT$alloc..raw_vec..RawVec$LT$u8$GT$$GT$17hb1bf3e6837adebd1E"(ptr align 8 %_1), !dbg !2618
  ret void, !dbg !2618

terminate:                                        ; preds = %bb3
  %5 = landingpad { ptr, i32 }
          filter [0 x ptr] zeroinitializer
; call core::panicking::panic_in_cleanup
  call void @_ZN4core9panicking16panic_in_cleanup17h957d6ed6f32c031dE() #17, !dbg !2618
  unreachable, !dbg !2618

bb1:                                              ; preds = %bb3
  %6 = load ptr, ptr %0, align 8, !dbg !2618
  %7 = getelementptr inbounds i8, ptr %0, i64 8, !dbg !2618
  %8 = load i32, ptr %7, align 8, !dbg !2618
  %9 = insertvalue { ptr, i32 } poison, ptr %6, 0, !dbg !2618
  %10 = insertvalue { ptr, i32 } %9, i32 %8, 1, !dbg !2618
  resume { ptr, i32 } %10, !dbg !2618
}

; core::ptr::drop_in_place<alloc::boxed::Box<i32>>
; Function Attrs: uwtable
define internal void @"_ZN4core3ptr49drop_in_place$LT$alloc..boxed..Box$LT$i32$GT$$GT$17h40b3538395b75d04E"(ptr align 8 %_1) unnamed_addr #0 personality ptr @rust_eh_personality !dbg !2619 {
start:
  %0 = alloca [16 x i8], align 8
  %_1.dbg.spill = alloca [8 x i8], align 8
  store ptr %_1, ptr %_1.dbg.spill, align 8
    #dbg_declare(ptr %_1.dbg.spill, !2624, !DIExpression(), !2625)
  %_6 = load ptr, ptr %_1, align 8, !dbg !2625
  br label %bb3, !dbg !2625

bb3:                                              ; preds = %start
; call <alloc::boxed::Box<T,A> as core::ops::drop::Drop>::drop
  call void @"_ZN72_$LT$alloc..boxed..Box$LT$T$C$A$GT$$u20$as$u20$core..ops..drop..Drop$GT$4drop17h9188b70511241fd6E"(ptr align 8 %_1), !dbg !2625
  ret void, !dbg !2625

bb4:                                              ; No predecessors!
; invoke <alloc::boxed::Box<T,A> as core::ops::drop::Drop>::drop
  invoke void @"_ZN72_$LT$alloc..boxed..Box$LT$T$C$A$GT$$u20$as$u20$core..ops..drop..Drop$GT$4drop17h9188b70511241fd6E"(ptr align 8 %_1) #19
          to label %bb1 unwind label %terminate, !dbg !2625

terminate:                                        ; preds = %bb4
  %1 = landingpad { ptr, i32 }
          filter [0 x ptr] zeroinitializer
; call core::panicking::panic_in_cleanup
  call void @_ZN4core9panicking16panic_in_cleanup17h957d6ed6f32c031dE() #17, !dbg !2625
  unreachable, !dbg !2625

bb1:                                              ; preds = %bb4
  %2 = load ptr, ptr %0, align 8, !dbg !2625
  %3 = getelementptr inbounds i8, ptr %0, i64 8, !dbg !2625
  %4 = load i32, ptr %3, align 8, !dbg !2625
  %5 = insertvalue { ptr, i32 } poison, ptr %2, 0, !dbg !2625
  %6 = insertvalue { ptr, i32 } %5, i32 %4, 1, !dbg !2625
  resume { ptr, i32 } %6, !dbg !2625
}

; core::ptr::drop_in_place<alloc::raw_vec::RawVec<u8>>
; Function Attrs: uwtable
define internal void @"_ZN4core3ptr53drop_in_place$LT$alloc..raw_vec..RawVec$LT$u8$GT$$GT$17hb1bf3e6837adebd1E"(ptr align 8 %_1) unnamed_addr #0 !dbg !2626 {
start:
  %_1.dbg.spill = alloca [8 x i8], align 8
  store ptr %_1, ptr %_1.dbg.spill, align 8
    #dbg_declare(ptr %_1.dbg.spill, !2631, !DIExpression(), !2634)
; call <alloc::raw_vec::RawVec<T,A> as core::ops::drop::Drop>::drop
  call void @"_ZN77_$LT$alloc..raw_vec..RawVec$LT$T$C$A$GT$$u20$as$u20$core..ops..drop..Drop$GT$4drop17h14f8880bce35b8a4E"(ptr align 8 %_1), !dbg !2634
  ret void, !dbg !2634
}

; core::ptr::non_null::NonNull<T>::new_unchecked::precondition_check
; Function Attrs: inlinehint nounwind uwtable
define internal void @"_ZN4core3ptr8non_null16NonNull$LT$T$GT$13new_unchecked18precondition_check17h18f18375962e39e0E"(ptr %ptr, ptr align 8 %0) unnamed_addr #4 !dbg !2635 {
start:
  %pieces.dbg.spill = alloca [8 x i8], align 8
  %msg.dbg.spill = alloca [16 x i8], align 8
  %ptr.dbg.spill = alloca [8 x i8], align 8
  %_5 = alloca [16 x i8], align 8
  %_3 = alloca [48 x i8], align 8
  store ptr %ptr, ptr %ptr.dbg.spill, align 8
    #dbg_declare(ptr %ptr.dbg.spill, !2641, !DIExpression(), !2644)
    #dbg_declare(ptr %ptr.dbg.spill, !2645, !DIExpression(), !2653)
  store ptr @alloc_560a59ed819b9d9a5841f6e731c4c8e5, ptr %msg.dbg.spill, align 8, !dbg !2656
  %1 = getelementptr inbounds i8, ptr %msg.dbg.spill, i64 8, !dbg !2656
  store i64 210, ptr %1, align 8, !dbg !2656
    #dbg_declare(ptr %msg.dbg.spill, !2642, !DIExpression(), !2656)
  %_6 = ptrtoint ptr %ptr to i64, !dbg !2657
  %2 = icmp eq i64 %_6, 0, !dbg !2668
  br i1 %2, label %bb1, label %bb2, !dbg !2668

bb1:                                              ; preds = %start
  %3 = getelementptr inbounds nuw { ptr, i64 }, ptr %_5, i64 0, !dbg !2669
  store ptr @alloc_560a59ed819b9d9a5841f6e731c4c8e5, ptr %3, align 8, !dbg !2669
  %4 = getelementptr inbounds i8, ptr %3, i64 8, !dbg !2669
  store i64 210, ptr %4, align 8, !dbg !2669
  store ptr %_5, ptr %pieces.dbg.spill, align 8, !dbg !2670
    #dbg_declare(ptr %pieces.dbg.spill, !2671, !DIExpression(), !2674)
  store ptr %_5, ptr %_3, align 8, !dbg !2676
  %5 = getelementptr inbounds i8, ptr %_3, i64 8, !dbg !2676
  store i64 1, ptr %5, align 8, !dbg !2676
  %6 = load ptr, ptr @anon.0708bd2454ad289a73a64e34329909be.0, align 8, !dbg !2676
  %7 = load i64, ptr getelementptr inbounds (i8, ptr @anon.0708bd2454ad289a73a64e34329909be.0, i64 8), align 8, !dbg !2676
  %8 = getelementptr inbounds i8, ptr %_3, i64 32, !dbg !2676
  store ptr %6, ptr %8, align 8, !dbg !2676
  %9 = getelementptr inbounds i8, ptr %8, i64 8, !dbg !2676
  store i64 %7, ptr %9, align 8, !dbg !2676
  %10 = getelementptr inbounds i8, ptr %_3, i64 16, !dbg !2676
  store ptr inttoptr (i64 8 to ptr), ptr %10, align 8, !dbg !2676
  %11 = getelementptr inbounds i8, ptr %10, i64 8, !dbg !2676
  store i64 0, ptr %11, align 8, !dbg !2676
; call core::panicking::panic_nounwind_fmt
  call void @_ZN4core9panicking18panic_nounwind_fmt17h9825e2aa83719df7E(ptr align 8 %_3, i1 zeroext false, ptr align 8 %0) #18, !dbg !2677
  unreachable, !dbg !2677

bb2:                                              ; preds = %start
  ret void, !dbg !2678
}

; core::hint::assert_unchecked::precondition_check
; Function Attrs: inlinehint nounwind uwtable
define internal void @_ZN4core4hint16assert_unchecked18precondition_check17h8500ef60390ccb27E(i1 zeroext %cond, ptr align 8 %0) unnamed_addr #4 !dbg !2679 {
start:
  %pieces.dbg.spill = alloca [8 x i8], align 8
  %msg.dbg.spill = alloca [16 x i8], align 8
  %cond.dbg.spill = alloca [1 x i8], align 1
  %_5 = alloca [16 x i8], align 8
  %_3 = alloca [48 x i8], align 8
  %1 = zext i1 %cond to i8
  store i8 %1, ptr %cond.dbg.spill, align 1
    #dbg_declare(ptr %cond.dbg.spill, !2684, !DIExpression(), !2687)
  store ptr @alloc_64e308ef4babfeb8b6220184de794a17, ptr %msg.dbg.spill, align 8, !dbg !2688
  %2 = getelementptr inbounds i8, ptr %msg.dbg.spill, i64 8, !dbg !2688
  store i64 221, ptr %2, align 8, !dbg !2688
    #dbg_declare(ptr %msg.dbg.spill, !2685, !DIExpression(), !2688)
  br i1 %cond, label %bb2, label %bb1, !dbg !2689

bb1:                                              ; preds = %start
  %3 = getelementptr inbounds nuw { ptr, i64 }, ptr %_5, i64 0, !dbg !2691
  store ptr @alloc_64e308ef4babfeb8b6220184de794a17, ptr %3, align 8, !dbg !2691
  %4 = getelementptr inbounds i8, ptr %3, i64 8, !dbg !2691
  store i64 221, ptr %4, align 8, !dbg !2691
  store ptr %_5, ptr %pieces.dbg.spill, align 8, !dbg !2692
    #dbg_declare(ptr %pieces.dbg.spill, !2693, !DIExpression(), !2696)
  store ptr %_5, ptr %_3, align 8, !dbg !2698
  %5 = getelementptr inbounds i8, ptr %_3, i64 8, !dbg !2698
  store i64 1, ptr %5, align 8, !dbg !2698
  %6 = load ptr, ptr @anon.0708bd2454ad289a73a64e34329909be.0, align 8, !dbg !2698
  %7 = load i64, ptr getelementptr inbounds (i8, ptr @anon.0708bd2454ad289a73a64e34329909be.0, i64 8), align 8, !dbg !2698
  %8 = getelementptr inbounds i8, ptr %_3, i64 32, !dbg !2698
  store ptr %6, ptr %8, align 8, !dbg !2698
  %9 = getelementptr inbounds i8, ptr %8, i64 8, !dbg !2698
  store i64 %7, ptr %9, align 8, !dbg !2698
  %10 = getelementptr inbounds i8, ptr %_3, i64 16, !dbg !2698
  store ptr inttoptr (i64 8 to ptr), ptr %10, align 8, !dbg !2698
  %11 = getelementptr inbounds i8, ptr %10, i64 8, !dbg !2698
  store i64 0, ptr %11, align 8, !dbg !2698
; call core::panicking::panic_nounwind_fmt
  call void @_ZN4core9panicking18panic_nounwind_fmt17h9825e2aa83719df7E(ptr align 8 %_3, i1 zeroext false, ptr align 8 %0) #18, !dbg !2699
  unreachable, !dbg !2699

bb2:                                              ; preds = %start
  ret void, !dbg !2700
}

; core::alloc::layout::Layout::from_size_align_unchecked::precondition_check
; Function Attrs: inlinehint nounwind uwtable
define internal void @_ZN4core5alloc6layout6Layout25from_size_align_unchecked18precondition_check17hb76fe35de1535b92E(i64 %size, i64 %align, ptr align 8 %0) unnamed_addr #4 personality ptr @rust_eh_personality !dbg !2701 {
start:
  %pieces.dbg.spill = alloca [8 x i8], align 8
  %msg.dbg.spill = alloca [16 x i8], align 8
  %align.dbg.spill = alloca [8 x i8], align 8
  %size.dbg.spill = alloca [8 x i8], align 8
  %_7 = alloca [16 x i8], align 8
  %_5 = alloca [48 x i8], align 8
  store i64 %size, ptr %size.dbg.spill, align 8
    #dbg_declare(ptr %size.dbg.spill, !2709, !DIExpression(), !2713)
  store i64 %align, ptr %align.dbg.spill, align 8
    #dbg_declare(ptr %align.dbg.spill, !2710, !DIExpression(), !2713)
  store ptr @alloc_1be5ea12ba708d9a11b6e93a7d387a75, ptr %msg.dbg.spill, align 8, !dbg !2714
  %1 = getelementptr inbounds i8, ptr %msg.dbg.spill, i64 8, !dbg !2714
  store i64 281, ptr %1, align 8, !dbg !2714
    #dbg_declare(ptr %msg.dbg.spill, !2711, !DIExpression(), !2714)
; invoke core::alloc::layout::Layout::is_size_align_valid
  %_3 = invoke zeroext i1 @_ZN4core5alloc6layout6Layout19is_size_align_valid17h0906d6515b34e52cE(i64 %size, i64 %align)
          to label %bb1 unwind label %terminate, !dbg !2715

terminate:                                        ; preds = %start
  %2 = landingpad { ptr, i32 }
          filter [0 x ptr] zeroinitializer
; call core::panicking::panic_cannot_unwind
  call void @_ZN4core9panicking19panic_cannot_unwind17ha4e3ecab6cb0371cE() #17, !dbg !2718
  unreachable, !dbg !2718

bb1:                                              ; preds = %start
  br i1 %_3, label %bb2, label %bb3, !dbg !2715

bb3:                                              ; preds = %bb1
  %3 = getelementptr inbounds nuw { ptr, i64 }, ptr %_7, i64 0, !dbg !2719
  store ptr @alloc_1be5ea12ba708d9a11b6e93a7d387a75, ptr %3, align 8, !dbg !2719
  %4 = getelementptr inbounds i8, ptr %3, i64 8, !dbg !2719
  store i64 281, ptr %4, align 8, !dbg !2719
  store ptr %_7, ptr %pieces.dbg.spill, align 8, !dbg !2720
    #dbg_declare(ptr %pieces.dbg.spill, !2721, !DIExpression(), !2724)
  store ptr %_7, ptr %_5, align 8, !dbg !2726
  %5 = getelementptr inbounds i8, ptr %_5, i64 8, !dbg !2726
  store i64 1, ptr %5, align 8, !dbg !2726
  %6 = load ptr, ptr @anon.0708bd2454ad289a73a64e34329909be.0, align 8, !dbg !2726
  %7 = load i64, ptr getelementptr inbounds (i8, ptr @anon.0708bd2454ad289a73a64e34329909be.0, i64 8), align 8, !dbg !2726
  %8 = getelementptr inbounds i8, ptr %_5, i64 32, !dbg !2726
  store ptr %6, ptr %8, align 8, !dbg !2726
  %9 = getelementptr inbounds i8, ptr %8, i64 8, !dbg !2726
  store i64 %7, ptr %9, align 8, !dbg !2726
  %10 = getelementptr inbounds i8, ptr %_5, i64 16, !dbg !2726
  store ptr inttoptr (i64 8 to ptr), ptr %10, align 8, !dbg !2726
  %11 = getelementptr inbounds i8, ptr %10, i64 8, !dbg !2726
  store i64 0, ptr %11, align 8, !dbg !2726
; call core::panicking::panic_nounwind_fmt
  call void @_ZN4core9panicking18panic_nounwind_fmt17h9825e2aa83719df7E(ptr align 8 %_5, i1 zeroext false, ptr align 8 %0) #18, !dbg !2727
  unreachable, !dbg !2727

bb2:                                              ; preds = %bb1
  ret void, !dbg !2728
}

; core::slice::raw::from_raw_parts::precondition_check
; Function Attrs: inlinehint nounwind uwtable
define internal void @_ZN4core5slice3raw14from_raw_parts18precondition_check17h49de462790076265E(ptr %data, i64 %size, i64 %align, i64 %len, ptr align 8 %0) unnamed_addr #4 personality ptr @rust_eh_personality !dbg !2729 {
start:
  %pieces.dbg.spill1 = alloca [8 x i8], align 8
  %1 = alloca [4 x i8], align 4
  %ptr.dbg.spill = alloca [8 x i8], align 8
  %pieces.dbg.spill = alloca [8 x i8], align 8
  %is_zst.dbg.spill = alloca [1 x i8], align 1
  %msg.dbg.spill = alloca [16 x i8], align 8
  %len.dbg.spill = alloca [8 x i8], align 8
  %align.dbg.spill = alloca [8 x i8], align 8
  %size.dbg.spill = alloca [8 x i8], align 8
  %data.dbg.spill = alloca [8 x i8], align 8
  %max_len = alloca [8 x i8], align 8
  %_14 = alloca [48 x i8], align 8
  %_11 = alloca [16 x i8], align 8
  %_9 = alloca [48 x i8], align 8
  store ptr %data, ptr %data.dbg.spill, align 8
    #dbg_declare(ptr %data.dbg.spill, !2736, !DIExpression(), !2742)
  store i64 %size, ptr %size.dbg.spill, align 8
    #dbg_declare(ptr %size.dbg.spill, !2737, !DIExpression(), !2742)
    #dbg_declare(ptr %size.dbg.spill, !2743, !DIExpression(), !2751)
  store i64 %align, ptr %align.dbg.spill, align 8
    #dbg_declare(ptr %align.dbg.spill, !2738, !DIExpression(), !2742)
    #dbg_declare(ptr %align.dbg.spill, !2755, !DIExpression(), !2760)
    #dbg_declare(ptr %align.dbg.spill, !2762, !DIExpression(), !2766)
    #dbg_declare(ptr %align.dbg.spill, !2768, !DIExpression(), !2772)
    #dbg_declare(ptr %align.dbg.spill, !2775, !DIExpression(), !2779)
    #dbg_declare(ptr %align.dbg.spill, !2782, !DIExpression(), !2785)
    #dbg_declare(ptr %align.dbg.spill, !2787, !DIExpression(), !2790)
  store i64 %len, ptr %len.dbg.spill, align 8
    #dbg_declare(ptr %len.dbg.spill, !2739, !DIExpression(), !2742)
    #dbg_declare(ptr %len.dbg.spill, !2748, !DIExpression(), !2792)
    #dbg_declare(ptr %max_len, !2749, !DIExpression(), !2793)
  store ptr @alloc_a28e8c8fd5088943a8b5d44af697ff83, ptr %msg.dbg.spill, align 8, !dbg !2794
  %2 = getelementptr inbounds i8, ptr %msg.dbg.spill, i64 8, !dbg !2794
  store i64 279, ptr %2, align 8, !dbg !2794
    #dbg_declare(ptr %msg.dbg.spill, !2740, !DIExpression(), !2794)
  store i8 0, ptr %is_zst.dbg.spill, align 1, !dbg !2795
    #dbg_declare(ptr %is_zst.dbg.spill, !2759, !DIExpression(), !2795)
  store ptr @alloc_e92e94d0ff530782b571cfd99ec66aef, ptr %pieces.dbg.spill, align 8, !dbg !2796
    #dbg_declare(ptr %pieces.dbg.spill, !2799, !DIExpression(), !2796)
  store ptr %data, ptr %ptr.dbg.spill, align 8, !dbg !2802
    #dbg_declare(ptr %ptr.dbg.spill, !2758, !DIExpression(), !2803)
    #dbg_declare(ptr %ptr.dbg.spill, !2765, !DIExpression(), !2804)
    #dbg_declare(ptr %ptr.dbg.spill, !2771, !DIExpression(), !2772)
    #dbg_declare(ptr %ptr.dbg.spill, !2778, !DIExpression(), !2805)
    #dbg_declare(ptr %ptr.dbg.spill, !2806, !DIExpression(), !2809)
    #dbg_declare(ptr %ptr.dbg.spill, !2811, !DIExpression(), !2814)
    #dbg_declare(ptr %ptr.dbg.spill, !2816, !DIExpression(), !2819)
  %3 = call i64 @llvm.ctpop.i64(i64 %align), !dbg !2821
  %4 = trunc i64 %3 to i32, !dbg !2821
  store i32 %4, ptr %1, align 4, !dbg !2821
  %_18 = load i32, ptr %1, align 4, !dbg !2821
  %5 = icmp eq i32 %_18, 1, !dbg !2822
  br i1 %5, label %bb8, label %bb9, !dbg !2822

bb8:                                              ; preds = %start
  %_16 = ptrtoint ptr %data to i64, !dbg !2823
  %_17 = sub i64 %align, 1, !dbg !2824
  %_15 = and i64 %_16, %_17, !dbg !2825
  %6 = icmp eq i64 %_15, 0, !dbg !2767
  br i1 %6, label %bb6, label %bb7, !dbg !2767

bb9:                                              ; preds = %start
  store ptr @alloc_e92e94d0ff530782b571cfd99ec66aef, ptr %_14, align 8, !dbg !2826
  %7 = getelementptr inbounds i8, ptr %_14, i64 8, !dbg !2826
  store i64 1, ptr %7, align 8, !dbg !2826
  %8 = load ptr, ptr @anon.0708bd2454ad289a73a64e34329909be.0, align 8, !dbg !2826
  %9 = load i64, ptr getelementptr inbounds (i8, ptr @anon.0708bd2454ad289a73a64e34329909be.0, i64 8), align 8, !dbg !2826
  %10 = getelementptr inbounds i8, ptr %_14, i64 32, !dbg !2826
  store ptr %8, ptr %10, align 8, !dbg !2826
  %11 = getelementptr inbounds i8, ptr %10, i64 8, !dbg !2826
  store i64 %9, ptr %11, align 8, !dbg !2826
  %12 = getelementptr inbounds i8, ptr %_14, i64 16, !dbg !2826
  store ptr inttoptr (i64 8 to ptr), ptr %12, align 8, !dbg !2826
  %13 = getelementptr inbounds i8, ptr %12, i64 8, !dbg !2826
  store i64 0, ptr %13, align 8, !dbg !2826
; invoke core::panicking::panic_fmt
  invoke void @_ZN4core9panicking9panic_fmt17h477ff48eff31ffa4E(ptr align 8 %_14, ptr align 8 @alloc_863114602ff53edf107e51a9c9035fa2) #16
          to label %unreachable unwind label %terminate, !dbg !2801

bb6:                                              ; preds = %bb8
  %_12 = icmp eq i64 %_16, 0, !dbg !2827
  %_5 = xor i1 %_12, true, !dbg !2833
  br i1 %_5, label %bb1, label %bb4, !dbg !2761

bb7:                                              ; preds = %bb8
  br label %bb4, !dbg !2761

bb4:                                              ; preds = %bb7, %bb6
  br label %bb5, !dbg !2834

bb1:                                              ; preds = %bb6
  %_22 = icmp eq i64 %size, 0, !dbg !2836
  %14 = icmp eq i64 %size, 0, !dbg !2836
  br i1 %14, label %bb11, label %bb12, !dbg !2836

bb11:                                             ; preds = %bb1
  store i64 -1, ptr %max_len, align 8, !dbg !2837
  br label %bb14, !dbg !2838

bb12:                                             ; preds = %bb1
  br i1 %_22, label %panic, label %bb13, !dbg !2839

bb14:                                             ; preds = %bb13, %bb11
  %_23 = load i64, ptr %max_len, align 8, !dbg !2840
  %_7 = icmp ule i64 %len, %_23, !dbg !2841
  br i1 %_7, label %bb2, label %bb3, !dbg !2752

bb13:                                             ; preds = %bb12
  %15 = udiv i64 9223372036854775807, %size, !dbg !2839
  store i64 %15, ptr %max_len, align 8, !dbg !2839
  br label %bb14, !dbg !2838

panic:                                            ; preds = %bb12
; invoke core::panicking::panic_const::panic_const_div_by_zero
  invoke void @_ZN4core9panicking11panic_const23panic_const_div_by_zero17hbfd106e67d83d7baE(ptr align 8 @alloc_c546c23a9ba92cfed6659b88891d1475) #16
          to label %unreachable unwind label %terminate, !dbg !2839

terminate:                                        ; preds = %bb9, %panic
  %16 = landingpad { ptr, i32 }
          filter [0 x ptr] zeroinitializer
; call core::panicking::panic_cannot_unwind
  call void @_ZN4core9panicking19panic_cannot_unwind17ha4e3ecab6cb0371cE() #17, !dbg !2842
  unreachable, !dbg !2842

unreachable:                                      ; preds = %bb9, %panic
  unreachable

bb3:                                              ; preds = %bb14
  br label %bb5, !dbg !2834

bb2:                                              ; preds = %bb14
  ret void, !dbg !2843

bb5:                                              ; preds = %bb4, %bb3
  %17 = getelementptr inbounds nuw { ptr, i64 }, ptr %_11, i64 0, !dbg !2844
  store ptr @alloc_a28e8c8fd5088943a8b5d44af697ff83, ptr %17, align 8, !dbg !2844
  %18 = getelementptr inbounds i8, ptr %17, i64 8, !dbg !2844
  store i64 279, ptr %18, align 8, !dbg !2844
  store ptr %_11, ptr %pieces.dbg.spill1, align 8, !dbg !2845
    #dbg_declare(ptr %pieces.dbg.spill1, !2800, !DIExpression(), !2846)
  store ptr %_11, ptr %_9, align 8, !dbg !2848
  %19 = getelementptr inbounds i8, ptr %_9, i64 8, !dbg !2848
  store i64 1, ptr %19, align 8, !dbg !2848
  %20 = load ptr, ptr @anon.0708bd2454ad289a73a64e34329909be.0, align 8, !dbg !2848
  %21 = load i64, ptr getelementptr inbounds (i8, ptr @anon.0708bd2454ad289a73a64e34329909be.0, i64 8), align 8, !dbg !2848
  %22 = getelementptr inbounds i8, ptr %_9, i64 32, !dbg !2848
  store ptr %20, ptr %22, align 8, !dbg !2848
  %23 = getelementptr inbounds i8, ptr %22, i64 8, !dbg !2848
  store i64 %21, ptr %23, align 8, !dbg !2848
  %24 = getelementptr inbounds i8, ptr %_9, i64 16, !dbg !2848
  store ptr inttoptr (i64 8 to ptr), ptr %24, align 8, !dbg !2848
  %25 = getelementptr inbounds i8, ptr %24, i64 8, !dbg !2848
  store i64 0, ptr %25, align 8, !dbg !2848
; call core::panicking::panic_nounwind_fmt
  call void @_ZN4core9panicking18panic_nounwind_fmt17h9825e2aa83719df7E(ptr align 8 %_9, i1 zeroext false, ptr align 8 %0) #18, !dbg !2849
  unreachable, !dbg !2849
}

; core::ub_checks::maybe_is_nonoverlapping::runtime
; Function Attrs: inlinehint uwtable
define internal zeroext i1 @_ZN4core9ub_checks23maybe_is_nonoverlapping7runtime17ha3aa23bd170f6883E(ptr %src, ptr %dst, i64 %size, i64 %count) unnamed_addr #1 !dbg !2850 {
start:
  %size.dbg.spill2 = alloca [8 x i8], align 8
  %a.dbg.spill = alloca [8 x i8], align 8
  %b.dbg.spill = alloca [1 x i8], align 1
  %dst_usize.dbg.spill = alloca [8 x i8], align 8
  %src_usize.dbg.spill = alloca [8 x i8], align 8
  %count.dbg.spill = alloca [8 x i8], align 8
  %size.dbg.spill = alloca [8 x i8], align 8
  %dst.dbg.spill = alloca [8 x i8], align 8
  %src.dbg.spill = alloca [8 x i8], align 8
  %diff = alloca [8 x i8], align 8
  %_9 = alloca [16 x i8], align 8
  store ptr %src, ptr %src.dbg.spill, align 8
    #dbg_declare(ptr %src.dbg.spill, !2853, !DIExpression(), !2865)
    #dbg_declare(ptr %src.dbg.spill, !2866, !DIExpression(), !2869)
    #dbg_declare(ptr %src.dbg.spill, !2872, !DIExpression(), !2875)
  store ptr %dst, ptr %dst.dbg.spill, align 8
    #dbg_declare(ptr %dst.dbg.spill, !2854, !DIExpression(), !2865)
    #dbg_declare(ptr %dst.dbg.spill, !2866, !DIExpression(), !2877)
    #dbg_declare(ptr %dst.dbg.spill, !2872, !DIExpression(), !2879)
  store i64 %size, ptr %size.dbg.spill, align 8
    #dbg_declare(ptr %size.dbg.spill, !2855, !DIExpression(), !2865)
    #dbg_declare(ptr %size.dbg.spill, !2882, !DIExpression(), !2904)
    #dbg_declare(ptr %size.dbg.spill, !2906, !DIExpression(), !2916)
  store i64 %count, ptr %count.dbg.spill, align 8
    #dbg_declare(ptr %count.dbg.spill, !2856, !DIExpression(), !2865)
    #dbg_declare(ptr %count.dbg.spill, !2900, !DIExpression(), !2918)
    #dbg_declare(ptr %count.dbg.spill, !2915, !DIExpression(), !2919)
    #dbg_declare(ptr %diff, !2863, !DIExpression(), !2920)
  %src_usize = ptrtoint ptr %src to i64, !dbg !2921
  store i64 %src_usize, ptr %src_usize.dbg.spill, align 8, !dbg !2921
    #dbg_declare(ptr %src_usize.dbg.spill, !2857, !DIExpression(), !2922)
    #dbg_declare(ptr %src_usize.dbg.spill, !2923, !DIExpression(), !2929)
  %dst_usize = ptrtoint ptr %dst to i64, !dbg !2931
  store i64 %dst_usize, ptr %dst_usize.dbg.spill, align 8, !dbg !2931
    #dbg_declare(ptr %dst_usize.dbg.spill, !2859, !DIExpression(), !2932)
    #dbg_declare(ptr %dst_usize.dbg.spill, !2928, !DIExpression(), !2933)
  %0 = call { i64, i1 } @llvm.umul.with.overflow.i64(i64 %size, i64 %count), !dbg !2934
  %_14.0 = extractvalue { i64, i1 } %0, 0, !dbg !2934
  %_14.1 = extractvalue { i64, i1 } %0, 1, !dbg !2934
  %1 = zext i1 %_14.1 to i8, !dbg !2935
  store i8 %1, ptr %b.dbg.spill, align 1, !dbg !2935
    #dbg_declare(ptr %b.dbg.spill, !2903, !DIExpression(), !2936)
    #dbg_declare(ptr %b.dbg.spill, !2937, !DIExpression(), !2942)
  store i64 %_14.0, ptr %a.dbg.spill, align 8, !dbg !2944
    #dbg_declare(ptr %a.dbg.spill, !2901, !DIExpression(), !2945)
  br i1 %_14.1, label %bb1, label %bb3, !dbg !2946

bb3:                                              ; preds = %start
  %2 = getelementptr inbounds i8, ptr %_9, i64 8, !dbg !2947
  store i64 %_14.0, ptr %2, align 8, !dbg !2947
  store i64 1, ptr %_9, align 8, !dbg !2947
  %3 = getelementptr inbounds i8, ptr %_9, i64 8, !dbg !2948
  %size1 = load i64, ptr %3, align 8, !dbg !2948
  store i64 %size1, ptr %size.dbg.spill2, align 8, !dbg !2948
    #dbg_declare(ptr %size.dbg.spill2, !2861, !DIExpression(), !2949)
  %_22 = icmp ult i64 %src_usize, %dst_usize, !dbg !2950
  br i1 %_22, label %bb4, label %bb5, !dbg !2950

bb1:                                              ; preds = %start
; call core::panicking::panic_nounwind
  call void @_ZN4core9panicking14panic_nounwind17h4cc28a4411926d9dE(ptr align 1 @alloc_763310d78c99c2c1ad3f8a9821e942f3, i64 61) #18, !dbg !2951
  unreachable, !dbg !2951

bb5:                                              ; preds = %bb3
  %4 = sub i64 %src_usize, %dst_usize, !dbg !2952
  store i64 %4, ptr %diff, align 8, !dbg !2952
  br label %bb6, !dbg !2953

bb4:                                              ; preds = %bb3
  %5 = sub i64 %dst_usize, %src_usize, !dbg !2954
  store i64 %5, ptr %diff, align 8, !dbg !2954
  br label %bb6, !dbg !2953

bb6:                                              ; preds = %bb4, %bb5
  %_11 = load i64, ptr %diff, align 8, !dbg !2955
  %_0 = icmp uge i64 %_11, %size1, !dbg !2955
  ret i1 %_0, !dbg !2956
}

; <*const T as core::fmt::Pointer>::fmt
; Function Attrs: uwtable
define internal zeroext i1 @"_ZN54_$LT$$BP$const$u20$T$u20$as$u20$core..fmt..Pointer$GT$3fmt17h0a7083c70afc999aE"(ptr align 8 %self, ptr align 8 %f) unnamed_addr #0 !dbg !2957 {
start:
  %self.dbg.spill2 = alloca [8 x i8], align 8
  %ptr.dbg.spill = alloca [8 x i8], align 8
  %f.dbg.spill = alloca [8 x i8], align 8
  %self.dbg.spill = alloca [8 x i8], align 8
  %_13 = alloca [0 x i8], align 1
  %_9 = alloca [16 x i8], align 8
  %_0 = alloca [1 x i8], align 1
  store ptr %self, ptr %self.dbg.spill, align 8
    #dbg_declare(ptr %self.dbg.spill, !2961, !DIExpression(), !2963)
  store ptr %f, ptr %f.dbg.spill, align 8
    #dbg_declare(ptr %f.dbg.spill, !2962, !DIExpression(), !2964)
; call <() as core::unit::IsUnit>::is_unit
  %_3 = call zeroext i1 @"_ZN47_$LT$$LP$$RP$$u20$as$u20$core..unit..IsUnit$GT$7is_unit17hefe2e1bd2f018f1bE"(), !dbg !2965
  br i1 %_3, label %bb2, label %bb4, !dbg !2965

bb4:                                              ; preds = %start
; call core::fmt::Formatter::debug_struct
  call void @_ZN4core3fmt9Formatter12debug_struct17h55a79d93041b839dE(ptr sret([16 x i8]) align 8 %_9, ptr align 8 %f, ptr align 1 @alloc_ce241a11b15bddb1715fb336b57443fe, i64 7), !dbg !2966
; call core::fmt::builders::DebugStruct::field_with
  %_7 = call align 8 ptr @_ZN4core3fmt8builders11DebugStruct10field_with17hbef8728d5b7bd6cbE(ptr align 8 %_9, ptr align 1 @alloc_54a7bb754f73cc19a80f411dbaeede2b, i64 4, ptr align 8 %self), !dbg !2967
  %ptr = load ptr, ptr %self, align 8, !dbg !2968
  store ptr %ptr, ptr %ptr.dbg.spill, align 8, !dbg !2968
    #dbg_declare(ptr %ptr.dbg.spill, !2969, !DIExpression(), !2976)
; call core::fmt::builders::DebugStruct::field
  %_6 = call align 8 ptr @_ZN4core3fmt8builders11DebugStruct5field17h3ee9b9e1fc926e61E(ptr align 8 %_7, ptr align 1 @alloc_670772c5db542b0dbf2f0a341c0a82f0, i64 8, ptr align 1 %_13, ptr align 8 @vtable.1), !dbg !2978
; call core::fmt::builders::DebugStruct::finish
  %0 = call zeroext i1 @_ZN4core3fmt8builders11DebugStruct6finish17hd222a908c37b56a9E(ptr align 8 %_6), !dbg !2979
  %1 = zext i1 %0 to i8, !dbg !2979
  store i8 %1, ptr %_0, align 1, !dbg !2979
  br label %bb9, !dbg !2980

bb2:                                              ; preds = %start
  %self1 = load ptr, ptr %self, align 8, !dbg !2981
  store ptr %self1, ptr %self.dbg.spill2, align 8, !dbg !2981
    #dbg_declare(ptr %self.dbg.spill2, !2982, !DIExpression(), !2987)
    #dbg_declare(ptr %self.dbg.spill2, !2989, !DIExpression(), !2995)
  %_4 = ptrtoint ptr %self1 to i64, !dbg !2997
; call core::fmt::pointer_fmt_inner
  %2 = call zeroext i1 @_ZN4core3fmt17pointer_fmt_inner17h31595b622a28a27eE(i64 %_4, ptr align 8 %f), !dbg !2998
  %3 = zext i1 %2 to i8, !dbg !2998
  store i8 %3, ptr %_0, align 1, !dbg !2998
  br label %bb9, !dbg !2980

bb9:                                              ; preds = %bb2, %bb4
  %4 = load i8, ptr %_0, align 1, !dbg !2999
  %5 = trunc nuw i8 %4 to i1, !dbg !2999
  ret i1 %5, !dbg !2999
}

; <*const T as core::fmt::Pointer>::fmt
; Function Attrs: uwtable
define internal zeroext i1 @"_ZN54_$LT$$BP$const$u20$T$u20$as$u20$core..fmt..Pointer$GT$3fmt17h146981daddaa65d0E"(ptr align 8 %self, ptr align 8 %f) unnamed_addr #0 !dbg !3000 {
start:
  %self.dbg.spill2 = alloca [8 x i8], align 8
  %ptr.dbg.spill = alloca [8 x i8], align 8
  %f.dbg.spill = alloca [8 x i8], align 8
  %self.dbg.spill = alloca [8 x i8], align 8
  %_13 = alloca [0 x i8], align 1
  %_9 = alloca [16 x i8], align 8
  %_0 = alloca [1 x i8], align 1
  store ptr %self, ptr %self.dbg.spill, align 8
    #dbg_declare(ptr %self.dbg.spill, !3004, !DIExpression(), !3006)
  store ptr %f, ptr %f.dbg.spill, align 8
    #dbg_declare(ptr %f.dbg.spill, !3005, !DIExpression(), !3007)
; call <() as core::unit::IsUnit>::is_unit
  %_3 = call zeroext i1 @"_ZN47_$LT$$LP$$RP$$u20$as$u20$core..unit..IsUnit$GT$7is_unit17hefe2e1bd2f018f1bE"(), !dbg !3008
  br i1 %_3, label %bb2, label %bb4, !dbg !3008

bb4:                                              ; preds = %start
; call core::fmt::Formatter::debug_struct
  call void @_ZN4core3fmt9Formatter12debug_struct17h55a79d93041b839dE(ptr sret([16 x i8]) align 8 %_9, ptr align 8 %f, ptr align 1 @alloc_ce241a11b15bddb1715fb336b57443fe, i64 7), !dbg !3009
; call core::fmt::builders::DebugStruct::field_with
  %_7 = call align 8 ptr @_ZN4core3fmt8builders11DebugStruct10field_with17h084477a8c79ba9bdE(ptr align 8 %_9, ptr align 1 @alloc_54a7bb754f73cc19a80f411dbaeede2b, i64 4, ptr align 8 %self), !dbg !3010
  %ptr = load ptr, ptr %self, align 8, !dbg !3011
  store ptr %ptr, ptr %ptr.dbg.spill, align 8, !dbg !3011
    #dbg_declare(ptr %ptr.dbg.spill, !3012, !DIExpression(), !3017)
; call core::fmt::builders::DebugStruct::field
  %_6 = call align 8 ptr @_ZN4core3fmt8builders11DebugStruct5field17h3ee9b9e1fc926e61E(ptr align 8 %_7, ptr align 1 @alloc_670772c5db542b0dbf2f0a341c0a82f0, i64 8, ptr align 1 %_13, ptr align 8 @vtable.1), !dbg !3019
; call core::fmt::builders::DebugStruct::finish
  %0 = call zeroext i1 @_ZN4core3fmt8builders11DebugStruct6finish17hd222a908c37b56a9E(ptr align 8 %_6), !dbg !3020
  %1 = zext i1 %0 to i8, !dbg !3020
  store i8 %1, ptr %_0, align 1, !dbg !3020
  br label %bb9, !dbg !3021

bb2:                                              ; preds = %start
  %self1 = load ptr, ptr %self, align 8, !dbg !3022
  store ptr %self1, ptr %self.dbg.spill2, align 8, !dbg !3022
    #dbg_declare(ptr %self.dbg.spill2, !3023, !DIExpression(), !3028)
    #dbg_declare(ptr %self.dbg.spill2, !3030, !DIExpression(), !3036)
  %_4 = ptrtoint ptr %self1 to i64, !dbg !3038
; call core::fmt::pointer_fmt_inner
  %2 = call zeroext i1 @_ZN4core3fmt17pointer_fmt_inner17h31595b622a28a27eE(i64 %_4, ptr align 8 %f), !dbg !3039
  %3 = zext i1 %2 to i8, !dbg !3039
  store i8 %3, ptr %_0, align 1, !dbg !3039
  br label %bb9, !dbg !3021

bb9:                                              ; preds = %bb2, %bb4
  %4 = load i8, ptr %_0, align 1, !dbg !3040
  %5 = trunc nuw i8 %4 to i1, !dbg !3040
  ret i1 %5, !dbg !3040
}

; <*const T as core::fmt::Pointer>::fmt
; Function Attrs: uwtable
define internal zeroext i1 @"_ZN54_$LT$$BP$const$u20$T$u20$as$u20$core..fmt..Pointer$GT$3fmt17h434f4e5e7f958482E"(ptr align 8 %self, ptr align 8 %f) unnamed_addr #0 !dbg !3041 {
start:
  %self.dbg.spill2 = alloca [8 x i8], align 8
  %ptr.dbg.spill = alloca [8 x i8], align 8
  %f.dbg.spill = alloca [8 x i8], align 8
  %self.dbg.spill = alloca [8 x i8], align 8
  %_13 = alloca [0 x i8], align 1
  %_9 = alloca [16 x i8], align 8
  %_0 = alloca [1 x i8], align 1
  store ptr %self, ptr %self.dbg.spill, align 8
    #dbg_declare(ptr %self.dbg.spill, !3045, !DIExpression(), !3047)
  store ptr %f, ptr %f.dbg.spill, align 8
    #dbg_declare(ptr %f.dbg.spill, !3046, !DIExpression(), !3048)
; call <() as core::unit::IsUnit>::is_unit
  %_3 = call zeroext i1 @"_ZN47_$LT$$LP$$RP$$u20$as$u20$core..unit..IsUnit$GT$7is_unit17hefe2e1bd2f018f1bE"(), !dbg !3049
  br i1 %_3, label %bb2, label %bb4, !dbg !3049

bb4:                                              ; preds = %start
; call core::fmt::Formatter::debug_struct
  call void @_ZN4core3fmt9Formatter12debug_struct17h55a79d93041b839dE(ptr sret([16 x i8]) align 8 %_9, ptr align 8 %f, ptr align 1 @alloc_ce241a11b15bddb1715fb336b57443fe, i64 7), !dbg !3050
; call core::fmt::builders::DebugStruct::field_with
  %_7 = call align 8 ptr @_ZN4core3fmt8builders11DebugStruct10field_with17h28c86f7c390369f0E(ptr align 8 %_9, ptr align 1 @alloc_54a7bb754f73cc19a80f411dbaeede2b, i64 4, ptr align 8 %self), !dbg !3051
  %ptr = load ptr, ptr %self, align 8, !dbg !3052
  store ptr %ptr, ptr %ptr.dbg.spill, align 8, !dbg !3052
    #dbg_declare(ptr %ptr.dbg.spill, !3053, !DIExpression(), !3058)
; call core::fmt::builders::DebugStruct::field
  %_6 = call align 8 ptr @_ZN4core3fmt8builders11DebugStruct5field17h3ee9b9e1fc926e61E(ptr align 8 %_7, ptr align 1 @alloc_670772c5db542b0dbf2f0a341c0a82f0, i64 8, ptr align 1 %_13, ptr align 8 @vtable.1), !dbg !3060
; call core::fmt::builders::DebugStruct::finish
  %0 = call zeroext i1 @_ZN4core3fmt8builders11DebugStruct6finish17hd222a908c37b56a9E(ptr align 8 %_6), !dbg !3061
  %1 = zext i1 %0 to i8, !dbg !3061
  store i8 %1, ptr %_0, align 1, !dbg !3061
  br label %bb9, !dbg !3062

bb2:                                              ; preds = %start
  %self1 = load ptr, ptr %self, align 8, !dbg !3063
  store ptr %self1, ptr %self.dbg.spill2, align 8, !dbg !3063
    #dbg_declare(ptr %self.dbg.spill2, !3064, !DIExpression(), !3069)
    #dbg_declare(ptr %self.dbg.spill2, !3071, !DIExpression(), !3077)
  %_4 = ptrtoint ptr %self1 to i64, !dbg !3079
; call core::fmt::pointer_fmt_inner
  %2 = call zeroext i1 @_ZN4core3fmt17pointer_fmt_inner17h31595b622a28a27eE(i64 %_4, ptr align 8 %f), !dbg !3080
  %3 = zext i1 %2 to i8, !dbg !3080
  store i8 %3, ptr %_0, align 1, !dbg !3080
  br label %bb9, !dbg !3062

bb9:                                              ; preds = %bb2, %bb4
  %4 = load i8, ptr %_0, align 1, !dbg !3081
  %5 = trunc nuw i8 %4 to i1, !dbg !3081
  ret i1 %5, !dbg !3081
}

; <*const T as core::fmt::Pointer>::fmt
; Function Attrs: uwtable
define internal zeroext i1 @"_ZN54_$LT$$BP$const$u20$T$u20$as$u20$core..fmt..Pointer$GT$3fmt17h6df6c427a5bc55f1E"(ptr align 8 %self, ptr align 8 %f) unnamed_addr #0 !dbg !3082 {
start:
  %self.dbg.spill2 = alloca [8 x i8], align 8
  %ptr.dbg.spill = alloca [8 x i8], align 8
  %f.dbg.spill = alloca [8 x i8], align 8
  %self.dbg.spill = alloca [8 x i8], align 8
  %_13 = alloca [0 x i8], align 1
  %_9 = alloca [16 x i8], align 8
  %_0 = alloca [1 x i8], align 1
  store ptr %self, ptr %self.dbg.spill, align 8
    #dbg_declare(ptr %self.dbg.spill, !3086, !DIExpression(), !3088)
  store ptr %f, ptr %f.dbg.spill, align 8
    #dbg_declare(ptr %f.dbg.spill, !3087, !DIExpression(), !3089)
; call <() as core::unit::IsUnit>::is_unit
  %_3 = call zeroext i1 @"_ZN47_$LT$$LP$$RP$$u20$as$u20$core..unit..IsUnit$GT$7is_unit17hefe2e1bd2f018f1bE"(), !dbg !3090
  br i1 %_3, label %bb2, label %bb4, !dbg !3090

bb4:                                              ; preds = %start
; call core::fmt::Formatter::debug_struct
  call void @_ZN4core3fmt9Formatter12debug_struct17h55a79d93041b839dE(ptr sret([16 x i8]) align 8 %_9, ptr align 8 %f, ptr align 1 @alloc_ce241a11b15bddb1715fb336b57443fe, i64 7), !dbg !3091
; call core::fmt::builders::DebugStruct::field_with
  %_7 = call align 8 ptr @_ZN4core3fmt8builders11DebugStruct10field_with17hed5d35915c53ea2dE(ptr align 8 %_9, ptr align 1 @alloc_54a7bb754f73cc19a80f411dbaeede2b, i64 4, ptr align 8 %self), !dbg !3092
  %ptr = load ptr, ptr %self, align 8, !dbg !3093
  store ptr %ptr, ptr %ptr.dbg.spill, align 8, !dbg !3093
    #dbg_declare(ptr %ptr.dbg.spill, !3094, !DIExpression(), !3099)
; call core::fmt::builders::DebugStruct::field
  %_6 = call align 8 ptr @_ZN4core3fmt8builders11DebugStruct5field17h3ee9b9e1fc926e61E(ptr align 8 %_7, ptr align 1 @alloc_670772c5db542b0dbf2f0a341c0a82f0, i64 8, ptr align 1 %_13, ptr align 8 @vtable.1), !dbg !3101
; call core::fmt::builders::DebugStruct::finish
  %0 = call zeroext i1 @_ZN4core3fmt8builders11DebugStruct6finish17hd222a908c37b56a9E(ptr align 8 %_6), !dbg !3102
  %1 = zext i1 %0 to i8, !dbg !3102
  store i8 %1, ptr %_0, align 1, !dbg !3102
  br label %bb9, !dbg !3103

bb2:                                              ; preds = %start
  %self1 = load ptr, ptr %self, align 8, !dbg !3104
  store ptr %self1, ptr %self.dbg.spill2, align 8, !dbg !3104
    #dbg_declare(ptr %self.dbg.spill2, !3105, !DIExpression(), !3110)
    #dbg_declare(ptr %self.dbg.spill2, !3112, !DIExpression(), !3118)
  %_4 = ptrtoint ptr %self1 to i64, !dbg !3120
; call core::fmt::pointer_fmt_inner
  %2 = call zeroext i1 @_ZN4core3fmt17pointer_fmt_inner17h31595b622a28a27eE(i64 %_4, ptr align 8 %f), !dbg !3121
  %3 = zext i1 %2 to i8, !dbg !3121
  store i8 %3, ptr %_0, align 1, !dbg !3121
  br label %bb9, !dbg !3103

bb9:                                              ; preds = %bb2, %bb4
  %4 = load i8, ptr %_0, align 1, !dbg !3122
  %5 = trunc nuw i8 %4 to i1, !dbg !3122
  ret i1 %5, !dbg !3122
}

; <*const T as core::fmt::Pointer>::fmt
; Function Attrs: uwtable
define internal zeroext i1 @"_ZN54_$LT$$BP$const$u20$T$u20$as$u20$core..fmt..Pointer$GT$3fmt17ha283d770538187afE"(ptr align 8 %self, ptr align 8 %f) unnamed_addr #0 !dbg !3123 {
start:
  %self.dbg.spill2 = alloca [8 x i8], align 8
  %ptr.dbg.spill = alloca [8 x i8], align 8
  %f.dbg.spill = alloca [8 x i8], align 8
  %self.dbg.spill = alloca [8 x i8], align 8
  %_13 = alloca [0 x i8], align 1
  %_9 = alloca [16 x i8], align 8
  %_0 = alloca [1 x i8], align 1
  store ptr %self, ptr %self.dbg.spill, align 8
    #dbg_declare(ptr %self.dbg.spill, !3127, !DIExpression(), !3129)
  store ptr %f, ptr %f.dbg.spill, align 8
    #dbg_declare(ptr %f.dbg.spill, !3128, !DIExpression(), !3130)
; call <() as core::unit::IsUnit>::is_unit
  %_3 = call zeroext i1 @"_ZN47_$LT$$LP$$RP$$u20$as$u20$core..unit..IsUnit$GT$7is_unit17hefe2e1bd2f018f1bE"(), !dbg !3131
  br i1 %_3, label %bb2, label %bb4, !dbg !3131

bb4:                                              ; preds = %start
; call core::fmt::Formatter::debug_struct
  call void @_ZN4core3fmt9Formatter12debug_struct17h55a79d93041b839dE(ptr sret([16 x i8]) align 8 %_9, ptr align 8 %f, ptr align 1 @alloc_ce241a11b15bddb1715fb336b57443fe, i64 7), !dbg !3132
; call core::fmt::builders::DebugStruct::field_with
  %_7 = call align 8 ptr @_ZN4core3fmt8builders11DebugStruct10field_with17hedab180bb46e65ccE(ptr align 8 %_9, ptr align 1 @alloc_54a7bb754f73cc19a80f411dbaeede2b, i64 4, ptr align 8 %self), !dbg !3133
  %ptr = load ptr, ptr %self, align 8, !dbg !3134
  store ptr %ptr, ptr %ptr.dbg.spill, align 8, !dbg !3134
    #dbg_declare(ptr %ptr.dbg.spill, !3135, !DIExpression(), !3140)
; call core::fmt::builders::DebugStruct::field
  %_6 = call align 8 ptr @_ZN4core3fmt8builders11DebugStruct5field17h3ee9b9e1fc926e61E(ptr align 8 %_7, ptr align 1 @alloc_670772c5db542b0dbf2f0a341c0a82f0, i64 8, ptr align 1 %_13, ptr align 8 @vtable.1), !dbg !3142
; call core::fmt::builders::DebugStruct::finish
  %0 = call zeroext i1 @_ZN4core3fmt8builders11DebugStruct6finish17hd222a908c37b56a9E(ptr align 8 %_6), !dbg !3143
  %1 = zext i1 %0 to i8, !dbg !3143
  store i8 %1, ptr %_0, align 1, !dbg !3143
  br label %bb9, !dbg !3144

bb2:                                              ; preds = %start
  %self1 = load ptr, ptr %self, align 8, !dbg !3145
  store ptr %self1, ptr %self.dbg.spill2, align 8, !dbg !3145
    #dbg_declare(ptr %self.dbg.spill2, !3146, !DIExpression(), !3149)
    #dbg_declare(ptr %self.dbg.spill2, !3151, !DIExpression(), !3157)
  %_4 = ptrtoint ptr %self1 to i64, !dbg !3159
; call core::fmt::pointer_fmt_inner
  %2 = call zeroext i1 @_ZN4core3fmt17pointer_fmt_inner17h31595b622a28a27eE(i64 %_4, ptr align 8 %f), !dbg !3160
  %3 = zext i1 %2 to i8, !dbg !3160
  store i8 %3, ptr %_0, align 1, !dbg !3160
  br label %bb9, !dbg !3144

bb9:                                              ; preds = %bb2, %bb4
  %4 = load i8, ptr %_0, align 1, !dbg !3161
  %5 = trunc nuw i8 %4 to i1, !dbg !3161
  ret i1 %5, !dbg !3161
}

; <*const T as core::fmt::Pointer>::fmt::{{closure}}
; Function Attrs: inlinehint uwtable
define internal zeroext i1 @"_ZN54_$LT$$BP$const$u20$T$u20$as$u20$core..fmt..Pointer$GT$3fmt28_$u7b$$u7b$closure$u7d$$u7d$17h1057702fa0797978E"(ptr align 8 %_1, ptr align 8 %f) unnamed_addr #1 !dbg !3162 {
start:
  %self.dbg.spill = alloca [8 x i8], align 8
  %f.dbg.spill = alloca [8 x i8], align 8
  %_1.dbg.spill = alloca [8 x i8], align 8
  store ptr %_1, ptr %_1.dbg.spill, align 8
    #dbg_declare(ptr %_1.dbg.spill, !3167, !DIExpression(DW_OP_deref), !3168)
  store ptr %f, ptr %f.dbg.spill, align 8
    #dbg_declare(ptr %f.dbg.spill, !3166, !DIExpression(), !3169)
  %self = load ptr, ptr %_1, align 8, !dbg !3170
  store ptr %self, ptr %self.dbg.spill, align 8, !dbg !3170
    #dbg_declare(ptr %self.dbg.spill, !3171, !DIExpression(), !3174)
    #dbg_declare(ptr %self.dbg.spill, !3176, !DIExpression(), !3179)
  %_3 = ptrtoint ptr %self to i64, !dbg !3181
; call core::fmt::pointer_fmt_inner
  %_0 = call zeroext i1 @_ZN4core3fmt17pointer_fmt_inner17h31595b622a28a27eE(i64 %_3, ptr align 8 %f), !dbg !3182
  ret i1 %_0, !dbg !3183
}

; <*const T as core::fmt::Pointer>::fmt::{{closure}}
; Function Attrs: inlinehint uwtable
define internal zeroext i1 @"_ZN54_$LT$$BP$const$u20$T$u20$as$u20$core..fmt..Pointer$GT$3fmt28_$u7b$$u7b$closure$u7d$$u7d$17h35287d16bad9d187E"(ptr align 8 %_1, ptr align 8 %f) unnamed_addr #1 !dbg !3184 {
start:
  %self.dbg.spill = alloca [8 x i8], align 8
  %f.dbg.spill = alloca [8 x i8], align 8
  %_1.dbg.spill = alloca [8 x i8], align 8
  store ptr %_1, ptr %_1.dbg.spill, align 8
    #dbg_declare(ptr %_1.dbg.spill, !3189, !DIExpression(DW_OP_deref), !3190)
  store ptr %f, ptr %f.dbg.spill, align 8
    #dbg_declare(ptr %f.dbg.spill, !3188, !DIExpression(), !3191)
  %self = load ptr, ptr %_1, align 8, !dbg !3192
  store ptr %self, ptr %self.dbg.spill, align 8, !dbg !3192
    #dbg_declare(ptr %self.dbg.spill, !3193, !DIExpression(), !3196)
    #dbg_declare(ptr %self.dbg.spill, !3198, !DIExpression(), !3201)
  %_3 = ptrtoint ptr %self to i64, !dbg !3203
; call core::fmt::pointer_fmt_inner
  %_0 = call zeroext i1 @_ZN4core3fmt17pointer_fmt_inner17h31595b622a28a27eE(i64 %_3, ptr align 8 %f), !dbg !3204
  ret i1 %_0, !dbg !3205
}

; <*const T as core::fmt::Pointer>::fmt::{{closure}}
; Function Attrs: inlinehint uwtable
define internal zeroext i1 @"_ZN54_$LT$$BP$const$u20$T$u20$as$u20$core..fmt..Pointer$GT$3fmt28_$u7b$$u7b$closure$u7d$$u7d$17h5d90d631796e4101E"(ptr align 8 %_1, ptr align 8 %f) unnamed_addr #1 !dbg !3206 {
start:
  %self.dbg.spill = alloca [8 x i8], align 8
  %f.dbg.spill = alloca [8 x i8], align 8
  %_1.dbg.spill = alloca [8 x i8], align 8
  store ptr %_1, ptr %_1.dbg.spill, align 8
    #dbg_declare(ptr %_1.dbg.spill, !3211, !DIExpression(DW_OP_deref), !3212)
  store ptr %f, ptr %f.dbg.spill, align 8
    #dbg_declare(ptr %f.dbg.spill, !3210, !DIExpression(), !3213)
  %self = load ptr, ptr %_1, align 8, !dbg !3214
  store ptr %self, ptr %self.dbg.spill, align 8, !dbg !3214
    #dbg_declare(ptr %self.dbg.spill, !3215, !DIExpression(), !3218)
    #dbg_declare(ptr %self.dbg.spill, !3220, !DIExpression(), !3223)
  %_3 = ptrtoint ptr %self to i64, !dbg !3225
; call core::fmt::pointer_fmt_inner
  %_0 = call zeroext i1 @_ZN4core3fmt17pointer_fmt_inner17h31595b622a28a27eE(i64 %_3, ptr align 8 %f), !dbg !3226
  ret i1 %_0, !dbg !3227
}

; <*const T as core::fmt::Pointer>::fmt::{{closure}}
; Function Attrs: inlinehint uwtable
define internal zeroext i1 @"_ZN54_$LT$$BP$const$u20$T$u20$as$u20$core..fmt..Pointer$GT$3fmt28_$u7b$$u7b$closure$u7d$$u7d$17h8bb156c02235f635E"(ptr align 8 %_1, ptr align 8 %f) unnamed_addr #1 !dbg !3228 {
start:
  %self.dbg.spill = alloca [8 x i8], align 8
  %f.dbg.spill = alloca [8 x i8], align 8
  %_1.dbg.spill = alloca [8 x i8], align 8
  store ptr %_1, ptr %_1.dbg.spill, align 8
    #dbg_declare(ptr %_1.dbg.spill, !3233, !DIExpression(DW_OP_deref), !3234)
  store ptr %f, ptr %f.dbg.spill, align 8
    #dbg_declare(ptr %f.dbg.spill, !3232, !DIExpression(), !3235)
  %self = load ptr, ptr %_1, align 8, !dbg !3236
  store ptr %self, ptr %self.dbg.spill, align 8, !dbg !3236
    #dbg_declare(ptr %self.dbg.spill, !3237, !DIExpression(), !3240)
    #dbg_declare(ptr %self.dbg.spill, !3242, !DIExpression(), !3245)
  %_3 = ptrtoint ptr %self to i64, !dbg !3247
; call core::fmt::pointer_fmt_inner
  %_0 = call zeroext i1 @_ZN4core3fmt17pointer_fmt_inner17h31595b622a28a27eE(i64 %_3, ptr align 8 %f), !dbg !3248
  ret i1 %_0, !dbg !3249
}

; <*const T as core::fmt::Pointer>::fmt::{{closure}}
; Function Attrs: inlinehint uwtable
define internal zeroext i1 @"_ZN54_$LT$$BP$const$u20$T$u20$as$u20$core..fmt..Pointer$GT$3fmt28_$u7b$$u7b$closure$u7d$$u7d$17h94a33faef617b6e4E"(ptr align 8 %_1, ptr align 8 %f) unnamed_addr #1 !dbg !3250 {
start:
  %self.dbg.spill = alloca [8 x i8], align 8
  %f.dbg.spill = alloca [8 x i8], align 8
  %_1.dbg.spill = alloca [8 x i8], align 8
  store ptr %_1, ptr %_1.dbg.spill, align 8
    #dbg_declare(ptr %_1.dbg.spill, !3255, !DIExpression(DW_OP_deref), !3256)
  store ptr %f, ptr %f.dbg.spill, align 8
    #dbg_declare(ptr %f.dbg.spill, !3254, !DIExpression(), !3257)
  %self = load ptr, ptr %_1, align 8, !dbg !3258
  store ptr %self, ptr %self.dbg.spill, align 8, !dbg !3258
    #dbg_declare(ptr %self.dbg.spill, !3259, !DIExpression(), !3262)
    #dbg_declare(ptr %self.dbg.spill, !3264, !DIExpression(), !3267)
  %_3 = ptrtoint ptr %self to i64, !dbg !3269
; call core::fmt::pointer_fmt_inner
  %_0 = call zeroext i1 @_ZN4core3fmt17pointer_fmt_inner17h31595b622a28a27eE(i64 %_3, ptr align 8 %f), !dbg !3270
  ret i1 %_0, !dbg !3271
}

; <() as std::process::Termination>::report
; Function Attrs: inlinehint uwtable
define internal i8 @"_ZN54_$LT$$LP$$RP$$u20$as$u20$std..process..Termination$GT$6report17h557aedde7ef21472E"() unnamed_addr #1 !dbg !3272 {
start:
  %_1.dbg.spill = alloca [0 x i8], align 1
    #dbg_declare(ptr %_1.dbg.spill, !3277, !DIExpression(), !3278)
  ret i8 0, !dbg !3279
}

; alloc::vec::Vec<T,A>::set_len::precondition_check
; Function Attrs: inlinehint nounwind uwtable
define internal void @"_ZN5alloc3vec16Vec$LT$T$C$A$GT$7set_len18precondition_check17h032112063d3e28b7E"(i64 %new_len, i64 %capacity, ptr align 8 %0) unnamed_addr #4 !dbg !3280 {
start:
  %pieces.dbg.spill = alloca [8 x i8], align 8
  %msg.dbg.spill = alloca [16 x i8], align 8
  %capacity.dbg.spill = alloca [8 x i8], align 8
  %new_len.dbg.spill = alloca [8 x i8], align 8
  %_7 = alloca [16 x i8], align 8
  %_5 = alloca [48 x i8], align 8
  store i64 %new_len, ptr %new_len.dbg.spill, align 8
    #dbg_declare(ptr %new_len.dbg.spill, !3284, !DIExpression(), !3288)
  store i64 %capacity, ptr %capacity.dbg.spill, align 8
    #dbg_declare(ptr %capacity.dbg.spill, !3285, !DIExpression(), !3288)
  store ptr @alloc_57d70e9d94c65ecfc15225d29a5ed72b, ptr %msg.dbg.spill, align 8, !dbg !3289
  %1 = getelementptr inbounds i8, ptr %msg.dbg.spill, i64 8, !dbg !3289
  store i64 198, ptr %1, align 8, !dbg !3289
    #dbg_declare(ptr %msg.dbg.spill, !3286, !DIExpression(), !3289)
  %_3 = icmp ule i64 %new_len, %capacity, !dbg !3290
  br i1 %_3, label %bb1, label %bb2, !dbg !3290

bb2:                                              ; preds = %start
  %2 = getelementptr inbounds nuw { ptr, i64 }, ptr %_7, i64 0, !dbg !3293
  store ptr @alloc_57d70e9d94c65ecfc15225d29a5ed72b, ptr %2, align 8, !dbg !3293
  %3 = getelementptr inbounds i8, ptr %2, i64 8, !dbg !3293
  store i64 198, ptr %3, align 8, !dbg !3293
  store ptr %_7, ptr %pieces.dbg.spill, align 8, !dbg !3294
    #dbg_declare(ptr %pieces.dbg.spill, !3295, !DIExpression(), !3298)
  store ptr %_7, ptr %_5, align 8, !dbg !3300
  %4 = getelementptr inbounds i8, ptr %_5, i64 8, !dbg !3300
  store i64 1, ptr %4, align 8, !dbg !3300
  %5 = load ptr, ptr @anon.0708bd2454ad289a73a64e34329909be.0, align 8, !dbg !3300
  %6 = load i64, ptr getelementptr inbounds (i8, ptr @anon.0708bd2454ad289a73a64e34329909be.0, i64 8), align 8, !dbg !3300
  %7 = getelementptr inbounds i8, ptr %_5, i64 32, !dbg !3300
  store ptr %5, ptr %7, align 8, !dbg !3300
  %8 = getelementptr inbounds i8, ptr %7, i64 8, !dbg !3300
  store i64 %6, ptr %8, align 8, !dbg !3300
  %9 = getelementptr inbounds i8, ptr %_5, i64 16, !dbg !3300
  store ptr inttoptr (i64 8 to ptr), ptr %9, align 8, !dbg !3300
  %10 = getelementptr inbounds i8, ptr %9, i64 8, !dbg !3300
  store i64 0, ptr %10, align 8, !dbg !3300
; call core::panicking::panic_nounwind_fmt
  call void @_ZN4core9panicking18panic_nounwind_fmt17h9825e2aa83719df7E(ptr align 8 %_5, i1 zeroext false, ptr align 8 %0) #18, !dbg !3301
  unreachable, !dbg !3301

bb1:                                              ; preds = %start
  ret void, !dbg !3302
}

; alloc::alloc::exchange_malloc
; Function Attrs: inlinehint uwtable
define internal ptr @_ZN5alloc5alloc15exchange_malloc17h24fd1715ca98dc82E(i64 %size, i64 %align) unnamed_addr #1 !dbg !3303 {
start:
  %ptr.dbg.spill = alloca [16 x i8], align 8
  %layout.dbg.spill = alloca [16 x i8], align 8
  %self.dbg.spill = alloca [8 x i8], align 8
  %align.dbg.spill = alloca [8 x i8], align 8
  %size.dbg.spill = alloca [8 x i8], align 8
  %_4 = alloca [16 x i8], align 8
  store i64 %size, ptr %size.dbg.spill, align 8
    #dbg_declare(ptr %size.dbg.spill, !3309, !DIExpression(), !3329)
    #dbg_declare(ptr %size.dbg.spill, !3330, !DIExpression(), !3337)
  store i64 %align, ptr %align.dbg.spill, align 8
    #dbg_declare(ptr %align.dbg.spill, !3310, !DIExpression(), !3339)
    #dbg_declare(ptr %align.dbg.spill, !3336, !DIExpression(), !3340)
  store ptr inttoptr (i64 1 to ptr), ptr %self.dbg.spill, align 8, !dbg !3341
    #dbg_declare(ptr %self.dbg.spill, !3365, !DIExpression(), !3341)
  br label %bb4, !dbg !3368

bb4:                                              ; preds = %start
; call core::alloc::layout::Layout::from_size_align_unchecked::precondition_check
  call void @_ZN4core5alloc6layout6Layout25from_size_align_unchecked18precondition_check17hb76fe35de1535b92E(i64 %size, i64 %align, ptr align 8 @alloc_95ca2ad551daf17833facdb122ad62f2) #20, !dbg !3370
  br label %bb5, !dbg !3370

bb5:                                              ; preds = %bb4
  store i64 %align, ptr %layout.dbg.spill, align 8, !dbg !3371
  %0 = getelementptr inbounds i8, ptr %layout.dbg.spill, i64 8, !dbg !3371
  store i64 %size, ptr %0, align 8, !dbg !3371
    #dbg_declare(ptr %layout.dbg.spill, !3311, !DIExpression(), !3372)
    #dbg_declare(ptr %layout.dbg.spill, !3366, !DIExpression(), !3373)
; call alloc::alloc::Global::alloc_impl
  %1 = call { ptr, i64 } @_ZN5alloc5alloc6Global10alloc_impl17ha5de41c3dd42be78E(ptr align 1 inttoptr (i64 1 to ptr), i64 %align, i64 %size, i1 zeroext false), !dbg !3374
  %2 = extractvalue { ptr, i64 } %1, 0, !dbg !3374
  %3 = extractvalue { ptr, i64 } %1, 1, !dbg !3374
  store ptr %2, ptr %_4, align 8, !dbg !3374
  %4 = getelementptr inbounds i8, ptr %_4, i64 8, !dbg !3374
  store i64 %3, ptr %4, align 8, !dbg !3374
  %5 = load ptr, ptr %_4, align 8, !dbg !3375
  %6 = getelementptr inbounds i8, ptr %_4, i64 8, !dbg !3375
  %7 = load i64, ptr %6, align 8, !dbg !3375
  %8 = ptrtoint ptr %5 to i64, !dbg !3375
  %9 = icmp eq i64 %8, 0, !dbg !3375
  %_5 = select i1 %9, i64 1, i64 0, !dbg !3375
  %10 = trunc nuw i64 %_5 to i1, !dbg !3376
  br i1 %10, label %bb2, label %bb3, !dbg !3376

bb2:                                              ; preds = %bb5
; call alloc::alloc::handle_alloc_error
  call void @_ZN5alloc5alloc18handle_alloc_error17h17571553387e7c80E(i64 %align, i64 %size) #16, !dbg !3377
  unreachable, !dbg !3377

bb3:                                              ; preds = %bb5
  %ptr.0 = load ptr, ptr %_4, align 8, !dbg !3378
  %11 = getelementptr inbounds i8, ptr %_4, i64 8, !dbg !3378
  %ptr.1 = load i64, ptr %11, align 8, !dbg !3378
  store ptr %ptr.0, ptr %ptr.dbg.spill, align 8, !dbg !3378
  %12 = getelementptr inbounds i8, ptr %ptr.dbg.spill, i64 8, !dbg !3378
  store i64 %ptr.1, ptr %12, align 8, !dbg !3378
    #dbg_declare(ptr %ptr.dbg.spill, !3320, !DIExpression(), !3379)
    #dbg_declare(ptr %ptr.dbg.spill, !3380, !DIExpression(), !3386)
  ret ptr %ptr.0, !dbg !3388

bb1:                                              ; No predecessors!
  unreachable, !dbg !3375
}

; alloc::alloc::Global::alloc_impl
; Function Attrs: inlinehint uwtable
define internal { ptr, i64 } @_ZN5alloc5alloc6Global10alloc_impl17ha5de41c3dd42be78E(ptr align 1 %self, i64 %0, i64 %1, i1 zeroext %zeroed) unnamed_addr #1 !dbg !3389 {
start:
  %ptr.dbg.spill21 = alloca [16 x i8], align 8
  %data.dbg.spill20 = alloca [8 x i8], align 8
  %ptr.dbg.spill19 = alloca [8 x i8], align 8
  %v.dbg.spill17 = alloca [8 x i8], align 8
  %v.dbg.spill = alloca [8 x i8], align 8
  %ptr.dbg.spill15 = alloca [8 x i8], align 8
  %self.dbg.spill14 = alloca [8 x i8], align 8
  %self.dbg.spill13 = alloca [8 x i8], align 8
  %self.dbg.spill12 = alloca [8 x i8], align 8
  %self.dbg.spill11 = alloca [8 x i8], align 8
  %ptr.dbg.spill = alloca [16 x i8], align 8
  %data.dbg.spill10 = alloca [8 x i8], align 8
  %data.dbg.spill = alloca [8 x i8], align 8
  %self.dbg.spill9 = alloca [8 x i8], align 8
  %size.dbg.spill = alloca [8 x i8], align 8
  %self.dbg.spill8 = alloca [8 x i8], align 8
  %t.dbg.spill = alloca [0 x i8], align 1
  %e.dbg.spill7 = alloca [0 x i8], align 1
  %residual.dbg.spill6 = alloca [0 x i8], align 1
  %e.dbg.spill = alloca [0 x i8], align 1
  %err.dbg.spill = alloca [0 x i8], align 1
  %len.dbg.spill5 = alloca [8 x i8], align 8
  %len.dbg.spill = alloca [8 x i8], align 8
  %residual.dbg.spill = alloca [0 x i8], align 1
  %zeroed.dbg.spill = alloca [1 x i8], align 1
  %self.dbg.spill = alloca [8 x i8], align 8
  %self4 = alloca [8 x i8], align 8
  %self3 = alloca [8 x i8], align 8
  %_12 = alloca [8 x i8], align 8
  %layout2 = alloca [16 x i8], align 8
  %layout1 = alloca [16 x i8], align 8
  %raw_ptr = alloca [8 x i8], align 8
  %_0 = alloca [16 x i8], align 8
  %layout = alloca [16 x i8], align 8
  store i64 %0, ptr %layout, align 8
  %2 = getelementptr inbounds i8, ptr %layout, i64 8
  store i64 %1, ptr %2, align 8
  store ptr %self, ptr %self.dbg.spill, align 8
    #dbg_declare(ptr %self.dbg.spill, !3394, !DIExpression(), !3420)
    #dbg_declare(ptr %layout, !3395, !DIExpression(), !3421)
  %3 = zext i1 %zeroed to i8
  store i8 %3, ptr %zeroed.dbg.spill, align 1
    #dbg_declare(ptr %zeroed.dbg.spill, !3396, !DIExpression(), !3422)
    #dbg_declare(ptr %raw_ptr, !3399, !DIExpression(), !3423)
    #dbg_declare(ptr %layout1, !3424, !DIExpression(), !3429)
    #dbg_declare(ptr %layout2, !3431, !DIExpression(), !3434)
    #dbg_declare(ptr %self3, !3436, !DIExpression(), !3476)
    #dbg_declare(ptr %self4, !3479, !DIExpression(), !3501)
    #dbg_declare(ptr %residual.dbg.spill, !3403, !DIExpression(), !3503)
  store i64 0, ptr %len.dbg.spill, align 8, !dbg !3504
    #dbg_declare(ptr %len.dbg.spill, !3511, !DIExpression(), !3504)
  store i64 0, ptr %len.dbg.spill5, align 8, !dbg !3514
    #dbg_declare(ptr %len.dbg.spill5, !3524, !DIExpression(), !3514)
    #dbg_declare(ptr %err.dbg.spill, !3498, !DIExpression(), !3527)
    #dbg_declare(ptr %e.dbg.spill, !3474, !DIExpression(), !3528)
    #dbg_declare(ptr %residual.dbg.spill6, !3529, !DIExpression(), !3538)
    #dbg_declare(ptr %e.dbg.spill7, !3534, !DIExpression(), !3541)
    #dbg_declare(ptr %t.dbg.spill, !3542, !DIExpression(), !3549)
  store ptr %layout, ptr %self.dbg.spill8, align 8, !dbg !3551
    #dbg_declare(ptr %self.dbg.spill8, !3552, !DIExpression(), !3559)
  %4 = getelementptr inbounds i8, ptr %layout, i64 8, !dbg !3561
  %size = load i64, ptr %4, align 8, !dbg !3561
  store i64 %size, ptr %size.dbg.spill, align 8, !dbg !3561
    #dbg_declare(ptr %size.dbg.spill, !3397, !DIExpression(), !3562)
    #dbg_declare(ptr %size.dbg.spill, !3512, !DIExpression(), !3563)
    #dbg_declare(ptr %size.dbg.spill, !3525, !DIExpression(), !3565)
  %5 = icmp eq i64 %size, 0, !dbg !3568
  br i1 %5, label %bb2, label %bb1, !dbg !3568

bb2:                                              ; preds = %start
  store ptr %layout, ptr %self.dbg.spill9, align 8, !dbg !3569
    #dbg_declare(ptr %self.dbg.spill9, !3570, !DIExpression(), !3576)
  %_19 = load i64, ptr %layout, align 8, !dbg !3578
  %_20 = getelementptr i8, ptr null, i64 %_19, !dbg !3579
  store ptr %_20, ptr %data.dbg.spill, align 8, !dbg !3596
    #dbg_declare(ptr %data.dbg.spill, !3510, !DIExpression(), !3597)
    #dbg_declare(ptr %data.dbg.spill, !3598, !DIExpression(), !3604)
  %data = getelementptr i8, ptr null, i64 %_19, !dbg !3606
  store ptr %data, ptr %data.dbg.spill10, align 8, !dbg !3606
    #dbg_declare(ptr %data.dbg.spill10, !3523, !DIExpression(), !3607)
  store ptr %data, ptr %ptr.dbg.spill, align 8, !dbg !3608
  %6 = getelementptr inbounds i8, ptr %ptr.dbg.spill, i64 8, !dbg !3608
  store i64 0, ptr %6, align 8, !dbg !3608
    #dbg_declare(ptr %ptr.dbg.spill, !3613, !DIExpression(), !3619)
  br label %bb7, !dbg !3621

bb1:                                              ; preds = %start
  br i1 %zeroed, label %bb3, label %bb4, !dbg !3623

bb7:                                              ; preds = %bb2
  %_24 = getelementptr i8, ptr null, i64 %_19, !dbg !3624
; call core::ptr::non_null::NonNull<T>::new_unchecked::precondition_check
  call void @"_ZN4core3ptr8non_null16NonNull$LT$T$GT$13new_unchecked18precondition_check17h18f18375962e39e0E"(ptr %_24, ptr align 8 @alloc_827fc580ae74785f56b1507bfd6b2422) #20, !dbg !3625
  br label %bb9, !dbg !3626

bb9:                                              ; preds = %bb7
  store ptr %data, ptr %_0, align 8, !dbg !3627
  %7 = getelementptr inbounds i8, ptr %_0, i64 8, !dbg !3627
  store i64 0, ptr %7, align 8, !dbg !3627
  br label %bb6, !dbg !3628

bb6:                                              ; preds = %bb21, %bb14, %bb9
  %8 = load ptr, ptr %_0, align 8, !dbg !3629
  %9 = getelementptr inbounds i8, ptr %_0, i64 8, !dbg !3629
  %10 = load i64, ptr %9, align 8, !dbg !3629
  %11 = insertvalue { ptr, i64 } poison, ptr %8, 0, !dbg !3629
  %12 = insertvalue { ptr, i64 } %11, i64 %10, 1, !dbg !3629
  ret { ptr, i64 } %12, !dbg !3629

bb4:                                              ; preds = %bb1
  %13 = load i64, ptr %layout, align 8, !dbg !3630
  %14 = getelementptr inbounds i8, ptr %layout, i64 8, !dbg !3630
  %15 = load i64, ptr %14, align 8, !dbg !3630
  store i64 %13, ptr %layout2, align 8, !dbg !3630
  %16 = getelementptr inbounds i8, ptr %layout2, i64 8, !dbg !3630
  store i64 %15, ptr %16, align 8, !dbg !3630
; call __rustc::__rust_no_alloc_shim_is_unstable_v2
  call void @_RNvCsj4CZ6flxxfE_7___rustc35___rust_no_alloc_shim_is_unstable_v2() #20, !dbg !3631
  store ptr %layout2, ptr %self.dbg.spill11, align 8, !dbg !3632
    #dbg_declare(ptr %self.dbg.spill11, !3552, !DIExpression(), !3633)
  store ptr %layout2, ptr %self.dbg.spill12, align 8, !dbg !3635
    #dbg_declare(ptr %self.dbg.spill12, !3636, !DIExpression(), !3640)
  %_38 = load i64, ptr %layout, align 8, !dbg !3642
; call __rustc::__rust_alloc
  %17 = call ptr @_RNvCsj4CZ6flxxfE_7___rustc12___rust_alloc(i64 %size, i64 %_38) #20, !dbg !3643
  store ptr %17, ptr %raw_ptr, align 8, !dbg !3643
  br label %bb5, !dbg !3644

bb3:                                              ; preds = %bb1
  %18 = load i64, ptr %layout, align 8, !dbg !3645
  %19 = getelementptr inbounds i8, ptr %layout, i64 8, !dbg !3645
  %20 = load i64, ptr %19, align 8, !dbg !3645
  store i64 %18, ptr %layout1, align 8, !dbg !3645
  %21 = getelementptr inbounds i8, ptr %layout1, i64 8, !dbg !3645
  store i64 %20, ptr %21, align 8, !dbg !3645
; call __rustc::__rust_no_alloc_shim_is_unstable_v2
  call void @_RNvCsj4CZ6flxxfE_7___rustc35___rust_no_alloc_shim_is_unstable_v2() #20, !dbg !3646
  store ptr %layout1, ptr %self.dbg.spill13, align 8, !dbg !3647
    #dbg_declare(ptr %self.dbg.spill13, !3552, !DIExpression(), !3648)
  store ptr %layout1, ptr %self.dbg.spill14, align 8, !dbg !3650
    #dbg_declare(ptr %self.dbg.spill14, !3636, !DIExpression(), !3651)
  %_32 = load i64, ptr %layout, align 8, !dbg !3653
; call __rustc::__rust_alloc_zeroed
  %22 = call ptr @_RNvCsj4CZ6flxxfE_7___rustc19___rust_alloc_zeroed(i64 %size, i64 %_32) #20, !dbg !3654
  store ptr %22, ptr %raw_ptr, align 8, !dbg !3654
  br label %bb5, !dbg !3644

bb5:                                              ; preds = %bb3, %bb4
  %ptr = load ptr, ptr %raw_ptr, align 8, !dbg !3655
  store ptr %ptr, ptr %ptr.dbg.spill15, align 8, !dbg !3655
    #dbg_declare(ptr %ptr.dbg.spill15, !3656, !DIExpression(), !3662)
    #dbg_declare(ptr %ptr.dbg.spill15, !3664, !DIExpression(), !3669)
    #dbg_declare(ptr %ptr.dbg.spill15, !3671, !DIExpression(), !3677)
  %_41 = ptrtoint ptr %ptr to i64, !dbg !3679
  %23 = icmp eq i64 %_41, 0, !dbg !3689
  br i1 %23, label %bb14, label %bb15, !dbg !3689

bb14:                                             ; preds = %bb5
  store ptr null, ptr %self4, align 8, !dbg !3690
  store ptr null, ptr %self3, align 8, !dbg !3691
  %24 = load ptr, ptr @anon.0708bd2454ad289a73a64e34329909be.0, align 8, !dbg !3692
  %25 = load i64, ptr getelementptr inbounds (i8, ptr @anon.0708bd2454ad289a73a64e34329909be.0, i64 8), align 8, !dbg !3692
  store ptr %24, ptr %_0, align 8, !dbg !3692
  %26 = getelementptr inbounds i8, ptr %_0, i64 8, !dbg !3692
  store i64 %25, ptr %26, align 8, !dbg !3692
  br label %bb6, !dbg !3629

bb15:                                             ; preds = %bb5
  br label %bb16, !dbg !3693

bb16:                                             ; preds = %bb15
; call core::ptr::non_null::NonNull<T>::new_unchecked::precondition_check
  call void @"_ZN4core3ptr8non_null16NonNull$LT$T$GT$13new_unchecked18precondition_check17h18f18375962e39e0E"(ptr %ptr, ptr align 8 @alloc_8e97afaeee774873d13f09bb95d8211a) #20, !dbg !3695
  br label %bb18, !dbg !3696

bb18:                                             ; preds = %bb16
  store ptr %ptr, ptr %self4, align 8, !dbg !3697
  %v = load ptr, ptr %self4, align 8, !dbg !3698
  store ptr %v, ptr %v.dbg.spill, align 8, !dbg !3698
    #dbg_declare(ptr %v.dbg.spill, !3499, !DIExpression(), !3699)
  store ptr %v, ptr %self3, align 8, !dbg !3700
  %v16 = load ptr, ptr %self3, align 8, !dbg !3701
  store ptr %v16, ptr %v.dbg.spill17, align 8, !dbg !3701
    #dbg_declare(ptr %v.dbg.spill17, !3472, !DIExpression(), !3702)
  store ptr %v16, ptr %_12, align 8, !dbg !3703
  %ptr18 = load ptr, ptr %_12, align 8, !dbg !3663
  store ptr %ptr18, ptr %ptr.dbg.spill19, align 8, !dbg !3663
    #dbg_declare(ptr %ptr.dbg.spill19, !3401, !DIExpression(), !3704)
    #dbg_declare(ptr %ptr.dbg.spill19, !3418, !DIExpression(), !3705)
    #dbg_declare(ptr %ptr.dbg.spill19, !3510, !DIExpression(), !3706)
    #dbg_declare(ptr %ptr.dbg.spill19, !3598, !DIExpression(), !3707)
  store ptr %ptr18, ptr %data.dbg.spill20, align 8, !dbg !3709
    #dbg_declare(ptr %data.dbg.spill20, !3523, !DIExpression(), !3710)
  store ptr %ptr18, ptr %ptr.dbg.spill21, align 8, !dbg !3711
  %27 = getelementptr inbounds i8, ptr %ptr.dbg.spill21, i64 8, !dbg !3711
  store i64 %size, ptr %27, align 8, !dbg !3711
    #dbg_declare(ptr %ptr.dbg.spill21, !3613, !DIExpression(), !3714)
  br label %bb19, !dbg !3716

bb19:                                             ; preds = %bb18
; call core::ptr::non_null::NonNull<T>::new_unchecked::precondition_check
  call void @"_ZN4core3ptr8non_null16NonNull$LT$T$GT$13new_unchecked18precondition_check17h18f18375962e39e0E"(ptr %ptr18, ptr align 8 @alloc_827fc580ae74785f56b1507bfd6b2422) #20, !dbg !3717
  br label %bb21, !dbg !3718

bb21:                                             ; preds = %bb19
  store ptr %ptr18, ptr %_0, align 8, !dbg !3719
  %28 = getelementptr inbounds i8, ptr %_0, i64 8, !dbg !3719
  store i64 %size, ptr %28, align 8, !dbg !3719
  br label %bb6, !dbg !3720
}

; alloc::string::String::as_str
; Function Attrs: inlinehint uwtable
define internal { ptr, i64 } @_ZN5alloc6string6String6as_str17h7a4e5f66f0f2f23eE(ptr align 8 %self) unnamed_addr #1 !dbg !3721 {
start:
  %v.dbg.spill = alloca [16 x i8], align 8
  %len.dbg.spill = alloca [8 x i8], align 8
  %data.dbg.spill = alloca [8 x i8], align 8
  %self.dbg.spill1 = alloca [8 x i8], align 8
  %self.dbg.spill = alloca [8 x i8], align 8
  store ptr %self, ptr %self.dbg.spill, align 8
    #dbg_declare(ptr %self.dbg.spill, !3727, !DIExpression(), !3728)
  store ptr %self, ptr %self.dbg.spill1, align 8, !dbg !3729
    #dbg_declare(ptr %self.dbg.spill1, !3730, !DIExpression(), !3741)
    #dbg_declare(ptr %self.dbg.spill1, !3743, !DIExpression(), !3749)
  %0 = getelementptr inbounds i8, ptr %self, i64 8, !dbg !3751
  %_6 = load ptr, ptr %0, align 8, !dbg !3751
  store ptr %_6, ptr %data.dbg.spill, align 8, !dbg !3771
    #dbg_declare(ptr %data.dbg.spill, !3772, !DIExpression(), !3778)
    #dbg_declare(ptr %data.dbg.spill, !3780, !DIExpression(), !3786)
    #dbg_declare(ptr %data.dbg.spill, !3788, !DIExpression(), !3791)
  %1 = getelementptr inbounds i8, ptr %self, i64 16, !dbg !3793
  %len = load i64, ptr %1, align 8, !dbg !3793
  store i64 %len, ptr %len.dbg.spill, align 8, !dbg !3793
    #dbg_declare(ptr %len.dbg.spill, !3777, !DIExpression(), !3794)
    #dbg_declare(ptr %len.dbg.spill, !3785, !DIExpression(), !3795)
  br label %bb1, !dbg !3796

bb1:                                              ; preds = %start
; call core::slice::raw::from_raw_parts::precondition_check
  call void @_ZN4core5slice3raw14from_raw_parts18precondition_check17h49de462790076265E(ptr %_6, i64 1, i64 1, i64 %len, ptr align 8 @alloc_40c560344f81f2dece7a8bb81f255148) #20, !dbg !3798
  br label %bb3, !dbg !3799

bb3:                                              ; preds = %bb1
  store ptr %_6, ptr %v.dbg.spill, align 8, !dbg !3800
  %2 = getelementptr inbounds i8, ptr %v.dbg.spill, i64 8, !dbg !3800
  store i64 %len, ptr %2, align 8, !dbg !3800
    #dbg_declare(ptr %v.dbg.spill, !3801, !DIExpression(), !3809)
  %3 = insertvalue { ptr, i64 } poison, ptr %_6, 0, !dbg !3811
  %4 = insertvalue { ptr, i64 } %3, i64 %len, 1, !dbg !3811
  ret { ptr, i64 } %4, !dbg !3811
}

; alloc::raw_vec::RawVecInner<A>::with_capacity_in
; Function Attrs: inlinehint uwtable
define internal { i64, ptr } @"_ZN5alloc7raw_vec20RawVecInner$LT$A$GT$16with_capacity_in17h6ca7469549b0466fE"(i64 %capacity, i64 %elem_layout.0, i64 %elem_layout.1, ptr align 8 %0) unnamed_addr #1 !dbg !3812 {
start:
  %err.dbg.spill = alloca [16 x i8], align 8
  %cond.dbg.spill = alloca [1 x i8], align 1
  %self.dbg.spill3 = alloca [8 x i8], align 8
  %elem_size.dbg.spill = alloca [8 x i8], align 8
  %self.dbg.spill1 = alloca [8 x i8], align 8
  %self.dbg.spill = alloca [8 x i8], align 8
  %rhs.dbg.spill = alloca [8 x i8], align 8
  %len.dbg.spill = alloca [8 x i8], align 8
  %elem_layout.dbg.spill = alloca [16 x i8], align 8
  %alloc.dbg.spill = alloca [0 x i8], align 1
  %capacity.dbg.spill = alloca [8 x i8], align 8
  %self = alloca [8 x i8], align 8
  %elem_layout = alloca [16 x i8], align 8
  %this = alloca [16 x i8], align 8
  %_4 = alloca [24 x i8], align 8
  store i64 %capacity, ptr %capacity.dbg.spill, align 8
    #dbg_declare(ptr %capacity.dbg.spill, !3817, !DIExpression(), !3840)
    #dbg_declare(ptr %capacity.dbg.spill, !3841, !DIExpression(), !3850)
    #dbg_declare(ptr %alloc.dbg.spill, !3818, !DIExpression(), !3852)
  store i64 %elem_layout.0, ptr %elem_layout.dbg.spill, align 8
  %1 = getelementptr inbounds i8, ptr %elem_layout.dbg.spill, i64 8
  store i64 %elem_layout.1, ptr %1, align 8
    #dbg_declare(ptr %elem_layout.dbg.spill, !3819, !DIExpression(), !3853)
    #dbg_declare(ptr %this, !3820, !DIExpression(), !3854)
    #dbg_declare(ptr %elem_layout, !3849, !DIExpression(), !3855)
    #dbg_declare(ptr %self, !3856, !DIExpression(), !3860)
  store i64 0, ptr %len.dbg.spill, align 8, !dbg !3862
    #dbg_declare(ptr %len.dbg.spill, !3848, !DIExpression(), !3862)
  store i64 0, ptr %rhs.dbg.spill, align 8, !dbg !3863
    #dbg_declare(ptr %rhs.dbg.spill, !3859, !DIExpression(), !3863)
; call alloc::raw_vec::RawVecInner<A>::try_allocate_in
  call void @"_ZN5alloc7raw_vec20RawVecInner$LT$A$GT$15try_allocate_in17hc68b0a1d94185171E"(ptr sret([24 x i8]) align 8 %_4, i64 %capacity, i1 zeroext false, i64 %elem_layout.0, i64 %elem_layout.1), !dbg !3864
  %_5 = load i64, ptr %_4, align 8, !dbg !3864
  %2 = trunc nuw i64 %_5 to i1, !dbg !3865
  br i1 %2, label %bb3, label %bb4, !dbg !3865

bb3:                                              ; preds = %start
  %3 = getelementptr inbounds i8, ptr %_4, i64 8, !dbg !3866
  %err.0 = load i64, ptr %3, align 8, !dbg !3866
  %4 = getelementptr inbounds i8, ptr %3, i64 8, !dbg !3866
  %err.1 = load i64, ptr %4, align 8, !dbg !3866
  store i64 %err.0, ptr %err.dbg.spill, align 8, !dbg !3866
  %5 = getelementptr inbounds i8, ptr %err.dbg.spill, i64 8, !dbg !3866
  store i64 %err.1, ptr %5, align 8, !dbg !3866
    #dbg_declare(ptr %err.dbg.spill, !3822, !DIExpression(), !3867)
; call alloc::raw_vec::handle_error
  call void @_ZN5alloc7raw_vec12handle_error17h248646ff5a65193cE(i64 %err.0, i64 %err.1, ptr align 8 %0) #16, !dbg !3868
  unreachable, !dbg !3868

bb4:                                              ; preds = %start
  %6 = getelementptr inbounds i8, ptr %_4, i64 8, !dbg !3869
  %7 = load i64, ptr %6, align 8, !dbg !3869
  %8 = getelementptr inbounds i8, ptr %6, i64 8, !dbg !3869
  %9 = load ptr, ptr %8, align 8, !dbg !3869
  store i64 %7, ptr %this, align 8, !dbg !3869
  %10 = getelementptr inbounds i8, ptr %this, i64 8, !dbg !3869
  store ptr %9, ptr %10, align 8, !dbg !3869
  store ptr %this, ptr %self.dbg.spill, align 8, !dbg !3870
    #dbg_declare(ptr %self.dbg.spill, !3847, !DIExpression(), !3871)
    #dbg_declare(ptr %self.dbg.spill, !3872, !DIExpression(), !3879)
  store i64 %elem_layout.0, ptr %elem_layout, align 8, !dbg !3881
  %11 = getelementptr inbounds i8, ptr %elem_layout, i64 8, !dbg !3881
  store i64 %elem_layout.1, ptr %11, align 8, !dbg !3881
  store ptr %elem_layout, ptr %self.dbg.spill1, align 8, !dbg !3882
    #dbg_declare(ptr %self.dbg.spill1, !3883, !DIExpression(), !3886)
  store i64 %elem_layout.1, ptr %elem_size.dbg.spill, align 8, !dbg !3888
    #dbg_declare(ptr %elem_size.dbg.spill, !3878, !DIExpression(), !3889)
  %12 = icmp eq i64 %elem_layout.1, 0, !dbg !3890
  br i1 %12, label %bb6, label %bb7, !dbg !3890

bb6:                                              ; preds = %bb4
  store i64 -1, ptr %self, align 8, !dbg !3891
  br label %bb5, !dbg !3892

bb7:                                              ; preds = %bb4
  %self2 = load i64, ptr %this, align 8, !dbg !3893
  store i64 %self2, ptr %self.dbg.spill3, align 8, !dbg !3893
    #dbg_declare(ptr %self.dbg.spill3, !3894, !DIExpression(), !3901)
  store i64 %self2, ptr %self, align 8, !dbg !3903
  br label %bb5, !dbg !3892

bb5:                                              ; preds = %bb7, %bb6
  %13 = load i64, ptr %self, align 8, !dbg !3904
  %_13 = sub i64 %13, 0, !dbg !3904
  %_8 = icmp ugt i64 %capacity, %_13, !dbg !3905
  %cond = xor i1 %_8, true, !dbg !3906
  %14 = zext i1 %cond to i8, !dbg !3906
  store i8 %14, ptr %cond.dbg.spill, align 1, !dbg !3906
    #dbg_declare(ptr %cond.dbg.spill, !3907, !DIExpression(), !3910)
  br label %bb8, !dbg !3912

bb8:                                              ; preds = %bb5
; call core::hint::assert_unchecked::precondition_check
  call void @_ZN4core4hint16assert_unchecked18precondition_check17h8500ef60390ccb27E(i1 zeroext %cond, ptr align 8 %0) #20, !dbg !3914
  br label %bb9, !dbg !3914

bb9:                                              ; preds = %bb8
  %_0.0 = load i64, ptr %this, align 8, !dbg !3915
  %15 = getelementptr inbounds i8, ptr %this, i64 8, !dbg !3915
  %_0.1 = load ptr, ptr %15, align 8, !dbg !3915
  %16 = insertvalue { i64, ptr } poison, i64 %_0.0, 0, !dbg !3916
  %17 = insertvalue { i64, ptr } %16, ptr %_0.1, 1, !dbg !3916
  ret { i64, ptr } %17, !dbg !3916

bb2:                                              ; No predecessors!
  unreachable, !dbg !3864
}

; <alloc::string::String as core::fmt::Display>::fmt
; Function Attrs: inlinehint uwtable
define internal zeroext i1 @"_ZN60_$LT$alloc..string..String$u20$as$u20$core..fmt..Display$GT$3fmt17h57a5be7226bc2aa8E"(ptr align 8 %self, ptr align 8 %f) unnamed_addr #1 !dbg !3917 {
start:
  %v.dbg.spill = alloca [16 x i8], align 8
  %len.dbg.spill = alloca [8 x i8], align 8
  %data.dbg.spill = alloca [8 x i8], align 8
  %self.dbg.spill1 = alloca [8 x i8], align 8
  %f.dbg.spill = alloca [8 x i8], align 8
  %self.dbg.spill = alloca [8 x i8], align 8
  store ptr %self, ptr %self.dbg.spill, align 8
    #dbg_declare(ptr %self.dbg.spill, !3922, !DIExpression(), !3924)
    #dbg_declare(ptr %self.dbg.spill, !3925, !DIExpression(), !3929)
    #dbg_declare(ptr %self.dbg.spill, !3931, !DIExpression(), !3934)
  store ptr %f, ptr %f.dbg.spill, align 8
    #dbg_declare(ptr %f.dbg.spill, !3923, !DIExpression(), !3936)
  store ptr %self, ptr %self.dbg.spill1, align 8, !dbg !3937
    #dbg_declare(ptr %self.dbg.spill1, !3938, !DIExpression(), !3941)
    #dbg_declare(ptr %self.dbg.spill1, !3943, !DIExpression(), !3946)
  %0 = getelementptr inbounds i8, ptr %self, i64 8, !dbg !3948
  %_8 = load ptr, ptr %0, align 8, !dbg !3948
  store ptr %_8, ptr %data.dbg.spill, align 8, !dbg !3955
    #dbg_declare(ptr %data.dbg.spill, !3956, !DIExpression(), !3960)
    #dbg_declare(ptr %data.dbg.spill, !3962, !DIExpression(), !3966)
    #dbg_declare(ptr %data.dbg.spill, !3968, !DIExpression(), !3971)
  %1 = getelementptr inbounds i8, ptr %self, i64 16, !dbg !3973
  %len = load i64, ptr %1, align 8, !dbg !3973
  store i64 %len, ptr %len.dbg.spill, align 8, !dbg !3973
    #dbg_declare(ptr %len.dbg.spill, !3959, !DIExpression(), !3974)
    #dbg_declare(ptr %len.dbg.spill, !3965, !DIExpression(), !3975)
  br label %bb2, !dbg !3976

bb2:                                              ; preds = %start
; call core::slice::raw::from_raw_parts::precondition_check
  call void @_ZN4core5slice3raw14from_raw_parts18precondition_check17h49de462790076265E(ptr %_8, i64 1, i64 1, i64 %len, ptr align 8 @alloc_40c560344f81f2dece7a8bb81f255148) #20, !dbg !3978
  br label %bb4, !dbg !3979

bb4:                                              ; preds = %bb2
  store ptr %_8, ptr %v.dbg.spill, align 8, !dbg !3980
  %2 = getelementptr inbounds i8, ptr %v.dbg.spill, i64 8, !dbg !3980
  store i64 %len, ptr %2, align 8, !dbg !3980
    #dbg_declare(ptr %v.dbg.spill, !3981, !DIExpression(), !3984)
; call <str as core::fmt::Display>::fmt
  %_0 = call zeroext i1 @"_ZN42_$LT$str$u20$as$u20$core..fmt..Display$GT$3fmt17h6a6eda207857ca76E"(ptr align 1 %_8, i64 %len, ptr align 8 %f), !dbg !3986
  ret i1 %_0, !dbg !3987
}

; <alloc::alloc::Global as core::alloc::Allocator>::deallocate
; Function Attrs: inlinehint uwtable
define internal void @"_ZN63_$LT$alloc..alloc..Global$u20$as$u20$core..alloc..Allocator$GT$10deallocate17h06e7e3605e815d52E"(ptr align 1 %self, ptr %ptr, i64 %0, i64 %1) unnamed_addr #1 !dbg !3988 {
start:
  %self.dbg.spill5 = alloca [8 x i8], align 8
  %self.dbg.spill4 = alloca [8 x i8], align 8
  %ptr.dbg.spill3 = alloca [8 x i8], align 8
  %self.dbg.spill2 = alloca [8 x i8], align 8
  %ptr.dbg.spill = alloca [8 x i8], align 8
  %self.dbg.spill = alloca [8 x i8], align 8
  %layout1 = alloca [16 x i8], align 8
  %layout = alloca [16 x i8], align 8
  store i64 %0, ptr %layout, align 8
  %2 = getelementptr inbounds i8, ptr %layout, i64 8
  store i64 %1, ptr %2, align 8
  store ptr %self, ptr %self.dbg.spill, align 8
    #dbg_declare(ptr %self.dbg.spill, !3992, !DIExpression(), !3995)
  store ptr %ptr, ptr %ptr.dbg.spill, align 8
    #dbg_declare(ptr %ptr.dbg.spill, !3993, !DIExpression(), !3996)
    #dbg_declare(ptr %ptr.dbg.spill, !3997, !DIExpression(), !4000)
    #dbg_declare(ptr %layout, !3994, !DIExpression(), !4002)
    #dbg_declare(ptr %layout1, !4003, !DIExpression(), !4009)
  store ptr %layout, ptr %self.dbg.spill2, align 8, !dbg !4011
    #dbg_declare(ptr %self.dbg.spill2, !4012, !DIExpression(), !4015)
  %3 = getelementptr inbounds i8, ptr %layout, i64 8, !dbg !4017
  %_4 = load i64, ptr %3, align 8, !dbg !4017
  %4 = icmp eq i64 %_4, 0, !dbg !4011
  br i1 %4, label %bb2, label %bb1, !dbg !4011

bb2:                                              ; preds = %bb1, %start
  ret void, !dbg !4018

bb1:                                              ; preds = %start
  store ptr %ptr, ptr %ptr.dbg.spill3, align 8, !dbg !4019
    #dbg_declare(ptr %ptr.dbg.spill3, !4008, !DIExpression(), !4020)
  %5 = load i64, ptr %layout, align 8, !dbg !4021
  %6 = getelementptr inbounds i8, ptr %layout, i64 8, !dbg !4021
  %7 = load i64, ptr %6, align 8, !dbg !4021
  store i64 %5, ptr %layout1, align 8, !dbg !4021
  %8 = getelementptr inbounds i8, ptr %layout1, i64 8, !dbg !4021
  store i64 %7, ptr %8, align 8, !dbg !4021
  store ptr %layout1, ptr %self.dbg.spill4, align 8, !dbg !4022
    #dbg_declare(ptr %self.dbg.spill4, !4012, !DIExpression(), !4023)
  store ptr %layout1, ptr %self.dbg.spill5, align 8, !dbg !4025
    #dbg_declare(ptr %self.dbg.spill5, !4026, !DIExpression(), !4029)
  %_12 = load i64, ptr %layout, align 8, !dbg !4031
; call __rustc::__rust_dealloc
  call void @_RNvCsj4CZ6flxxfE_7___rustc14___rust_dealloc(ptr %ptr, i64 %_4, i64 %_12) #20, !dbg !4032
  br label %bb2, !dbg !4033
}

; <alloc::string::String as core::ops::deref::Deref>::deref
; Function Attrs: inlinehint uwtable
define internal { ptr, i64 } @"_ZN65_$LT$alloc..string..String$u20$as$u20$core..ops..deref..Deref$GT$5deref17h203747b61eb3f8ceE"(ptr align 8 %self) unnamed_addr #1 !dbg !4034 {
start:
  %self.dbg.spill = alloca [8 x i8], align 8
  store ptr %self, ptr %self.dbg.spill, align 8
    #dbg_declare(ptr %self.dbg.spill, !4036, !DIExpression(), !4037)
; call alloc::string::String::as_str
  %0 = call { ptr, i64 } @_ZN5alloc6string6String6as_str17h7a4e5f66f0f2f23eE(ptr align 8 %self), !dbg !4038
  %_0.0 = extractvalue { ptr, i64 } %0, 0, !dbg !4038
  %_0.1 = extractvalue { ptr, i64 } %0, 1, !dbg !4038
  %1 = insertvalue { ptr, i64 } poison, ptr %_0.0, 0, !dbg !4039
  %2 = insertvalue { ptr, i64 } %1, i64 %_0.1, 1, !dbg !4039
  ret { ptr, i64 } %2, !dbg !4039
}

; <alloc::boxed::Box<T,A> as core::fmt::Display>::fmt
; Function Attrs: uwtable
define internal zeroext i1 @"_ZN69_$LT$alloc..boxed..Box$LT$T$C$A$GT$$u20$as$u20$core..fmt..Display$GT$3fmt17hd73e8c14497fa81fE"(ptr align 8 %self, ptr align 8 %f) unnamed_addr #0 !dbg !4040 {
start:
  %f.dbg.spill = alloca [8 x i8], align 8
  %self.dbg.spill = alloca [8 x i8], align 8
  store ptr %self, ptr %self.dbg.spill, align 8
